Certificate:
    Data:
        Version: 3 (0x2)
        Serial Number: 26 (0x1a)
        Signature Algorithm: sha256WithRSAEncryption
        Issuer: C=US, ST=CA, L=Stanford, O=BMIR, OU=CEDAR, CN=metadatacenter.orgx/emailAddress=metadatacenter@gmail.com
        Validity
            Not Before: Mar 10 00:21:47 2023 GMT
            Not After : Jun 11 00:21:47 2025 GMT
        Subject: C=US, ST=CA, O=BMIR, OU=CEDAR, CN=docs-dist.cee.metadatacenter.orgx/emailAddress=metadatacenter@gmail.com
        Subject Public Key Info:
            Public Key Algorithm: rsaEncryption
                RSA Public-Key: (2048 bit)
                Modulus:
                    00:93:bb:2b:6b:6d:6e:5c:2c:75:17:d6:dc:1c:f9:
                    2c:21:fb:76:2b:8f:6e:e3:50:b1:38:56:9f:74:6c:
                    12:26:45:32:9b:05:8b:72:00:de:4b:3e:3b:57:6f:
                    22:20:6d:d5:79:b8:ec:6a:31:36:b8:df:88:e5:38:
                    ac:c0:3b:5d:c4:23:70:78:2f:a2:64:9c:03:14:20:
                    23:f2:a2:50:b5:d2:de:11:d8:3a:d9:42:9a:c7:9a:
                    1b:40:14:b3:7d:e0:a4:be:1a:75:43:2a:d7:1f:ca:
                    80:a2:12:07:40:ac:e0:fe:b1:da:cd:62:3a:31:a3:
                    cc:95:57:0b:e0:24:95:3a:64:1d:31:d3:bb:3f:70:
                    89:cd:5f:ff:ee:75:44:9b:cc:d6:83:25:5c:aa:35:
                    39:1d:a4:5d:7e:ea:96:04:ca:1c:dd:9b:c1:41:38:
                    a2:72:44:d6:8a:a8:e9:ac:a8:c0:52:83:80:ed:56:
                    7b:81:42:2d:4d:a0:d3:3b:da:67:c2:76:23:c4:fb:
                    98:66:18:b8:d8:17:03:5e:23:00:b4:2e:d8:50:18:
                    ba:7d:bd:82:09:96:40:85:75:07:f2:7a:58:14:f1:
                    82:2e:da:15:df:2c:47:5c:7c:48:46:74:3f:cb:db:
                    64:52:d6:98:5d:c8:c3:1e:76:53:dc:18:d6:03:5e:
                    e6:25
                Exponent: 65537 (0x10001)
        X509v3 extensions:
            X509v3 Basic Constraints: 
                CA:FALSE
            Netscape Comment: 
                OpenSSL Generated Certificate
            X509v3 Subject Key Identifier: 
                1A:6E:E2:DB:0A:B3:E0:2D:97:8E:3E:CB:45:56:FF:E7:2A:6B:C2:5E
            X509v3 Authority Key Identifier: 
                keyid:28:4B:14:74:83:1B:D1:89:D9:49:80:AF:D7:B3:45:63:AE:6E:31:A6

    Signature Algorithm: sha256WithRSAEncryption
         6c:24:72:ca:b5:1d:85:c8:69:8e:11:ea:cf:34:99:52:53:7b:
         5b:11:25:af:7c:d2:4e:44:4f:ed:b9:29:bc:5e:90:fb:56:68:
         cb:46:4f:b5:50:fd:cb:67:8d:07:3c:26:7e:dd:db:0f:73:52:
         67:1c:c5:2c:6d:2d:c2:4c:57:a0:ea:58:7c:6c:91:4f:26:61:
         60:f6:f8:fe:44:e3:08:e3:36:43:d4:97:1b:d9:d2:a5:f2:e5:
         5d:12:f6:fe:7c:8b:73:c4:23:e0:3b:8a:da:8e:b8:40:36:1b:
         9a:d2:25:ed:14:b5:98:e9:cf:26:e8:77:9c:68:fb:7d:aa:01:
         0f:92:2c:5e:98:c0:fc:c6:b5:e9:3d:11:6a:19:ea:52:2f:00:
         81:8a:ae:16:0e:1a:17:ec:c8:8b:3e:15:f7:f3:4e:3e:e4:66:
         4f:0a:49:77:7b:3d:ca:a6:bc:a0:7a:b2:43:4f:b7:ea:41:b6:
         3e:9c:7d:d2:85:07:80:6e:e0:11:31:eb:92:58:03:5a:3d:75:
         9e:aa:98:28:16:2d:7d:10:a1:59:71:cc:ae:07:ae:f5:4c:f2:
         b6:7a:e1:60:f4:8a:91:32:ac:2d:f3:a5:3a:64:bb:a5:0b:16:
         61:7c:a3:c9:ef:5e:85:1b:f8:86:65:ec:e6:8f:77:d5:02:02:
         2f:d3:10:a4:db:35:fb:a0:e9:3c:e6:64:6a:54:f2:11:38:94:
         94:1b:c4:be:98:46:4e:b5:2d:bc:94:5e:c0:cb:17:59:c6:dd:
         8d:ef:06:60:96:61:8f:a5:f4:c5:ae:bc:78:bc:2c:97:2d:90:
         71:00:ed:6c:9e:ff:a4:bf:30:d4:3b:9d:3a:27:7d:3f:49:31:
         c9:f5:5e:ac:2e:69:4b:ed:ba:e3:13:ac:fa:80:64:11:b9:b5:
         b2:d9:91:73:0b:38:e1:d5:b9:d4:01:fd:9b:d7:2e:60:ab:c5:
         3f:8f:d6:42:96:27:1a:0e:ab:aa:42:15:9d:be:93:27:65:10:
         b1:3c:6a:ca:0b:5c:04:71:ae:85:2f:3a:e5:00:3a:eb:ef:b4:
         f4:59:a1:b6:c6:70:cd:5a:b9:07:0f:39:cd:f6:4b:47:e0:cb:
         2f:33:55:55:3c:4c:3e:fe:a8:86:34:ec:4b:50:76:dc:7b:11:
         24:ce:bd:1a:be:c0:8f:3a:34:b8:5f:d8:1f:6d:06:a8:8f:58:
         b4:65:94:ce:3f:82:db:35:40:d9:35:28:fa:83:1a:7f:3f:f6:
         6a:02:11:bd:27:16:3d:58:78:fa:7d:84:96:9e:e2:b5:d7:ad:
         57:ae:9f:0d:47:c9:c4:73:e3:25:d5:4d:ef:0a:17:33:ec:5c:
         55:aa:9d:9d:6d:cd:37:38
-----BEGIN CERTIFICATE-----
MIIFGTCCAwGgAwIBAgIBGjANBgkqhkiG9w0BAQsFADCBkzELMAkGA1UEBhMCVVMx
CzAJBgNVBAgMAkNBMREwDwYDVQQHDAhTdGFuZm9yZDENMAsGA1UECgwEQk1JUjEO
MAwGA1UECwwFQ0VEQVIxHDAaBgNVBAMME21ldGFkYXRhY2VudGVyLm9yZ3gxJzAl
BgkqhkiG9w0BCQEWGG1ldGFkYXRhY2VudGVyQGdtYWlsLmNvbTAeFw0yMzAzMTAw
MDIxNDdaFw0yNTA2MTEwMDIxNDdaMIGOMQswCQYDVQQGEwJVUzELMAkGA1UECAwC
Q0ExDTALBgNVBAoMBEJNSVIxDjAMBgNVBAsMBUNFREFSMSowKAYDVQQDDCFkb2Nz
LWRpc3QuY2VlLm1ldGFkYXRhY2VudGVyLm9yZ3gxJzAlBgkqhkiG9w0BCQEWGG1l
dGFkYXRhY2VudGVyQGdtYWlsLmNvbTCCASIwDQYJKoZIhvcNAQEBBQADggEPADCC
AQoCggEBAJO7K2ttblwsdRfW3Bz5LCH7diuPbuNQsThWn3RsEiZFMpsFi3IA3ks+
O1dvIiBt1Xm47GoxNrjfiOU4rMA7XcQjcHgvomScAxQgI/KiULXS3hHYOtlCmsea
G0AUs33gpL4adUMq1x/KgKISB0Cs4P6x2s1iOjGjzJVXC+AklTpkHTHTuz9wic1f
/+51RJvM1oMlXKo1OR2kXX7qlgTKHN2bwUE4onJE1oqo6ayowFKDgO1We4FCLU2g
0zvaZ8J2I8T7mGYYuNgXA14jALQu2FAYun29ggmWQIV1B/J6WBTxgi7aFd8sR1x8
SEZ0P8vbZFLWmF3Iwx52U9wY1gNe5iUCAwEAAaN7MHkwCQYDVR0TBAIwADAsBglg
hkgBhvhCAQ0EHxYdT3BlblNTTCBHZW5lcmF0ZWQgQ2VydGlmaWNhdGUwHQYDVR0O
BBYEFBpu4tsKs+Atl44+y0VW/+cqa8JeMB8GA1UdIwQYMBaAFChLFHSDG9GJ2UmA
r9ezRWOubjGmMA0GCSqGSIb3DQEBCwUAA4ICAQBsJHLKtR2FyGmOEerPNJlSU3tb
ESWvfNJORE/tuSm8XpD7VmjLRk+1UP3LZ40HPCZ+3dsPc1JnHMUsbS3CTFeg6lh8
bJFPJmFg9vj+ROMI4zZD1Jcb2dKl8uVdEvb+fItzxCPgO4rajrhANhua0iXtFLWY
6c8m6HecaPt9qgEPkixemMD8xrXpPRFqGepSLwCBiq4WDhoX7MiLPhX3804+5GZP
Ckl3ez3KprygerJDT7fqQbY+nH3ShQeAbuARMeuSWANaPXWeqpgoFi19EKFZccyu
B671TPK2euFg9IqRMqwt86U6ZLulCxZhfKPJ716FG/iGZezmj3fVAgIv0xCk2zX7
oOk85mRqVPIROJSUG8S+mEZOtS28lF7AyxdZxt2N7wZglmGPpfTFrrx4vCyXLZBx
AO1snv+kvzDUO506J30/STHJ9V6sLmlL7brjE6z6gGQRubWy2ZFzCzjh1bnUAf2b
1y5gq8U/j9ZClicaDquqQhWdvpMnZRCxPGrKC1wEca6FLzrlADrr77T0WaG2xnDN
WrkHDznN9ktH4MsvM1VVPEw+/qiGNOxLUHbcexEkzr0avsCPOjS4X9gfbQaoj1i0
ZZTOP4LbNUDZNSj6gxp/P/ZqAhG9JxY9WHj6fYSWnuK1161Xrp8NR8nEc+Ml1U3v
Chcz7FxVqp2dbc03OA==
-----END CERTIFICATE-----
