Certificate:
    Data:
        Version: 3 (0x2)
        Serial Number: 26 (0x1a)
        Signature Algorithm: sha256WithRSAEncryption
        Issuer: C=US, ST=CA, L=Stanford, O=BMIR, OU=CEDAR, CN=metadatacenter.orgx/emailAddress=metadatacenter@gmail.com
        Validity
            Not Before: Mar 10 01:29:55 2023 GMT
            Not After : Jun 11 01:29:55 2025 GMT
        Subject: C=US, ST=CA, O=BMIR, OU=CEDAR, CN=docs-dist.cee.metadatacenter.orgx/emailAddress=metadatacenter@gmail.com
        Subject Public Key Info:
            Public Key Algorithm: rsaEncryption
                RSA Public-Key: (2048 bit)
                Modulus:
                    00:c8:57:0c:01:08:13:08:34:ec:19:b2:cf:10:a9:
                    15:cf:0c:66:5f:04:be:d0:0f:72:71:b2:4f:88:be:
                    09:d7:e2:97:0c:eb:06:c9:c8:d6:8a:19:eb:37:84:
                    85:83:98:92:90:b7:97:7b:34:e9:46:7d:05:71:d1:
                    0c:a9:86:b0:c3:73:3f:96:da:78:42:08:a3:76:7d:
                    5b:c8:32:3e:72:d8:77:fb:79:95:80:66:94:e3:68:
                    67:be:60:33:49:aa:e5:7f:31:e1:32:81:72:ce:89:
                    ef:32:0b:69:52:b3:96:7b:5f:bd:c3:42:25:60:c3:
                    f5:a6:78:3a:94:a3:49:af:6a:17:8e:dc:d3:86:9b:
                    3a:d8:b6:ce:e1:80:42:ab:64:28:9f:4e:57:4f:73:
                    ba:0d:b9:ab:b6:ff:d3:f3:c0:59:bc:71:61:21:09:
                    a6:48:b2:7b:29:8c:ff:18:3b:6d:58:79:c3:12:ba:
                    e6:bc:df:d5:b5:0f:9b:a3:92:d8:e2:8b:1a:30:70:
                    d6:18:06:c7:33:53:44:bd:22:da:c2:a9:c7:43:ab:
                    ad:00:eb:b1:3d:2a:e1:0e:8e:e1:11:e7:22:e5:4b:
                    aa:f9:19:ee:c7:a8:30:28:f1:47:96:f8:33:43:32:
                    12:0c:2a:34:d3:f1:9a:c8:1e:6a:c7:f6:50:48:a8:
                    46:7f
                Exponent: 65537 (0x10001)
        X509v3 extensions:
            X509v3 Basic Constraints: 
                CA:FALSE
            X509v3 Key Usage: 
                Digital Signature, Non Repudiation, Key Encipherment
            X509v3 Subject Alternative Name: 
                DNS:docs-dist.cee.metadatacenter.orgx
    Signature Algorithm: sha256WithRSAEncryption
         ab:44:4c:74:d9:d5:f6:1a:a7:bc:73:b4:24:a2:00:4c:7a:f9:
         30:bd:cb:53:b1:b5:c8:05:77:bf:53:7f:3e:f2:5e:ac:8a:d0:
         d0:b2:2d:30:6e:d3:9f:d5:6e:45:60:c9:ea:59:53:02:b5:ec:
         3c:67:ff:b1:9e:b0:e6:d2:be:2d:f2:4f:1f:a7:57:2c:1e:4d:
         52:62:df:0c:cb:ec:a7:2f:ce:43:cb:a9:b6:87:4b:70:ed:be:
         ad:b7:ed:4a:64:e8:b8:62:d5:75:d0:ab:66:58:81:56:ae:15:
         8f:80:d6:ee:36:01:f1:f0:54:4b:56:c4:f2:bf:e1:5f:f2:c8:
         24:38:e1:45:4e:75:ba:c4:14:07:65:b6:bd:fc:4e:b7:8b:12:
         2e:7a:6c:16:31:92:59:60:19:4d:1a:83:98:23:1a:1c:d3:34:
         90:74:24:b8:b0:11:7b:c3:51:bc:9a:2c:54:e9:43:e1:04:21:
         52:a9:b0:7c:91:25:44:70:bd:73:f0:2d:4d:cb:b7:09:4c:ff:
         d5:c4:8f:96:a6:33:18:05:67:a2:87:2c:fe:6c:54:09:87:95:
         1b:11:a0:0a:89:b4:da:a9:18:dc:93:14:5d:73:3e:43:4e:54:
         9e:df:28:c6:c8:2f:69:36:e6:2c:8d:b8:8c:15:a0:bf:5b:15:
         d9:67:32:aa:b6:c9:5a:a7:fa:ac:c1:ab:8d:8c:9e:f6:6d:18:
         16:87:e9:59:b5:89:41:8a:12:52:07:ce:40:fd:10:53:9c:7a:
         f6:77:a7:29:9b:dc:77:01:5d:39:9e:13:c4:18:61:60:aa:11:
         7f:29:c2:90:7e:40:30:1c:ba:65:ef:09:03:43:8c:27:c1:15:
         3a:1b:05:74:f2:6e:f9:b9:96:65:ca:22:d5:20:aa:6c:8b:cc:
         c2:80:85:77:27:79:44:0c:a2:01:de:86:d6:c1:52:20:58:26:
         70:82:80:03:8f:f2:3c:8c:89:50:7a:a3:fa:ac:e4:fc:5f:00:
         44:b3:c4:32:43:75:3d:d4:a1:be:d9:1c:f7:6d:b4:ce:04:a0:
         98:65:9d:bf:2b:40:83:4c:b5:46:35:f8:a9:f8:a7:0b:e5:4b:
         77:ed:22:91:55:34:99:d9:40:95:b2:ad:8c:8f:e3:bb:eb:09:
         a2:fb:c2:9c:89:cd:8c:d8:0a:08:96:07:f5:47:27:f5:39:ad:
         6c:04:b6:a7:3d:81:36:66:74:ec:78:b0:c8:0f:31:96:df:dd:
         b8:af:3b:d5:5a:5c:95:d6:6f:72:be:37:78:d5:c3:ba:18:3f:
         d0:52:75:60:93:60:39:bd:9d:f0:fe:80:fb:37:59:e2:8e:ef:
         91:ae:eb:57:75:e5:30:32
-----BEGIN CERTIFICATE-----
MIIE5jCCAs6gAwIBAgIBGjANBgkqhkiG9w0BAQsFADCBkzELMAkGA1UEBhMCVVMx
CzAJBgNVBAgMAkNBMREwDwYDVQQHDAhTdGFuZm9yZDENMAsGA1UECgwEQk1JUjEO
MAwGA1UECwwFQ0VEQVIxHDAaBgNVBAMME21ldGFkYXRhY2VudGVyLm9yZ3gxJzAl
BgkqhkiG9w0BCQEWGG1ldGFkYXRhY2VudGVyQGdtYWlsLmNvbTAeFw0yMzAzMTAw
MTI5NTVaFw0yNTA2MTEwMTI5NTVaMIGOMQswCQYDVQQGEwJVUzELMAkGA1UECAwC
Q0ExDTALBgNVBAoMBEJNSVIxDjAMBgNVBAsMBUNFREFSMSowKAYDVQQDDCFkb2Nz
LWRpc3QuY2VlLm1ldGFkYXRhY2VudGVyLm9yZ3gxJzAlBgkqhkiG9w0BCQEWGG1l
dGFkYXRhY2VudGVyQGdtYWlsLmNvbTCCASIwDQYJKoZIhvcNAQEBBQADggEPADCC
AQoCggEBAMhXDAEIEwg07BmyzxCpFc8MZl8EvtAPcnGyT4i+CdfilwzrBsnI1ooZ
6zeEhYOYkpC3l3s06UZ9BXHRDKmGsMNzP5baeEIIo3Z9W8gyPnLYd/t5lYBmlONo
Z75gM0mq5X8x4TKBcs6J7zILaVKzlntfvcNCJWDD9aZ4OpSjSa9qF47c04abOti2
zuGAQqtkKJ9OV09zug25q7b/0/PAWbxxYSEJpkiyeymM/xg7bVh5wxK65rzf1bUP
m6OS2OKLGjBw1hgGxzNTRL0i2sKpx0OrrQDrsT0q4Q6O4RHnIuVLqvkZ7seoMCjx
R5b4M0MyEgwqNNPxmsgeasf2UEioRn8CAwEAAaNIMEYwCQYDVR0TBAIwADALBgNV
HQ8EBAMCBeAwLAYDVR0RBCUwI4IhZG9jcy1kaXN0LmNlZS5tZXRhZGF0YWNlbnRl
ci5vcmd4MA0GCSqGSIb3DQEBCwUAA4ICAQCrREx02dX2Gqe8c7QkogBMevkwvctT
sbXIBXe/U38+8l6sitDQsi0wbtOf1W5FYMnqWVMCtew8Z/+xnrDm0r4t8k8fp1cs
Hk1SYt8My+ynL85Dy6m2h0tw7b6tt+1KZOi4YtV10KtmWIFWrhWPgNbuNgHx8FRL
VsTyv+Ff8sgkOOFFTnW6xBQHZba9/E63ixIuemwWMZJZYBlNGoOYIxoc0zSQdCS4
sBF7w1G8mixU6UPhBCFSqbB8kSVEcL1z8C1Ny7cJTP/VxI+WpjMYBWeihyz+bFQJ
h5UbEaAKibTaqRjckxRdcz5DTlSe3yjGyC9pNuYsjbiMFaC/WxXZZzKqtslap/qs
wauNjJ72bRgWh+lZtYlBihJSB85A/RBTnHr2d6cpm9x3AV05nhPEGGFgqhF/KcKQ
fkAwHLpl7wkDQ4wnwRU6GwV08m75uZZlyiLVIKpsi8zCgIV3J3lEDKIB3obWwVIg
WCZwgoADj/I8jIlQeqP6rOT8XwBEs8QyQ3U91KG+2Rz3bbTOBKCYZZ2/K0CDTLVG
Nfip+KcL5Ut37SKRVTSZ2UCVsq2Mj+O76wmi+8Kcic2M2AoIlgf1Ryf1Oa1sBLan
PYE2ZnTseLDIDzGW3924rzvVWlyV1m9yvjd41cO6GD/QUnVgk2A5vZ3w/oD7N1ni
ju+RrutXdeUwMg==
-----END CERTIFICATE-----
