Certificate:
    Data:
        Version: 3 (0x2)
        Serial Number: 11 (0xb)
        Signature Algorithm: sha256WithRSAEncryption
        Issuer: C=US, ST=CA, L=Stanford, O=BMIR, OU=CEDAR, CN=metadatacenter.orgx/emailAddress=metadatacenter@gmail.com
        Validity
            Not Before: Jan 18 00:50:45 2024 GMT
            Not After : Apr 21 00:50:45 2026 GMT
        Subject: C=US, ST=CA, O=BMIR, OU=CEDAR, CN=schema.metadatacenter.orgx/emailAddress=metadatacenter@gmail.com
        Subject Public Key Info:
            Public Key Algorithm: rsaEncryption
                RSA Public-Key: (2048 bit)
                Modulus:
                    00:d4:52:42:8a:bf:f0:12:10:f5:e5:66:13:b1:ab:
                    88:4f:73:5e:de:9f:eb:f0:11:27:f2:05:10:c4:97:
                    c8:47:22:3e:07:85:15:7e:78:72:c7:49:0e:3b:dc:
                    15:6c:bf:3c:bc:6e:83:02:c1:7f:78:df:19:4a:7c:
                    36:73:1b:0d:b3:82:26:85:74:2a:c3:0c:82:5b:0a:
                    0d:d1:74:5f:a5:b4:40:5f:b8:5c:3c:a1:00:92:f1:
                    bd:5d:89:66:91:c8:85:0b:31:9d:c5:fc:a5:0a:b2:
                    39:14:26:85:fe:d4:0b:ef:89:00:7f:e6:ec:c3:1b:
                    d4:5f:2c:fc:75:42:54:53:5d:f2:28:6e:ec:72:75:
                    ab:c8:7c:73:43:9c:07:c1:90:97:b8:61:cf:e4:4f:
                    4a:49:74:56:22:0e:2c:f0:44:46:2c:e0:52:72:3c:
                    40:99:d1:1d:89:a2:01:4d:32:bc:7e:67:e7:5d:99:
                    5a:fd:f4:fc:01:7d:e3:cf:d2:fb:99:1f:56:8b:c5:
                    63:44:d2:ed:ce:21:61:53:98:d8:89:3c:e0:13:ac:
                    0d:53:4b:24:7c:04:b7:00:6e:1d:98:7a:75:d4:9e:
                    00:e8:6c:13:a3:ad:3c:a2:98:03:14:d7:0e:ab:ee:
                    d5:d3:f2:04:47:af:57:b3:4f:b5:e2:9c:46:45:5d:
                    0b:63
                Exponent: 65537 (0x10001)
        X509v3 extensions:
            X509v3 Basic Constraints: 
                CA:FALSE
            X509v3 Key Usage: 
                Digital Signature, Non Repudiation, Key Encipherment
            X509v3 Subject Alternative Name: 
                DNS:schema.metadatacenter.orgx
    Signature Algorithm: sha256WithRSAEncryption
         9a:84:88:5c:ab:de:0f:73:dc:be:65:bc:5f:1d:9c:23:63:c4:
         c0:78:36:50:a3:5b:15:a8:de:e4:f0:2c:0d:7a:b4:f8:47:59:
         8a:17:52:55:a4:85:73:ac:7e:87:bf:e8:b4:13:52:a5:e6:65:
         67:fa:1e:9a:40:0e:07:2a:a2:1a:ee:c7:24:02:15:48:72:55:
         5b:79:55:e0:49:46:b3:d3:c6:b1:f9:60:48:83:ce:6e:eb:a3:
         08:15:e3:78:3c:88:cf:44:c1:1a:e2:83:2b:71:28:eb:d7:22:
         1f:4e:42:6a:e2:85:53:4c:64:b2:fd:b9:fc:db:84:96:6f:c4:
         4e:e8:11:23:e9:61:b2:66:36:e7:7b:cf:eb:be:c8:9a:92:16:
         2e:b4:d4:2b:07:9b:2a:53:02:be:6f:30:27:72:01:a3:f5:3c:
         67:91:eb:b2:5d:91:f2:64:41:7a:37:4e:46:9a:65:a3:51:28:
         c8:22:2e:8c:f5:62:2a:9c:c6:9b:75:a3:16:0e:f4:b8:6d:13:
         06:2f:5f:f2:26:f6:9d:11:2c:46:91:c1:c5:9e:46:68:e1:bc:
         86:93:e2:14:34:15:f4:75:7c:8a:0b:51:0e:8f:88:b8:89:bf:
         e4:9a:77:ec:01:05:ff:3b:4e:3a:6f:a3:c4:62:04:9e:b5:e5:
         b5:30:a5:1a:01:dc:6a:2f:e9:5d:c9:57:66:82:99:ff:5f:bf:
         5d:c2:04:07:83:5a:25:2f:a7:14:82:55:14:a1:fd:19:1d:40:
         30:74:ca:88:60:bd:02:c4:43:0c:52:12:9a:ae:d1:ba:f4:2f:
         50:3b:63:e0:7d:d5:b2:5d:e4:9a:29:a7:5b:c1:fd:64:d6:f7:
         c2:58:2d:39:ec:d0:4c:79:2f:bd:e8:57:28:84:40:98:b9:11:
         28:86:f3:e4:ce:62:02:c6:77:a2:9c:ab:59:0a:4a:ee:e9:94:
         f8:9d:c5:ac:2e:ba:0f:61:ee:4c:ce:34:84:f7:42:46:c3:a3:
         b1:b8:c5:05:6f:f2:f0:66:55:f5:fd:a9:52:d4:ca:08:fc:56:
         09:eb:dc:c1:6f:20:30:82:5a:a7:6a:d3:36:c5:13:f6:20:91:
         d7:31:4b:97:01:5d:3f:72:47:52:b1:50:e6:f0:ae:c3:1b:6a:
         6c:5b:20:13:78:c3:c8:92:0d:7e:07:dd:30:00:e9:84:0a:f2:
         68:44:a4:a2:d8:62:b3:30:2d:f6:1b:c5:35:7f:a3:a9:c4:6d:
         64:07:db:6c:8f:a8:b5:c1:36:30:9e:53:8f:21:57:d9:28:25:
         f7:12:6d:21:5a:78:fa:45:db:bc:94:b8:50:47:aa:16:bb:98:
         df:e1:30:83:a6:63:18:5e
-----BEGIN CERTIFICATE-----
MIIE2DCCAsCgAwIBAgIBCzANBgkqhkiG9w0BAQsFADCBkzELMAkGA1UEBhMCVVMx
CzAJBgNVBAgMAkNBMREwDwYDVQQHDAhTdGFuZm9yZDENMAsGA1UECgwEQk1JUjEO
MAwGA1UECwwFQ0VEQVIxHDAaBgNVBAMME21ldGFkYXRhY2VudGVyLm9yZ3gxJzAl
BgkqhkiG9w0BCQEWGG1ldGFkYXRhY2VudGVyQGdtYWlsLmNvbTAeFw0yNDAxMTgw
MDUwNDVaFw0yNjA0MjEwMDUwNDVaMIGHMQswCQYDVQQGEwJVUzELMAkGA1UECAwC
Q0ExDTALBgNVBAoMBEJNSVIxDjAMBgNVBAsMBUNFREFSMSMwIQYDVQQDDBpzY2hl
bWEubWV0YWRhdGFjZW50ZXIub3JneDEnMCUGCSqGSIb3DQEJARYYbWV0YWRhdGFj
ZW50ZXJAZ21haWwuY29tMIIBIjANBgkqhkiG9w0BAQEFAAOCAQ8AMIIBCgKCAQEA
1FJCir/wEhD15WYTsauIT3Ne3p/r8BEn8gUQxJfIRyI+B4UVfnhyx0kOO9wVbL88
vG6DAsF/eN8ZSnw2cxsNs4ImhXQqwwyCWwoN0XRfpbRAX7hcPKEAkvG9XYlmkciF
CzGdxfylCrI5FCaF/tQL74kAf+bswxvUXyz8dUJUU13yKG7scnWryHxzQ5wHwZCX
uGHP5E9KSXRWIg4s8ERGLOBScjxAmdEdiaIBTTK8fmfnXZla/fT8AX3jz9L7mR9W
i8VjRNLtziFhU5jYiTzgE6wNU0skfAS3AG4dmHp11J4A6GwTo608opgDFNcOq+7V
0/IER69Xs0+14pxGRV0LYwIDAQABo0EwPzAJBgNVHRMEAjAAMAsGA1UdDwQEAwIF
4DAlBgNVHREEHjAcghpzY2hlbWEubWV0YWRhdGFjZW50ZXIub3JneDANBgkqhkiG
9w0BAQsFAAOCAgEAmoSIXKveD3PcvmW8Xx2cI2PEwHg2UKNbFaje5PAsDXq0+EdZ
ihdSVaSFc6x+h7/otBNSpeZlZ/oemkAOByqiGu7HJAIVSHJVW3lV4ElGs9PGsflg
SIPObuujCBXjeDyIz0TBGuKDK3Eo69ciH05CauKFU0xksv25/NuElm/ETugRI+lh
smY253vP677ImpIWLrTUKwebKlMCvm8wJ3IBo/U8Z5Hrsl2R8mRBejdORpplo1Eo
yCIujPViKpzGm3WjFg70uG0TBi9f8ib2nREsRpHBxZ5GaOG8hpPiFDQV9HV8igtR
Do+IuIm/5Jp37AEF/ztOOm+jxGIEnrXltTClGgHcai/pXclXZoKZ/1+/XcIEB4Na
JS+nFIJVFKH9GR1AMHTKiGC9AsRDDFISmq7RuvQvUDtj4H3Vsl3kmimnW8H9ZNb3
wlgtOezQTHkvvehXKIRAmLkRKIbz5M5iAsZ3opyrWQpK7umU+J3FrC66D2HuTM40
hPdCRsOjsbjFBW/y8GZV9f2pUtTKCPxWCevcwW8gMIJap2rTNsUT9iCR1zFLlwFd
P3JHUrFQ5vCuwxtqbFsgE3jDyJINfgfdMADphAryaESkothiszAt9hvFNX+jqcRt
ZAfbbI+otcE2MJ5TjyFX2Sgl9xJtIVp4+kXbvJS4UEeqFruY3+Ewg6ZjGF4=
-----END CERTIFICATE-----
