Certificate:
    Data:
        Version: 3 (0x2)
        Serial Number: 15 (0xf)
        Signature Algorithm: sha256WithRSAEncryption
        Issuer: C=US, ST=CA, L=Stanford, O=BMIR, OU=CEDAR, CN=metadatacenter.orgx/emailAddress=metadatacenter@gmail.com
        Validity
            Not Before: Jan 18 00:50:45 2024 GMT
            Not After : Apr 21 00:50:45 2026 GMT
        Subject: C=US, ST=CA, O=BMIR, OU=CEDAR, CN=valuerecommender.metadatacenter.orgx/emailAddress=metadatacenter@gmail.com
        Subject Public Key Info:
            Public Key Algorithm: rsaEncryption
                RSA Public-Key: (2048 bit)
                Modulus:
                    00:a1:c4:53:ea:32:ac:16:3c:7e:d7:09:d5:43:16:
                    75:06:0f:9f:4f:d6:98:4f:43:24:24:d7:02:cb:08:
                    f0:79:a0:e8:58:c4:1c:79:a6:0f:95:96:cc:80:e5:
                    93:c0:da:bf:ed:69:71:f7:aa:b9:7e:0f:f4:72:33:
                    c9:15:7a:36:7c:7b:3a:a0:3f:e3:f0:db:cf:21:69:
                    4e:87:0b:00:96:71:35:50:47:4a:08:e1:05:23:29:
                    b6:cb:8d:59:10:00:4c:19:20:67:24:6f:bd:21:b5:
                    17:28:fb:1d:4f:30:fc:d8:28:c6:a4:2f:9f:d5:05:
                    ba:db:1e:7e:cc:b8:8d:3d:d9:f0:2b:74:2b:2d:b7:
                    57:d2:dc:24:dd:89:db:e2:4c:0c:17:26:c9:68:6d:
                    e7:8e:2b:e5:39:8b:2b:41:32:a3:c1:be:ca:6d:03:
                    cd:2f:64:df:74:29:c9:58:4d:96:75:8b:e1:1a:bd:
                    18:64:9e:3c:60:85:35:6e:61:49:27:e5:63:77:f2:
                    44:e7:77:8c:49:29:2e:c5:9d:cf:46:85:d3:1b:49:
                    a3:53:0d:16:8f:f1:04:7e:85:b6:62:63:0e:a7:69:
                    00:64:b7:68:2f:d5:02:c1:43:b9:fd:b1:1e:02:54:
                    bf:d5:5f:c2:85:9e:be:9f:77:78:0b:d7:d1:06:93:
                    cd:a7
                Exponent: 65537 (0x10001)
        X509v3 extensions:
            X509v3 Basic Constraints: 
                CA:FALSE
            X509v3 Key Usage: 
                Digital Signature, Non Repudiation, Key Encipherment
            X509v3 Subject Alternative Name: 
                DNS:valuerecommender.metadatacenter.orgx
    Signature Algorithm: sha256WithRSAEncryption
         82:95:59:16:69:2c:c6:0f:08:49:06:b7:9d:5f:87:a2:ae:d0:
         94:54:37:3d:84:a2:52:fc:97:f7:28:0d:5f:8d:63:49:e0:a2:
         0f:18:31:3e:9e:9c:28:27:de:41:55:bc:c3:f1:1c:d0:a4:be:
         92:19:97:fc:a0:88:e6:f0:41:6c:c6:27:e1:23:30:55:30:a5:
         14:7f:4d:30:2b:5d:4a:2e:65:7a:73:3b:1c:ee:bc:b5:4f:6c:
         db:31:53:7e:57:f1:b6:98:d4:be:b5:96:1e:00:5b:99:7a:af:
         46:bc:73:59:f0:fe:14:43:37:2c:e2:81:be:d6:38:62:84:3f:
         a2:5c:e6:21:7e:2e:8d:60:32:bd:05:e2:cd:ce:a0:e5:16:6f:
         d6:f4:0d:88:e7:f5:e3:9b:a1:09:f5:a5:dc:b1:5a:97:8b:f0:
         ed:29:d3:0d:af:30:bb:34:13:83:04:3d:9f:8f:9a:69:4d:54:
         e9:a1:eb:1d:bd:0b:3c:26:0f:37:21:67:6b:e7:62:72:13:ce:
         71:15:8d:3f:21:55:c8:88:47:04:53:31:88:a3:c5:49:ac:7d:
         da:b2:6e:18:3c:10:d7:e4:17:2b:e5:71:1a:5a:e4:ca:07:ab:
         fd:b9:8a:97:78:2c:71:eb:98:37:10:66:86:69:54:82:72:16:
         80:1c:30:65:fc:90:10:e7:56:1d:38:d5:10:e8:b2:2e:e0:91:
         ff:0e:db:90:98:f5:44:2f:7a:96:b6:4b:35:1a:ad:c1:15:72:
         13:8e:1a:4f:25:9e:86:18:79:e1:32:5d:a9:f3:c5:54:36:98:
         a6:19:8d:13:32:e6:c9:16:ee:a1:24:26:8f:a8:3d:47:f9:ed:
         65:2a:c3:d3:bf:f1:0d:13:87:dd:16:b3:bd:47:4b:7a:d5:1c:
         ca:26:75:75:97:34:98:65:2d:5c:84:69:83:fe:94:37:66:12:
         16:a4:54:83:3b:e6:e4:3f:8f:51:d3:85:0c:3d:c3:67:8c:06:
         b4:99:ce:5a:29:5c:1a:8d:38:7b:74:1e:95:de:10:f0:7e:da:
         69:1b:e2:10:0f:1b:58:43:32:18:11:51:6c:21:68:da:80:e4:
         88:9e:77:51:0c:c3:6d:59:49:34:a6:5c:b1:d8:22:8b:4a:aa:
         b8:89:ca:f4:cd:82:18:7e:a9:28:db:9a:6e:df:ce:2e:e6:35:
         2d:ab:9e:48:54:79:53:1f:19:c5:73:b7:d0:57:d1:14:b6:8d:
         a5:48:c1:50:cf:15:f5:1a:8a:38:4d:22:5b:49:0f:6d:aa:95:
         cc:39:a8:34:02:b7:94:dd:9a:b1:9f:ac:47:ff:52:f0:5c:52:
         11:0e:4f:41:7e:3c:b2:d0
-----BEGIN CERTIFICATE-----
MIIE7DCCAtSgAwIBAgIBDzANBgkqhkiG9w0BAQsFADCBkzELMAkGA1UEBhMCVVMx
CzAJBgNVBAgMAkNBMREwDwYDVQQHDAhTdGFuZm9yZDENMAsGA1UECgwEQk1JUjEO
MAwGA1UECwwFQ0VEQVIxHDAaBgNVBAMME21ldGFkYXRhY2VudGVyLm9yZ3gxJzAl
BgkqhkiG9w0BCQEWGG1ldGFkYXRhY2VudGVyQGdtYWlsLmNvbTAeFw0yNDAxMTgw
MDUwNDVaFw0yNjA0MjEwMDUwNDVaMIGRMQswCQYDVQQGEwJVUzELMAkGA1UECAwC
Q0ExDTALBgNVBAoMBEJNSVIxDjAMBgNVBAsMBUNFREFSMS0wKwYDVQQDDCR2YWx1
ZXJlY29tbWVuZGVyLm1ldGFkYXRhY2VudGVyLm9yZ3gxJzAlBgkqhkiG9w0BCQEW
GG1ldGFkYXRhY2VudGVyQGdtYWlsLmNvbTCCASIwDQYJKoZIhvcNAQEBBQADggEP
ADCCAQoCggEBAKHEU+oyrBY8ftcJ1UMWdQYPn0/WmE9DJCTXAssI8Hmg6FjEHHmm
D5WWzIDlk8Dav+1pcfequX4P9HIzyRV6Nnx7OqA/4/DbzyFpTocLAJZxNVBHSgjh
BSMptsuNWRAATBkgZyRvvSG1Fyj7HU8w/NgoxqQvn9UFutsefsy4jT3Z8Ct0Ky23
V9LcJN2J2+JMDBcmyWht544r5TmLK0Eyo8G+ym0DzS9k33QpyVhNlnWL4Rq9GGSe
PGCFNW5hSSflY3fyROd3jEkpLsWdz0aF0xtJo1MNFo/xBH6FtmJjDqdpAGS3aC/V
AsFDuf2xHgJUv9VfwoWevp93eAvX0QaTzacCAwEAAaNLMEkwCQYDVR0TBAIwADAL
BgNVHQ8EBAMCBeAwLwYDVR0RBCgwJoIkdmFsdWVyZWNvbW1lbmRlci5tZXRhZGF0
YWNlbnRlci5vcmd4MA0GCSqGSIb3DQEBCwUAA4ICAQCClVkWaSzGDwhJBredX4ei
rtCUVDc9hKJS/Jf3KA1fjWNJ4KIPGDE+npwoJ95BVbzD8RzQpL6SGZf8oIjm8EFs
xifhIzBVMKUUf00wK11KLmV6czsc7ry1T2zbMVN+V/G2mNS+tZYeAFuZeq9GvHNZ
8P4UQzcs4oG+1jhihD+iXOYhfi6NYDK9BeLNzqDlFm/W9A2I5/Xjm6EJ9aXcsVqX
i/DtKdMNrzC7NBODBD2fj5ppTVTpoesdvQs8Jg83IWdr52JyE85xFY0/IVXIiEcE
UzGIo8VJrH3asm4YPBDX5Bcr5XEaWuTKB6v9uYqXeCxx65g3EGaGaVSCchaAHDBl
/JAQ51YdONUQ6LIu4JH/DtuQmPVEL3qWtks1Gq3BFXITjhpPJZ6GGHnhMl2p88VU
NpimGY0TMubJFu6hJCaPqD1H+e1lKsPTv/ENE4fdFrO9R0t61RzKJnV1lzSYZS1c
hGmD/pQ3ZhIWpFSDO+bkP49R04UMPcNnjAa0mc5aKVwajTh7dB6V3hDwftppG+IQ
DxtYQzIYEVFsIWjagOSInndRDMNtWUk0plyx2CKLSqq4icr0zYIYfqko25pu384u
5jUtq55IVHlTHxnFc7fQV9EUto2lSMFQzxX1Goo4TSJbSQ9tqpXMOag0AreU3Zqx
n6xH/1LwXFIRDk9Bfjyy0A==
-----END CERTIFICATE-----
