Certificate:
    Data:
        Version: 3 (0x2)
        Serial Number: 18 (0x12)
        Signature Algorithm: sha256WithRSAEncryption
        Issuer: C=US, ST=CA, L=Stanford, O=BMIR, OU=CEDAR, CN=metadatacenter.orgx/emailAddress=metadatacenter@gmail.com
        Validity
            Not Before: Jan 18 19:34:09 2023 GMT
            Not After : Apr 21 19:34:09 2025 GMT
        Subject: C=US, ST=CA, O=BMIR, OU=CEDAR, CN=valuerecommender.metadatacenter.orgx/emailAddress=metadatacenter@gmail.com
        Subject Public Key Info:
            Public Key Algorithm: rsaEncryption
                RSA Public-Key: (2048 bit)
                Modulus:
                    00:a8:fd:1b:42:98:c8:a3:03:8e:bc:f0:ad:b0:4d:
                    6b:25:ef:96:4f:64:6b:8c:33:19:0c:2e:d1:e5:e4:
                    01:43:11:9a:1e:db:48:01:70:be:b5:59:a9:7d:a9:
                    f7:82:36:62:22:8d:4c:d8:54:be:bd:68:bb:f0:c5:
                    e5:ac:2a:92:d4:23:fb:08:ad:fc:2f:cd:b2:1a:0b:
                    df:a0:2a:38:6c:06:e6:3a:9e:6d:a3:8a:b8:2d:25:
                    0d:65:7d:da:bc:96:b6:98:d7:ca:9c:07:a3:e3:92:
                    72:92:75:af:d9:41:96:1c:ac:65:d0:3a:44:5e:0d:
                    be:68:f0:32:95:35:ca:4a:80:5b:00:ec:d6:5e:a1:
                    e2:74:ee:fd:95:ac:3c:26:92:cd:ef:6c:8b:6f:b9:
                    76:b5:b0:0c:6a:6a:9f:2b:6e:88:e5:5f:9f:20:a5:
                    a5:c7:5f:b8:36:7e:be:f2:5e:7b:a0:ea:3c:11:11:
                    dd:ce:ff:43:5c:6e:14:ef:8e:8c:71:47:85:0e:65:
                    1e:51:ec:be:39:95:d9:67:6a:14:47:d6:05:af:cf:
                    9e:68:80:7d:02:58:70:ec:40:36:03:ce:66:7a:2f:
                    7e:00:02:66:28:b5:15:97:46:41:56:fb:4e:b7:3c:
                    06:09:44:b2:4f:2a:20:f3:62:3c:e2:ca:2c:bb:70:
                    6e:b5
                Exponent: 65537 (0x10001)
        X509v3 extensions:
            X509v3 Basic Constraints: 
                CA:FALSE
            X509v3 Key Usage: 
                Digital Signature, Non Repudiation, Key Encipherment
            X509v3 Subject Alternative Name: 
                DNS:valuerecommender.metadatacenter.orgx
    Signature Algorithm: sha256WithRSAEncryption
         41:2c:3b:e8:f2:d7:c1:3f:fc:8a:37:ea:dc:11:f0:3c:90:f0:
         ea:8a:53:ce:11:a4:67:ad:8f:45:a9:29:bd:e7:27:4d:94:06:
         4b:df:f1:75:49:b4:9a:c5:6e:2a:fd:bc:ec:da:ea:f7:59:57:
         a7:90:d8:c3:3e:8a:72:5a:49:82:26:cc:48:fd:c9:d2:00:4b:
         f9:cd:d6:d5:c1:3b:c8:94:ba:03:65:b5:74:a3:2d:54:b8:be:
         90:13:c1:2f:e3:a0:b3:cc:26:b7:05:e3:dd:85:78:d4:92:01:
         68:bc:62:1e:37:c3:a8:63:6a:c0:fb:3c:9c:6c:b2:21:9e:a8:
         d1:ff:14:13:62:60:2f:56:04:40:63:10:28:c8:0c:4d:02:01:
         8d:f6:43:81:fa:f1:04:8c:67:9e:c9:14:70:dc:ae:da:9f:48:
         0a:4c:78:c5:a6:d6:e6:6d:f8:6b:a1:c9:6a:df:8f:9b:2d:be:
         a0:65:bc:49:c0:81:25:e1:85:7c:fa:d9:43:f7:81:37:f7:dc:
         dc:e7:bc:49:71:52:78:75:9e:db:ad:67:db:37:23:5a:be:12:
         1c:aa:2f:a0:f7:8f:2f:30:0a:01:27:48:33:a8:51:94:36:35:
         32:2d:83:3b:6b:c2:ad:2d:c2:e6:bf:ad:c2:99:95:84:79:93:
         07:e9:ac:c7:39:26:74:06:cf:f5:9a:8e:08:1e:aa:8d:d1:33:
         1d:e0:c4:13:48:46:6b:8d:3e:01:81:9b:5f:38:96:58:6d:2e:
         e4:d8:c1:e9:8f:d3:e8:a3:24:5e:e2:f2:8b:84:2d:9e:6a:18:
         91:60:0e:5a:af:e4:96:f6:ab:37:7c:c1:cb:71:34:9d:2c:5b:
         15:e3:02:bf:29:95:ba:97:f4:b4:20:6b:2c:9a:9f:32:bf:2e:
         3b:f4:fc:b1:29:1c:af:ec:54:ce:91:3e:af:b4:73:d3:b4:70:
         7f:e0:a3:20:8d:fd:aa:71:1a:95:37:a3:90:b7:90:7c:0f:8c:
         42:69:db:ec:6e:44:96:c7:40:18:49:f6:c8:92:c4:89:1b:61:
         23:d2:d0:11:34:59:6f:75:e6:2d:f1:08:2b:d1:fe:91:9c:5e:
         d7:63:8f:c8:91:14:4a:d9:17:f2:a4:2d:a7:ac:32:29:ab:d9:
         ef:e2:83:8d:cf:35:de:5e:19:fd:d1:e3:16:bc:ac:80:44:08:
         42:3e:84:4f:8c:e3:61:2d:1c:5d:0b:0e:f4:3a:d1:50:a7:3a:
         80:e7:be:42:3d:1a:67:3a:9a:31:66:32:72:5d:6a:4f:9d:be:
         a7:e4:19:2f:03:ee:34:f8:90:bc:63:98:9c:2d:4c:93:1c:99:
         a2:34:92:ae:5f:36:b9:ea
-----BEGIN CERTIFICATE-----
MIIE7DCCAtSgAwIBAgIBEjANBgkqhkiG9w0BAQsFADCBkzELMAkGA1UEBhMCVVMx
CzAJBgNVBAgMAkNBMREwDwYDVQQHDAhTdGFuZm9yZDENMAsGA1UECgwEQk1JUjEO
MAwGA1UECwwFQ0VEQVIxHDAaBgNVBAMME21ldGFkYXRhY2VudGVyLm9yZ3gxJzAl
BgkqhkiG9w0BCQEWGG1ldGFkYXRhY2VudGVyQGdtYWlsLmNvbTAeFw0yMzAxMTgx
OTM0MDlaFw0yNTA0MjExOTM0MDlaMIGRMQswCQYDVQQGEwJVUzELMAkGA1UECAwC
Q0ExDTALBgNVBAoMBEJNSVIxDjAMBgNVBAsMBUNFREFSMS0wKwYDVQQDDCR2YWx1
ZXJlY29tbWVuZGVyLm1ldGFkYXRhY2VudGVyLm9yZ3gxJzAlBgkqhkiG9w0BCQEW
GG1ldGFkYXRhY2VudGVyQGdtYWlsLmNvbTCCASIwDQYJKoZIhvcNAQEBBQADggEP
ADCCAQoCggEBAKj9G0KYyKMDjrzwrbBNayXvlk9ka4wzGQwu0eXkAUMRmh7bSAFw
vrVZqX2p94I2YiKNTNhUvr1ou/DF5awqktQj+wit/C/NshoL36AqOGwG5jqebaOK
uC0lDWV92ryWtpjXypwHo+OScpJ1r9lBlhysZdA6RF4NvmjwMpU1ykqAWwDs1l6h
4nTu/ZWsPCaSze9si2+5drWwDGpqnytuiOVfnyClpcdfuDZ+vvJee6DqPBER3c7/
Q1xuFO+OjHFHhQ5lHlHsvjmV2WdqFEfWBa/PnmiAfQJYcOxANgPOZnovfgACZii1
FZdGQVb7Trc8BglEsk8qIPNiPOLKLLtwbrUCAwEAAaNLMEkwCQYDVR0TBAIwADAL
BgNVHQ8EBAMCBeAwLwYDVR0RBCgwJoIkdmFsdWVyZWNvbW1lbmRlci5tZXRhZGF0
YWNlbnRlci5vcmd4MA0GCSqGSIb3DQEBCwUAA4ICAQBBLDvo8tfBP/yKN+rcEfA8
kPDqilPOEaRnrY9FqSm95ydNlAZL3/F1SbSaxW4q/bzs2ur3WVenkNjDPopyWkmC
JsxI/cnSAEv5zdbVwTvIlLoDZbV0oy1UuL6QE8Ev46CzzCa3BePdhXjUkgFovGIe
N8OoY2rA+zycbLIhnqjR/xQTYmAvVgRAYxAoyAxNAgGN9kOB+vEEjGeeyRRw3K7a
n0gKTHjFptbmbfhroclq34+bLb6gZbxJwIEl4YV8+tlD94E399zc57xJcVJ4dZ7b
rWfbNyNavhIcqi+g948vMAoBJ0gzqFGUNjUyLYM7a8KtLcLmv63CmZWEeZMH6azH
OSZ0Bs/1mo4IHqqN0TMd4MQTSEZrjT4BgZtfOJZYbS7k2MHpj9PooyRe4vKLhC2e
ahiRYA5ar+SW9qs3fMHLcTSdLFsV4wK/KZW6l/S0IGssmp8yvy479PyxKRyv7FTO
kT6vtHPTtHB/4KMgjf2qcRqVN6OQt5B8D4xCadvsbkSWx0AYSfbIksSJG2Ej0tAR
NFlvdeYt8Qgr0f6RnF7XY4/IkRRK2RfypC2nrDIpq9nv4oONzzXeXhn90eMWvKyA
RAhCPoRPjONhLRxdCw70OtFQpzqA575CPRpnOpoxZjJyXWpPnb6n5BkvA+40+JC8
Y5icLUyTHJmiNJKuXza56g==
-----END CERTIFICATE-----
