Certificate:
    Data:
        Version: 3 (0x2)
        Serial Number: 24 (0x18)
        Signature Algorithm: sha256WithRSAEncryption
        Issuer: C=US, ST=CA, L=Stanford, O=BMIR, OU=CEDAR, CN=metadatacenter.orgx/emailAddress=metadatacenter@gmail.com
        Validity
            Not Before: Jan 17 21:50:45 2024 GMT
            Not After : Apr 20 21:50:45 2026 GMT
        Subject: C=US, ST=CA, O=BMIR, OU=CEDAR, CN=docs.cee.metadatacenter.orgx/emailAddress=metadatacenter@gmail.com
        Subject Public Key Info:
            Public Key Algorithm: rsaEncryption
                RSA Public-Key: (2048 bit)
                Modulus:
                    00:bf:fe:b5:88:03:c8:83:c7:a4:93:19:5d:37:0c:
                    88:02:49:17:c4:0d:b1:2d:b1:4e:ba:bf:60:33:5a:
                    83:bf:ea:22:dc:35:d4:95:1f:9f:ff:d0:e4:73:2e:
                    f8:85:a8:f0:55:5b:1a:8e:8e:c4:96:80:e7:29:89:
                    ef:17:87:fc:89:bc:64:2c:41:9e:8d:46:e7:2b:8a:
                    75:06:75:ba:40:e1:ba:ff:d9:31:c9:7d:d7:49:30:
                    d9:f5:b1:81:15:d8:a2:3d:98:01:12:5b:4d:8e:67:
                    a5:9b:4a:04:d7:0a:9f:b8:7e:41:fd:b7:59:5b:af:
                    49:c4:10:d9:6d:2c:f3:a3:1e:79:d7:43:2c:92:8d:
                    e0:04:d0:ff:1d:30:33:10:ca:60:50:dd:1d:70:65:
                    4f:92:55:85:06:82:b5:c0:bb:b4:0a:ab:bb:9f:3b:
                    ff:1f:42:9e:79:0b:5a:0e:f4:75:b4:34:03:2d:4b:
                    33:8f:1e:c5:d0:c8:91:ff:ef:eb:14:e4:7a:ae:80:
                    36:d8:e5:b8:0a:be:cd:1e:83:77:f2:58:81:40:f8:
                    4a:b0:50:a1:49:2d:af:d2:a4:14:84:2c:ba:3f:42:
                    32:a4:fc:6f:85:02:b3:18:d6:01:79:9c:0f:ef:e7:
                    3b:4c:e2:aa:c5:3e:c2:53:53:d6:c5:f8:a4:25:cd:
                    64:8b
                Exponent: 65537 (0x10001)
        X509v3 extensions:
            X509v3 Basic Constraints: 
                CA:FALSE
            X509v3 Key Usage: 
                Digital Signature, Non Repudiation, Key Encipherment
            X509v3 Subject Alternative Name: 
                DNS:docs.cee.metadatacenter.orgx
    Signature Algorithm: sha256WithRSAEncryption
         04:57:8f:15:6f:97:de:a5:c3:3e:95:15:8f:11:fb:23:6d:c0:
         da:73:34:21:6d:b2:5b:36:a6:21:c8:ba:fa:82:06:db:c7:5f:
         6b:02:ca:e5:01:85:b7:22:f0:54:27:80:44:a5:3e:03:8e:a5:
         45:94:16:cf:fa:0f:e9:93:ce:0a:35:70:e0:9d:e5:16:c3:84:
         e8:4c:6f:44:54:d8:61:44:ea:eb:1a:31:1c:86:a4:99:f6:0f:
         9e:a6:06:a2:12:fa:48:36:5b:db:2e:dc:88:f7:b5:0d:5b:a0:
         d5:47:81:f8:0b:0a:38:0b:93:a1:c2:08:20:de:48:64:84:0e:
         01:f2:34:43:fe:c2:57:bf:fc:b0:62:eb:93:8f:54:bb:a7:cc:
         40:03:64:19:6d:3f:55:0d:84:d1:58:b1:f4:5d:53:4f:3f:d4:
         b3:d9:51:77:b7:4f:e5:dc:0d:61:c2:ee:02:ad:62:75:1e:d3:
         3c:e9:a4:12:24:40:f4:a2:a3:f8:0f:2f:93:29:6a:4d:3b:a2:
         fa:4f:38:fa:a6:72:db:8a:af:e7:a9:a1:9c:ac:ff:2e:c2:f5:
         95:ea:22:75:7c:a2:94:7a:98:f7:cc:43:6f:2e:62:9c:9f:ce:
         c9:bd:5e:72:80:57:55:92:42:9d:0d:1e:8c:7d:fd:05:fe:e5:
         f3:ea:b2:c5:ad:7b:13:04:69:cd:39:61:de:38:b5:3c:13:dc:
         4d:61:d8:ee:c4:a7:79:8a:40:bc:b6:b0:b5:43:3d:f6:5f:6b:
         3d:1a:d7:01:90:f3:4d:bb:53:52:ac:4e:c3:06:85:ce:b4:c7:
         ee:7e:bf:a4:45:c0:1f:e7:86:cc:c0:0f:7a:35:6d:c0:13:5c:
         82:d6:0e:db:a3:47:33:f5:ee:c4:8c:99:42:56:6f:92:69:89:
         26:ad:c8:27:47:2b:d7:eb:d0:38:63:c8:1d:69:2d:60:cf:29:
         31:0c:0a:5e:ed:66:05:8b:8c:d5:f8:ba:0c:0b:ec:01:b4:be:
         00:81:35:84:2d:5c:21:ba:ff:44:38:7e:ca:ca:84:a8:43:df:
         83:db:81:25:f9:e7:bd:e4:88:11:d9:f4:5a:2e:72:0c:38:16:
         bc:97:e9:9a:f9:9a:51:44:cc:31:7a:ed:8a:69:68:94:6d:62:
         89:96:1b:80:33:5c:a8:9a:5f:94:7f:8c:85:c9:77:86:35:cc:
         65:b8:8a:75:1c:b7:5f:9b:04:c1:a2:9a:e6:44:bb:83:85:68:
         5f:8a:9f:08:ad:4f:98:9a:d0:ce:93:35:4f:ab:ab:4b:16:01:
         f0:40:c3:bd:06:38:31:9f:6e:e7:3f:8a:8a:72:53:2a:85:79:
         c8:eb:fc:2d:15:93:bf:cb
-----BEGIN CERTIFICATE-----
MIIE3DCCAsSgAwIBAgIBGDANBgkqhkiG9w0BAQsFADCBkzELMAkGA1UEBhMCVVMx
CzAJBgNVBAgMAkNBMREwDwYDVQQHDAhTdGFuZm9yZDENMAsGA1UECgwEQk1JUjEO
MAwGA1UECwwFQ0VEQVIxHDAaBgNVBAMME21ldGFkYXRhY2VudGVyLm9yZ3gxJzAl
BgkqhkiG9w0BCQEWGG1ldGFkYXRhY2VudGVyQGdtYWlsLmNvbTAeFw0yNDAxMTcy
MTUwNDVaFw0yNjA0MjAyMTUwNDVaMIGJMQswCQYDVQQGEwJVUzELMAkGA1UECAwC
Q0ExDTALBgNVBAoMBEJNSVIxDjAMBgNVBAsMBUNFREFSMSUwIwYDVQQDDBxkb2Nz
LmNlZS5tZXRhZGF0YWNlbnRlci5vcmd4MScwJQYJKoZIhvcNAQkBFhhtZXRhZGF0
YWNlbnRlckBnbWFpbC5jb20wggEiMA0GCSqGSIb3DQEBAQUAA4IBDwAwggEKAoIB
AQC//rWIA8iDx6STGV03DIgCSRfEDbEtsU66v2AzWoO/6iLcNdSVH5//0ORzLviF
qPBVWxqOjsSWgOcpie8Xh/yJvGQsQZ6NRucrinUGdbpA4br/2THJfddJMNn1sYEV
2KI9mAESW02OZ6WbSgTXCp+4fkH9t1lbr0nEENltLPOjHnnXQyySjeAE0P8dMDMQ
ymBQ3R1wZU+SVYUGgrXAu7QKq7ufO/8fQp55C1oO9HW0NAMtSzOPHsXQyJH/7+sU
5HqugDbY5bgKvs0eg3fyWIFA+EqwUKFJLa/SpBSELLo/QjKk/G+FArMY1gF5nA/v
5ztM4qrFPsJTU9bF+KQlzWSLAgMBAAGjQzBBMAkGA1UdEwQCMAAwCwYDVR0PBAQD
AgXgMCcGA1UdEQQgMB6CHGRvY3MuY2VlLm1ldGFkYXRhY2VudGVyLm9yZ3gwDQYJ
KoZIhvcNAQELBQADggIBAARXjxVvl96lwz6VFY8R+yNtwNpzNCFtsls2piHIuvqC
BtvHX2sCyuUBhbci8FQngESlPgOOpUWUFs/6D+mTzgo1cOCd5RbDhOhMb0RU2GFE
6usaMRyGpJn2D56mBqIS+kg2W9su3Ij3tQ1boNVHgfgLCjgLk6HCCCDeSGSEDgHy
NEP+wle//LBi65OPVLunzEADZBltP1UNhNFYsfRdU08/1LPZUXe3T+XcDWHC7gKt
YnUe0zzppBIkQPSio/gPL5Mpak07ovpPOPqmctuKr+epoZys/y7C9ZXqInV8opR6
mPfMQ28uYpyfzsm9XnKAV1WSQp0NHox9/QX+5fPqssWtexMEac05Yd44tTwT3E1h
2O7Ep3mKQLy2sLVDPfZfaz0a1wGQ8027U1KsTsMGhc60x+5+v6RFwB/nhszAD3o1
bcATXILWDtujRzP17sSMmUJWb5JpiSatyCdHK9fr0DhjyB1pLWDPKTEMCl7tZgWL
jNX4ugwL7AG0vgCBNYQtXCG6/0Q4fsrKhKhD34PbgSX5573kiBHZ9Foucgw4FryX
6Zr5mlFEzDF67YppaJRtYomWG4AzXKiaX5R/jIXJd4Y1zGW4inUct1+bBMGimuZE
u4OFaF+KnwitT5ia0M6TNU+rq0sWAfBAw70GODGfbuc/iopyUyqFecjr/C0Vk7/L
-----END CERTIFICATE-----
