Certificate:
    Data:
        Version: 3 (0x2)
        Serial Number: 16 (0x10)
        Signature Algorithm: sha256WithRSAEncryption
        Issuer: C=US, ST=CA, L=Stanford, O=BMIR, OU=CEDAR, CN=metadatacenter.orgx/emailAddress=metadatacenter@gmail.com
        Validity
            Not Before: Jan 17 21:50:44 2024 GMT
            Not After : Apr 20 21:50:44 2026 GMT
        Subject: C=US, ST=CA, O=BMIR, OU=CEDAR, CN=worker.metadatacenter.orgx/emailAddress=metadatacenter@gmail.com
        Subject Public Key Info:
            Public Key Algorithm: rsaEncryption
                RSA Public-Key: (2048 bit)
                Modulus:
                    00:c0:5c:94:06:a6:cb:fe:b1:1a:0d:23:3c:8e:27:
                    cd:79:6e:1b:0c:8b:6e:b7:bd:70:b3:e2:ca:60:a3:
                    24:c8:74:32:88:ba:36:f4:a3:7a:d6:5a:3b:46:6a:
                    b1:1d:24:54:92:c9:13:67:c7:6f:9f:92:9d:73:e9:
                    c1:00:94:5d:9e:f7:b7:76:9f:86:a9:a6:f3:d7:55:
                    e2:57:01:3a:b2:14:70:3a:79:1a:5f:3c:59:95:d2:
                    76:cd:ad:42:b1:1c:fc:ae:fd:20:bc:5d:9a:91:c5:
                    b2:96:ca:3f:0a:5f:d7:62:c9:ce:e6:8a:0d:26:d3:
                    18:ee:9f:4a:43:79:93:46:01:01:5f:6c:62:53:88:
                    18:a1:5b:85:c3:a9:83:cd:b0:51:3f:64:ab:68:89:
                    89:0b:22:40:ec:91:b8:b2:35:39:57:dd:68:e9:1d:
                    27:33:e5:4f:62:d5:13:6a:8e:66:fe:45:93:42:6a:
                    88:96:f4:92:59:ff:de:83:e0:3a:15:8d:6b:53:5e:
                    79:9c:dd:4c:0b:7d:a5:5b:42:ae:c6:4c:20:f6:a7:
                    a0:49:6a:91:01:1f:57:61:05:62:8e:04:d9:d0:c5:
                    af:8d:dd:c9:47:ce:6a:ca:04:30:bd:41:59:f5:05:
                    ac:20:4e:64:1d:7b:be:57:bb:48:70:1c:99:6c:66:
                    3a:a7
                Exponent: 65537 (0x10001)
        X509v3 extensions:
            X509v3 Basic Constraints: 
                CA:FALSE
            X509v3 Key Usage: 
                Digital Signature, Non Repudiation, Key Encipherment
            X509v3 Subject Alternative Name: 
                DNS:worker.metadatacenter.orgx
    Signature Algorithm: sha256WithRSAEncryption
         9e:d3:16:1f:71:f9:10:1e:93:16:41:20:9f:9b:c0:3e:f6:e0:
         d4:47:9c:01:b6:f9:dc:42:0d:bb:77:12:35:48:0c:bc:bd:e3:
         fe:24:1c:56:bc:36:4f:a0:31:0c:88:71:bb:2c:9b:25:bd:00:
         17:6a:9d:2e:a8:5f:fd:e8:3f:3d:ab:dc:c7:3e:d0:4d:48:c3:
         6a:76:85:f8:08:b2:9d:61:04:e4:df:ce:e0:4b:40:26:d3:32:
         1f:35:c7:33:20:f2:5b:10:5b:66:0c:5c:96:95:48:8b:9f:62:
         d6:6f:0d:89:6e:5f:4b:d0:02:1d:2a:10:e2:2a:52:6a:c6:b8:
         2e:34:9a:ef:26:ab:28:ef:ea:b5:54:92:ad:a6:c4:ee:cb:0b:
         d4:93:75:09:ec:bb:aa:17:13:2f:d6:1b:55:c4:11:8d:df:bc:
         eb:48:b2:7d:68:84:a6:87:03:f3:fa:df:60:1b:92:40:cb:03:
         2e:28:c3:fa:21:41:14:6e:03:e5:74:20:f5:35:24:a5:47:00:
         c5:38:cf:f2:7e:10:e7:62:33:4e:d0:33:14:0c:de:95:b2:d4:
         57:07:21:6b:78:9d:09:34:ad:7f:c7:dd:bf:37:d0:9c:0a:8f:
         48:ee:13:c0:4e:e5:a4:00:01:a4:08:87:88:ab:1a:c3:3e:cb:
         93:4e:80:cb:f2:91:38:22:79:b2:be:07:19:f3:bc:5a:b1:f2:
         29:fb:c6:31:19:b4:91:45:ee:13:f7:ba:34:2d:0a:3e:5a:bb:
         27:77:07:17:7e:e7:7c:f3:c9:71:b2:98:53:18:03:2f:5f:2d:
         86:e0:66:5b:07:aa:3f:f6:c4:04:e1:24:90:de:9c:8d:67:29:
         b8:c3:56:f4:3e:5e:37:7c:0b:4f:53:ba:7b:8a:74:83:27:03:
         53:5f:20:19:68:1a:69:ef:3a:9e:ea:73:8f:d7:16:db:85:dc:
         7d:f7:44:1e:70:3d:62:b6:81:91:7f:2e:30:8d:f5:bb:03:4b:
         8b:98:66:f4:b9:43:a7:5e:89:ba:37:9b:66:51:40:12:c1:45:
         7d:22:31:d6:65:9c:84:9e:0d:f1:16:ec:54:18:c9:ec:e5:fe:
         97:e3:02:68:eb:d6:13:35:5e:b0:c4:7e:27:0a:3c:18:bc:40:
         ea:c5:1f:eb:a9:8b:36:38:ce:95:03:92:04:0f:93:96:f3:1e:
         67:2d:d6:87:83:86:f8:c8:dc:e1:ff:65:a5:71:bd:42:a2:73:
         b5:67:7f:08:18:0e:3b:de:55:9b:5c:5a:a3:fe:3b:19:5a:dc:
         43:9a:d3:6c:4d:28:bb:7f:ab:b2:27:8c:7d:4c:39:bb:ad:54:
         5b:e4:83:d9:ce:8e:e8:bb
-----BEGIN CERTIFICATE-----
MIIE2DCCAsCgAwIBAgIBEDANBgkqhkiG9w0BAQsFADCBkzELMAkGA1UEBhMCVVMx
CzAJBgNVBAgMAkNBMREwDwYDVQQHDAhTdGFuZm9yZDENMAsGA1UECgwEQk1JUjEO
MAwGA1UECwwFQ0VEQVIxHDAaBgNVBAMME21ldGFkYXRhY2VudGVyLm9yZ3gxJzAl
BgkqhkiG9w0BCQEWGG1ldGFkYXRhY2VudGVyQGdtYWlsLmNvbTAeFw0yNDAxMTcy
MTUwNDRaFw0yNjA0MjAyMTUwNDRaMIGHMQswCQYDVQQGEwJVUzELMAkGA1UECAwC
Q0ExDTALBgNVBAoMBEJNSVIxDjAMBgNVBAsMBUNFREFSMSMwIQYDVQQDDBp3b3Jr
ZXIubWV0YWRhdGFjZW50ZXIub3JneDEnMCUGCSqGSIb3DQEJARYYbWV0YWRhdGFj
ZW50ZXJAZ21haWwuY29tMIIBIjANBgkqhkiG9w0BAQEFAAOCAQ8AMIIBCgKCAQEA
wFyUBqbL/rEaDSM8jifNeW4bDItut71ws+LKYKMkyHQyiLo29KN61lo7RmqxHSRU
kskTZ8dvn5Kdc+nBAJRdnve3dp+Gqabz11XiVwE6shRwOnkaXzxZldJ2za1CsRz8
rv0gvF2akcWylso/Cl/XYsnO5ooNJtMY7p9KQ3mTRgEBX2xiU4gYoVuFw6mDzbBR
P2SraImJCyJA7JG4sjU5V91o6R0nM+VPYtUTao5m/kWTQmqIlvSSWf/eg+A6FY1r
U155nN1MC32lW0Kuxkwg9qegSWqRAR9XYQVijgTZ0MWvjd3JR85qygQwvUFZ9QWs
IE5kHXu+V7tIcByZbGY6pwIDAQABo0EwPzAJBgNVHRMEAjAAMAsGA1UdDwQEAwIF
4DAlBgNVHREEHjAcghp3b3JrZXIubWV0YWRhdGFjZW50ZXIub3JneDANBgkqhkiG
9w0BAQsFAAOCAgEAntMWH3H5EB6TFkEgn5vAPvbg1EecAbb53EINu3cSNUgMvL3j
/iQcVrw2T6AxDIhxuyybJb0AF2qdLqhf/eg/Pavcxz7QTUjDanaF+AiynWEE5N/O
4EtAJtMyHzXHMyDyWxBbZgxclpVIi59i1m8NiW5fS9ACHSoQ4ipSasa4LjSa7yar
KO/qtVSSrabE7ssL1JN1Cey7qhcTL9YbVcQRjd+860iyfWiEpocD8/rfYBuSQMsD
LijD+iFBFG4D5XQg9TUkpUcAxTjP8n4Q52IzTtAzFAzelbLUVwcha3idCTStf8fd
vzfQnAqPSO4TwE7lpAABpAiHiKsawz7Lk06Ay/KROCJ5sr4HGfO8WrHyKfvGMRm0
kUXuE/e6NC0KPlq7J3cHF37nfPPJcbKYUxgDL18thuBmWweqP/bEBOEkkN6cjWcp
uMNW9D5eN3wLT1O6e4p0gycDU18gGWgaae86nupzj9cW24XcffdEHnA9YraBkX8u
MI31uwNLi5hm9LlDp16JujebZlFAEsFFfSIx1mWchJ4N8RbsVBjJ7OX+l+MCaOvW
EzVesMR+Jwo8GLxA6sUf66mLNjjOlQOSBA+TlvMeZy3Wh4OG+Mjc4f9lpXG9QqJz
tWd/CBgOO95Vm1xao/47GVrcQ5rTbE0ou3+rsieMfUw5u61UW+SD2c6O6Ls=
-----END CERTIFICATE-----
