Certificate:
    Data:
        Version: 3 (0x2)
        Serial Number: 10 (0xa)
        Signature Algorithm: sha256WithRSAEncryption
        Issuer: C=US, ST=CA, L=Stanford, O=BMIR, OU=CEDAR, CN=metadatacenter.orgx/emailAddress=metadatacenter@gmail.com
        Validity
            Not Before: Jan 18 00:50:45 2024 GMT
            Not After : Apr 21 00:50:45 2026 GMT
        Subject: C=US, ST=CA, O=BMIR, OU=CEDAR, CN=resource.metadatacenter.orgx/emailAddress=metadatacenter@gmail.com
        Subject Public Key Info:
            Public Key Algorithm: rsaEncryption
                RSA Public-Key: (2048 bit)
                Modulus:
                    00:b6:41:b3:79:40:04:dc:73:31:01:ee:ed:85:56:
                    8b:b8:7a:bd:75:32:4b:54:e1:8a:8e:07:3e:32:fe:
                    8d:a6:9f:de:f3:fe:d5:bb:e0:8a:a5:26:d7:56:95:
                    42:9b:98:e6:ef:2a:4b:a8:e5:cb:90:50:1e:0b:17:
                    64:01:4e:8f:56:55:4e:7f:a7:fa:c7:12:0c:10:82:
                    ac:1a:06:88:89:4d:5f:79:ed:b8:95:19:d5:85:fd:
                    dd:da:f6:d2:08:2f:fc:a5:18:a3:9c:d7:2c:f9:a4:
                    f3:f0:db:ac:a3:32:48:49:71:72:59:84:67:41:e7:
                    83:d3:1f:51:5b:09:2a:7d:c7:a6:6f:26:92:3d:74:
                    82:ee:aa:4b:ef:89:57:78:52:9e:a2:5b:10:d4:b4:
                    38:d3:02:92:77:b6:7b:33:c3:50:95:18:e5:f0:4a:
                    67:cf:7a:02:23:68:46:96:1d:fc:a8:14:88:56:cc:
                    fd:9f:38:be:e3:47:05:01:4e:da:c9:71:6c:42:06:
                    aa:80:89:4a:52:c4:09:9c:f1:62:bb:a2:c1:5a:9f:
                    8b:f3:c7:07:9a:5d:05:a9:75:77:29:ba:15:16:a0:
                    b4:ea:e4:7a:8f:86:20:11:81:c3:c8:70:b3:a1:98:
                    6f:fd:50:c7:0a:5a:33:eb:f4:e9:30:59:96:9e:03:
                    74:89
                Exponent: 65537 (0x10001)
        X509v3 extensions:
            X509v3 Basic Constraints: 
                CA:FALSE
            X509v3 Key Usage: 
                Digital Signature, Non Repudiation, Key Encipherment
            X509v3 Subject Alternative Name: 
                DNS:resource.metadatacenter.orgx
    Signature Algorithm: sha256WithRSAEncryption
         3a:c3:4e:90:80:e5:22:61:06:0c:4b:22:ca:35:45:6a:25:66:
         e0:0c:67:d8:3c:25:26:7e:9b:17:c7:f7:81:75:a8:65:23:78:
         62:02:61:39:9c:8f:f4:88:7c:e1:cc:77:70:c3:73:bc:ef:6f:
         46:29:81:71:1f:78:da:32:93:27:03:90:b2:a5:f0:5d:d2:e0:
         d5:2f:96:8c:42:26:31:bf:07:89:59:cd:00:9d:c5:c5:e8:b2:
         0a:2e:1b:46:5f:2c:7b:81:3a:32:b7:41:4a:60:ef:71:f7:ea:
         89:c1:d7:eb:88:08:0f:7a:3e:2d:69:30:01:e8:e2:e8:94:23:
         94:f5:28:e7:0b:3b:98:48:43:ae:af:b0:49:67:41:a3:05:a2:
         4a:82:04:d6:2e:4e:bc:e7:b6:38:cd:cb:d7:1f:b0:b8:a6:f3:
         57:12:ca:90:c7:4e:6a:5a:59:97:c5:af:6d:bf:dc:0d:fd:09:
         b1:25:af:52:d9:0e:f8:ee:3c:17:20:1c:12:69:f4:4e:89:5f:
         37:08:60:98:e7:66:5c:7b:d1:44:8e:5b:f4:f5:38:b6:b3:02:
         3f:f4:39:58:d4:5a:c9:c2:1b:ab:47:ee:57:c2:0f:10:19:c4:
         1c:c1:33:7f:2e:ab:b2:23:37:c8:98:14:ef:3a:90:69:47:90:
         fb:99:d1:c5:4f:9d:de:d4:03:20:9f:aa:2e:20:07:76:68:b4:
         ac:4d:9a:9c:81:56:cd:0c:2c:61:f1:5a:b4:ea:f7:ed:56:cc:
         cc:7f:6f:bc:0f:bf:40:15:95:e1:b7:98:78:3d:11:10:99:2c:
         0a:d7:8f:cf:11:1a:98:e3:00:85:ae:12:5b:f9:ca:d3:f3:04:
         9f:a7:e2:7a:ce:8d:b4:0f:5d:00:aa:4d:11:b0:d7:16:94:2f:
         b3:a9:0f:2b:01:9c:b3:15:9e:18:03:ce:32:79:ad:89:31:88:
         a8:17:ab:6b:5f:12:68:de:c5:0b:ce:ff:79:a8:67:99:75:92:
         57:d7:5c:55:e9:37:08:4b:25:49:6b:4a:92:ec:cd:58:8b:42:
         a9:04:32:97:61:af:49:04:8c:17:aa:1d:bc:15:35:2b:a0:80:
         bb:89:e1:ad:00:0e:78:4d:27:46:43:e9:ed:12:35:77:6c:76:
         3a:5c:1a:ec:bf:3d:2a:58:ea:79:a7:f2:2b:6a:4b:d4:44:49:
         60:c5:ee:86:2b:ff:88:95:e5:45:0a:e5:72:63:ed:71:4d:db:
         0e:fd:69:1b:61:3a:1e:bd:40:e6:3e:14:fe:bd:aa:c9:2c:64:
         1a:77:87:c6:06:a6:77:a1:72:28:0a:0d:2a:c9:81:a3:f4:23:
         f7:b5:48:42:f2:71:9a:24
-----BEGIN CERTIFICATE-----
MIIE3DCCAsSgAwIBAgIBCjANBgkqhkiG9w0BAQsFADCBkzELMAkGA1UEBhMCVVMx
CzAJBgNVBAgMAkNBMREwDwYDVQQHDAhTdGFuZm9yZDENMAsGA1UECgwEQk1JUjEO
MAwGA1UECwwFQ0VEQVIxHDAaBgNVBAMME21ldGFkYXRhY2VudGVyLm9yZ3gxJzAl
BgkqhkiG9w0BCQEWGG1ldGFkYXRhY2VudGVyQGdtYWlsLmNvbTAeFw0yNDAxMTgw
MDUwNDVaFw0yNjA0MjEwMDUwNDVaMIGJMQswCQYDVQQGEwJVUzELMAkGA1UECAwC
Q0ExDTALBgNVBAoMBEJNSVIxDjAMBgNVBAsMBUNFREFSMSUwIwYDVQQDDBxyZXNv
dXJjZS5tZXRhZGF0YWNlbnRlci5vcmd4MScwJQYJKoZIhvcNAQkBFhhtZXRhZGF0
YWNlbnRlckBnbWFpbC5jb20wggEiMA0GCSqGSIb3DQEBAQUAA4IBDwAwggEKAoIB
AQC2QbN5QATcczEB7u2FVou4er11MktU4YqOBz4y/o2mn97z/tW74IqlJtdWlUKb
mObvKkuo5cuQUB4LF2QBTo9WVU5/p/rHEgwQgqwaBoiJTV957biVGdWF/d3a9tII
L/ylGKOc1yz5pPPw26yjMkhJcXJZhGdB54PTH1FbCSp9x6ZvJpI9dILuqkvviVd4
Up6iWxDUtDjTApJ3tnszw1CVGOXwSmfPegIjaEaWHfyoFIhWzP2fOL7jRwUBTtrJ
cWxCBqqAiUpSxAmc8WK7osFan4vzxweaXQWpdXcpuhUWoLTq5HqPhiARgcPIcLOh
mG/9UMcKWjPr9OkwWZaeA3SJAgMBAAGjQzBBMAkGA1UdEwQCMAAwCwYDVR0PBAQD
AgXgMCcGA1UdEQQgMB6CHHJlc291cmNlLm1ldGFkYXRhY2VudGVyLm9yZ3gwDQYJ
KoZIhvcNAQELBQADggIBADrDTpCA5SJhBgxLIso1RWolZuAMZ9g8JSZ+mxfH94F1
qGUjeGICYTmcj/SIfOHMd3DDc7zvb0YpgXEfeNoykycDkLKl8F3S4NUvloxCJjG/
B4lZzQCdxcXosgouG0ZfLHuBOjK3QUpg73H36onB1+uICA96Pi1pMAHo4uiUI5T1
KOcLO5hIQ66vsElnQaMFokqCBNYuTrzntjjNy9cfsLim81cSypDHTmpaWZfFr22/
3A39CbElr1LZDvjuPBcgHBJp9E6JXzcIYJjnZlx70USOW/T1OLazAj/0OVjUWsnC
G6tH7lfCDxAZxBzBM38uq7IjN8iYFO86kGlHkPuZ0cVPnd7UAyCfqi4gB3ZotKxN
mpyBVs0MLGHxWrTq9+1WzMx/b7wPv0AVleG3mHg9ERCZLArXj88RGpjjAIWuElv5
ytPzBJ+n4nrOjbQPXQCqTRGw1xaUL7OpDysBnLMVnhgDzjJ5rYkxiKgXq2tfEmje
xQvO/3moZ5l1klfXXFXpNwhLJUlrSpLszViLQqkEMpdhr0kEjBeqHbwVNSuggLuJ
4a0ADnhNJ0ZD6e0SNXdsdjpcGuy/PSpY6nmn8itqS9RESWDF7oYr/4iV5UUK5XJj
7XFN2w79aRthOh69QOY+FP69qsksZBp3h8YGpnehcigKDSrJgaP0I/e1SELycZok
-----END CERTIFICATE-----
