Certificate:
    Data:
        Version: 3 (0x2)
        Serial Number: 13 (0xd)
        Signature Algorithm: sha256WithRSAEncryption
        Issuer: C=US, ST=CA, L=Stanford, O=BMIR, OU=CEDAR, CN=metadatacenter.orgx/emailAddress=metadatacenter@gmail.com
        Validity
            Not Before: Jan 18 18:49:35 2023 GMT
            Not After : Apr 21 18:49:35 2025 GMT
        Subject: C=US, ST=CA, O=BMIR, OU=CEDAR, CN=resource.metadatacenter.orgx/emailAddress=metadatacenter@gmail.com
        Subject Public Key Info:
            Public Key Algorithm: rsaEncryption
                RSA Public-Key: (2048 bit)
                Modulus:
                    00:a4:92:87:b9:a8:d4:0b:c8:5a:30:1d:9c:70:bb:
                    9f:cb:cc:f1:e9:a1:8f:fc:86:ee:3f:7a:11:53:5d:
                    56:f4:92:47:b7:48:3b:8f:35:0c:37:f5:96:e4:15:
                    ef:9f:e6:1e:4e:d1:38:b8:39:37:7c:1d:68:cb:f1:
                    fd:6c:8e:d9:b5:58:e2:42:eb:d9:b0:87:de:f5:62:
                    ad:31:33:4e:1a:0d:d9:b0:58:9a:37:29:40:82:62:
                    a5:76:9b:61:26:09:ef:0b:0f:ec:e6:8d:75:b0:22:
                    e6:ee:16:18:6f:de:07:fa:0d:1b:f6:86:1c:74:e7:
                    7e:e6:59:da:50:ab:fe:b2:ce:04:ab:fb:0f:4b:04:
                    99:5c:2d:c0:3c:27:41:1b:4f:d3:3f:48:b0:85:6b:
                    25:f1:79:0e:10:f7:ff:a6:82:2f:3b:fb:96:c6:d5:
                    47:e8:55:6a:2f:d4:9c:22:4e:63:9f:c5:6d:49:61:
                    59:6d:c2:f3:d7:4c:c6:22:d3:d8:b1:79:8f:4c:cc:
                    99:c9:bd:27:6b:98:10:40:5e:86:0b:55:cb:16:c2:
                    a0:c8:61:9e:45:70:5a:d6:ff:58:d2:57:8f:28:12:
                    de:9e:a2:16:0b:93:09:a0:80:46:bb:8b:55:1f:e5:
                    7a:d0:2a:6b:90:13:e5:79:29:7c:d8:5c:f9:4e:51:
                    ea:cb
                Exponent: 65537 (0x10001)
        X509v3 extensions:
            X509v3 Basic Constraints: 
                CA:FALSE
            X509v3 Key Usage: 
                Digital Signature, Non Repudiation, Key Encipherment
            X509v3 Subject Alternative Name: 
                DNS:resource.metadatacenter.orgx
    Signature Algorithm: sha256WithRSAEncryption
         19:94:3e:2b:43:e8:5b:01:db:4a:96:94:0c:83:0c:87:5e:c9:
         ca:ff:bc:72:6e:1d:de:a0:9b:d2:29:cf:34:d1:cf:f6:90:b0:
         f0:ac:00:df:76:a3:4c:ec:3e:56:96:ec:11:a3:ff:da:5d:26:
         1b:f7:f9:d4:a7:c5:20:19:54:d8:3c:14:0b:a2:3c:ed:7a:6b:
         b6:0d:41:89:3b:50:30:86:c1:4c:9d:c5:c0:56:7e:3d:ca:d4:
         92:80:54:31:3a:4d:c3:49:73:df:87:df:03:ea:ed:1f:df:2e:
         7e:e3:3e:5a:6f:16:57:14:c3:95:28:ec:6a:35:1c:13:77:01:
         d9:fb:43:fb:b0:c8:92:9c:c9:a5:e1:1f:fc:ec:3d:2a:ea:cc:
         0c:40:bb:37:6b:91:61:73:84:b4:80:13:b6:4d:c2:02:56:20:
         1f:e9:cf:fa:af:d5:45:20:b0:47:48:28:4d:95:34:e0:6c:09:
         d3:54:f5:94:94:64:de:7b:bb:00:53:27:8a:ab:f9:3e:ac:65:
         9e:55:e0:92:7c:f2:ed:29:81:77:f7:c9:4e:64:28:60:42:c1:
         4a:1f:56:94:05:5d:f9:91:27:e2:b0:71:46:b4:2c:6a:98:0c:
         be:d2:48:af:0d:3c:72:70:6c:3c:44:53:3a:0d:c7:be:95:d1:
         9a:65:3d:fd:3a:6f:61:a9:12:c9:78:5f:e1:0f:5d:1a:77:22:
         61:ce:98:f9:47:f0:01:df:e3:03:5f:08:18:49:a6:79:c4:fd:
         b6:7a:46:12:af:7f:18:67:a3:78:ea:bb:0c:87:9b:46:18:ba:
         87:4d:6b:39:15:10:e1:86:c6:e0:73:92:12:25:fd:2f:4a:a5:
         d1:81:4a:9d:ae:f2:c8:43:ec:f0:20:0b:a1:17:69:8b:7e:c6:
         f4:77:ef:b8:3a:e1:b2:2c:6e:d1:bb:1a:36:48:be:34:7f:c1:
         79:7b:ea:45:68:0d:e8:25:a5:8a:f6:bf:8e:af:00:34:18:1d:
         ff:1a:91:c5:cb:e4:4a:be:72:cc:52:d5:90:99:d0:29:9a:df:
         e1:d4:49:3e:44:df:6c:b5:19:3f:c2:cd:a2:c0:42:2b:84:fc:
         8a:24:44:27:c9:bc:36:f9:8c:51:90:c0:ad:64:06:76:7e:05:
         b6:af:a2:f9:68:d3:d0:f7:b7:37:a4:27:2b:45:20:ac:0c:fb:
         55:f2:b9:69:31:1b:62:e1:32:7a:1f:5c:46:5b:f7:0d:1e:df:
         64:92:44:69:34:42:d7:de:19:6f:94:3a:7c:ac:c3:3b:3e:91:
         fb:44:64:63:06:ea:33:96:8c:71:7f:2d:42:62:0c:c9:1b:8b:
         49:c9:2f:bc:5e:b7:23:a3
-----BEGIN CERTIFICATE-----
MIIE3DCCAsSgAwIBAgIBDTANBgkqhkiG9w0BAQsFADCBkzELMAkGA1UEBhMCVVMx
CzAJBgNVBAgMAkNBMREwDwYDVQQHDAhTdGFuZm9yZDENMAsGA1UECgwEQk1JUjEO
MAwGA1UECwwFQ0VEQVIxHDAaBgNVBAMME21ldGFkYXRhY2VudGVyLm9yZ3gxJzAl
BgkqhkiG9w0BCQEWGG1ldGFkYXRhY2VudGVyQGdtYWlsLmNvbTAeFw0yMzAxMTgx
ODQ5MzVaFw0yNTA0MjExODQ5MzVaMIGJMQswCQYDVQQGEwJVUzELMAkGA1UECAwC
Q0ExDTALBgNVBAoMBEJNSVIxDjAMBgNVBAsMBUNFREFSMSUwIwYDVQQDDBxyZXNv
dXJjZS5tZXRhZGF0YWNlbnRlci5vcmd4MScwJQYJKoZIhvcNAQkBFhhtZXRhZGF0
YWNlbnRlckBnbWFpbC5jb20wggEiMA0GCSqGSIb3DQEBAQUAA4IBDwAwggEKAoIB
AQCkkoe5qNQLyFowHZxwu5/LzPHpoY/8hu4/ehFTXVb0kke3SDuPNQw39ZbkFe+f
5h5O0Ti4OTd8HWjL8f1sjtm1WOJC69mwh971Yq0xM04aDdmwWJo3KUCCYqV2m2Em
Ce8LD+zmjXWwIubuFhhv3gf6DRv2hhx0537mWdpQq/6yzgSr+w9LBJlcLcA8J0Eb
T9M/SLCFayXxeQ4Q9/+mgi87+5bG1UfoVWov1JwiTmOfxW1JYVltwvPXTMYi09ix
eY9MzJnJvSdrmBBAXoYLVcsWwqDIYZ5FcFrW/1jSV48oEt6eohYLkwmggEa7i1Uf
5XrQKmuQE+V5KXzYXPlOUerLAgMBAAGjQzBBMAkGA1UdEwQCMAAwCwYDVR0PBAQD
AgXgMCcGA1UdEQQgMB6CHHJlc291cmNlLm1ldGFkYXRhY2VudGVyLm9yZ3gwDQYJ
KoZIhvcNAQELBQADggIBABmUPitD6FsB20qWlAyDDIdeycr/vHJuHd6gm9IpzzTR
z/aQsPCsAN92o0zsPlaW7BGj/9pdJhv3+dSnxSAZVNg8FAuiPO16a7YNQYk7UDCG
wUydxcBWfj3K1JKAVDE6TcNJc9+H3wPq7R/fLn7jPlpvFlcUw5Uo7Go1HBN3Adn7
Q/uwyJKcyaXhH/zsPSrqzAxAuzdrkWFzhLSAE7ZNwgJWIB/pz/qv1UUgsEdIKE2V
NOBsCdNU9ZSUZN57uwBTJ4qr+T6sZZ5V4JJ88u0pgXf3yU5kKGBCwUofVpQFXfmR
J+KwcUa0LGqYDL7SSK8NPHJwbDxEUzoNx76V0ZplPf06b2GpEsl4X+EPXRp3ImHO
mPlH8AHf4wNfCBhJpnnE/bZ6RhKvfxhno3jquwyHm0YYuodNazkVEOGGxuBzkhIl
/S9KpdGBSp2u8shD7PAgC6EXaYt+xvR377g64bIsbtG7GjZIvjR/wXl76kVoDegl
pYr2v46vADQYHf8akcXL5Eq+csxS1ZCZ0Cma3+HUST5E32y1GT/CzaLAQiuE/Iok
RCfJvDb5jFGQwK1kBnZ+Bbavovlo09D3tzekJytFIKwM+1XyuWkxG2LhMnofXEZb
9w0e32SSRGk0QtfeGW+UOnyswzs+kftEZGMG6jOWjHF/LUJiDMkbi0nJL7xetyOj
-----END CERTIFICATE-----
