Certificate:
    Data:
        Version: 3 (0x2)
        Serial Number: 22 (0x16)
        Signature Algorithm: sha256WithRSAEncryption
        Issuer: C=US, ST=CA, L=Stanford, O=BMIR, OU=CEDAR, CN=metadatacenter.orgx/emailAddress=metadatacenter@gmail.com
        Validity
            Not Before: Jan 17 21:50:45 2024 GMT
            Not After : Apr 20 21:50:45 2026 GMT
        Subject: C=US, ST=CA, O=BMIR, OU=CEDAR, CN=bridging.metadatacenter.orgx/emailAddress=metadatacenter@gmail.com
        Subject Public Key Info:
            Public Key Algorithm: rsaEncryption
                RSA Public-Key: (2048 bit)
                Modulus:
                    00:d7:a3:f2:00:1a:1b:aa:e2:fe:de:0f:4e:5e:b0:
                    56:bd:27:45:45:29:b1:c4:15:2d:ec:5d:b1:94:48:
                    b2:81:e7:34:67:9d:fe:18:0d:d4:31:24:83:0a:75:
                    07:7f:0b:c2:f0:59:05:ed:76:ea:d3:29:34:18:b8:
                    eb:93:5d:84:43:6e:6f:15:32:0e:3f:b2:5c:60:f9:
                    ea:35:e7:b7:20:d1:37:c6:36:e2:2a:cc:36:54:f4:
                    68:89:b3:4c:aa:18:43:b8:e2:9c:36:c2:4b:15:d0:
                    3e:1d:61:82:2a:9a:b9:bc:97:6a:44:62:0e:81:e8:
                    31:7b:c7:65:e5:c9:ca:35:f2:dc:fd:64:cb:17:82:
                    0a:1b:ad:07:f2:65:cf:ff:5c:ca:cd:43:ca:1d:20:
                    0d:ab:d8:14:85:8d:14:ad:ca:c6:12:bb:52:cd:dd:
                    c9:b0:d9:5b:c2:d4:77:70:81:99:82:56:70:47:f0:
                    5b:fa:b1:71:59:69:e7:6d:36:37:c4:67:fd:0b:7f:
                    b6:25:a8:17:5f:63:ad:a8:30:58:64:f5:4c:83:d6:
                    ec:6c:2a:24:74:86:26:9b:01:4a:dd:01:28:3b:76:
                    9a:02:d5:be:ca:9e:e3:e6:b8:50:b4:70:21:87:3e:
                    e9:7c:c2:98:6e:6a:ff:02:96:bf:0c:53:05:3b:56:
                    28:d3
                Exponent: 65537 (0x10001)
        X509v3 extensions:
            X509v3 Basic Constraints: 
                CA:FALSE
            X509v3 Key Usage: 
                Digital Signature, Non Repudiation, Key Encipherment
            X509v3 Subject Alternative Name: 
                DNS:bridging.metadatacenter.orgx
    Signature Algorithm: sha256WithRSAEncryption
         af:ed:89:c4:87:c9:70:26:7f:5a:da:9a:e1:e7:47:21:0a:a9:
         cd:b1:66:f4:85:c1:61:56:e2:d3:aa:44:5e:75:e1:8a:44:7f:
         59:01:ff:96:7a:09:18:55:5f:9c:48:f5:1b:56:54:a5:48:9b:
         53:0e:d4:5e:64:14:bf:40:5c:23:9f:9b:65:da:b7:e9:a5:1f:
         4e:ba:bf:6f:30:20:7f:17:f6:f5:8e:0e:96:f9:8f:96:f4:38:
         5d:e0:6c:fc:9c:0d:85:16:8c:30:d9:6e:e6:05:08:87:1b:17:
         ae:ed:8d:08:c5:55:b6:be:af:96:ff:0a:2e:f8:7b:2c:64:d5:
         be:28:1b:cf:d0:5c:f0:58:ea:30:ca:be:90:40:df:27:3d:dd:
         89:47:a2:b1:84:b5:37:fb:ae:c8:d9:6f:60:73:9e:18:b4:83:
         9e:15:62:2a:eb:68:87:20:73:6e:3b:f2:eb:d6:05:7b:ac:2b:
         a6:67:89:4e:da:34:01:79:68:c8:78:a1:f8:1b:3c:75:88:b5:
         8e:8f:86:68:3a:e4:91:75:7d:98:07:db:5e:a0:ee:4d:fd:3e:
         9c:11:3f:c5:ff:32:ff:b6:84:c7:f0:17:da:cf:51:33:c4:d9:
         89:90:92:12:35:d8:68:2b:6a:95:87:94:f2:69:83:51:99:ea:
         ed:bf:c2:b5:5a:02:01:c5:20:b2:3d:54:95:87:b4:a8:dc:c1:
         77:0d:88:21:e1:9e:7f:15:d1:76:23:f4:ef:5d:5f:ec:e5:a0:
         74:76:d1:fa:bb:cc:bc:72:72:9f:1f:03:eb:d2:e7:3f:15:74:
         6b:a1:c6:a5:9b:72:0c:0b:8a:fd:76:54:5e:9b:23:fa:7d:eb:
         bd:22:40:b8:08:bd:8e:43:ad:ec:5f:d1:81:3b:a9:1d:b2:7e:
         f5:34:85:c9:e5:f0:33:38:76:6f:9a:17:86:53:40:6c:59:bc:
         72:43:c3:74:b8:7c:0c:16:44:4b:85:63:3a:38:58:e2:bc:cf:
         87:08:f0:5e:9e:86:61:4d:f6:b0:25:b4:90:bd:46:44:57:0c:
         26:c8:c6:44:9b:f2:8c:9c:1c:41:1d:b0:4b:3a:5b:34:13:d0:
         8e:7b:c1:a9:99:2f:7f:3a:4c:67:3a:4d:c5:b5:b8:05:73:dd:
         dd:92:41:9c:5e:c0:ab:24:33:47:f7:3c:fc:78:b3:33:11:f4:
         92:6f:d7:31:61:b8:41:71:bd:2d:59:17:ac:fb:36:40:37:d4:
         52:a1:4a:92:47:19:03:39:cc:b2:e9:0d:97:2f:b0:44:c6:6c:
         6e:66:d8:82:09:f8:ab:9d:37:a4:25:00:60:3e:0e:8a:d6:99:
         e2:a3:3e:59:a4:15:b9:27
-----BEGIN CERTIFICATE-----
MIIE3DCCAsSgAwIBAgIBFjANBgkqhkiG9w0BAQsFADCBkzELMAkGA1UEBhMCVVMx
CzAJBgNVBAgMAkNBMREwDwYDVQQHDAhTdGFuZm9yZDENMAsGA1UECgwEQk1JUjEO
MAwGA1UECwwFQ0VEQVIxHDAaBgNVBAMME21ldGFkYXRhY2VudGVyLm9yZ3gxJzAl
BgkqhkiG9w0BCQEWGG1ldGFkYXRhY2VudGVyQGdtYWlsLmNvbTAeFw0yNDAxMTcy
MTUwNDVaFw0yNjA0MjAyMTUwNDVaMIGJMQswCQYDVQQGEwJVUzELMAkGA1UECAwC
Q0ExDTALBgNVBAoMBEJNSVIxDjAMBgNVBAsMBUNFREFSMSUwIwYDVQQDDBxicmlk
Z2luZy5tZXRhZGF0YWNlbnRlci5vcmd4MScwJQYJKoZIhvcNAQkBFhhtZXRhZGF0
YWNlbnRlckBnbWFpbC5jb20wggEiMA0GCSqGSIb3DQEBAQUAA4IBDwAwggEKAoIB
AQDXo/IAGhuq4v7eD05esFa9J0VFKbHEFS3sXbGUSLKB5zRnnf4YDdQxJIMKdQd/
C8LwWQXtdurTKTQYuOuTXYRDbm8VMg4/slxg+eo157cg0TfGNuIqzDZU9GiJs0yq
GEO44pw2wksV0D4dYYIqmrm8l2pEYg6B6DF7x2Xlyco18tz9ZMsXggobrQfyZc//
XMrNQ8odIA2r2BSFjRStysYSu1LN3cmw2VvC1HdwgZmCVnBH8Fv6sXFZaedtNjfE
Z/0Lf7YlqBdfY62oMFhk9UyD1uxsKiR0hiabAUrdASg7dpoC1b7KnuPmuFC0cCGH
Pul8wphuav8Clr8MUwU7VijTAgMBAAGjQzBBMAkGA1UdEwQCMAAwCwYDVR0PBAQD
AgXgMCcGA1UdEQQgMB6CHGJyaWRnaW5nLm1ldGFkYXRhY2VudGVyLm9yZ3gwDQYJ
KoZIhvcNAQELBQADggIBAK/ticSHyXAmf1ramuHnRyEKqc2xZvSFwWFW4tOqRF51
4YpEf1kB/5Z6CRhVX5xI9RtWVKVIm1MO1F5kFL9AXCOfm2Xat+mlH066v28wIH8X
9vWODpb5j5b0OF3gbPycDYUWjDDZbuYFCIcbF67tjQjFVba+r5b/Ci74eyxk1b4o
G8/QXPBY6jDKvpBA3yc93YlHorGEtTf7rsjZb2Bznhi0g54VYirraIcgc2478uvW
BXusK6ZniU7aNAF5aMh4ofgbPHWItY6Phmg65JF1fZgH216g7k39PpwRP8X/Mv+2
hMfwF9rPUTPE2YmQkhI12GgrapWHlPJpg1GZ6u2/wrVaAgHFILI9VJWHtKjcwXcN
iCHhnn8V0XYj9O9dX+zloHR20fq7zLxycp8fA+vS5z8VdGuhxqWbcgwLiv12VF6b
I/p9670iQLgIvY5Drexf0YE7qR2yfvU0hcnl8DM4dm+aF4ZTQGxZvHJDw3S4fAwW
REuFYzo4WOK8z4cI8F6ehmFN9rAltJC9RkRXDCbIxkSb8oycHEEdsEs6WzQT0I57
wamZL386TGc6TcW1uAVz3d2SQZxewKskM0f3PPx4szMR9JJv1zFhuEFxvS1ZF6z7
NkA31FKhSpJHGQM5zLLpDZcvsETGbG5m2IIJ+KudN6QlAGA+DorWmeKjPlmkFbkn
-----END CERTIFICATE-----
