Certificate:
    Data:
        Version: 3 (0x2)
        Serial Number: 20 (0x14)
        Signature Algorithm: sha256WithRSAEncryption
        Issuer: C=US, ST=CA, L=Stanford, O=BMIR, OU=CEDAR, CN=metadatacenter.orgx/emailAddress=metadatacenter@gmail.com
        Validity
            Not Before: Jan 17 21:50:44 2024 GMT
            Not After : Apr 20 21:50:44 2026 GMT
        Subject: C=US, ST=CA, O=BMIR, OU=CEDAR, CN=monitoring.metadatacenter.orgx/emailAddress=metadatacenter@gmail.com
        Subject Public Key Info:
            Public Key Algorithm: rsaEncryption
                RSA Public-Key: (2048 bit)
                Modulus:
                    00:da:63:e0:de:40:f6:41:9c:6e:ed:05:ef:e7:4a:
                    20:1e:c1:90:d9:67:6d:ae:1a:27:6d:a8:75:98:d6:
                    32:93:0d:ca:d6:95:b0:db:3c:53:7c:e9:ee:2a:b0:
                    02:79:af:11:40:c1:86:4f:b7:23:d5:3a:88:70:0a:
                    14:00:18:49:cd:60:2c:f8:70:2c:1f:99:dd:ed:16:
                    00:03:cd:9d:0d:10:86:b9:5d:f6:65:06:25:e0:55:
                    38:f3:3d:86:4f:e7:91:74:ec:90:a8:ea:a7:d6:01:
                    93:3c:61:df:d6:fc:38:d1:8d:d2:8e:79:9d:f4:65:
                    70:c1:31:44:5c:98:7e:05:86:9f:34:57:af:83:5f:
                    11:d4:ae:7f:8c:3a:5b:49:0d:65:95:14:d9:16:9f:
                    62:33:2e:fb:14:24:04:b8:dc:58:67:54:cb:46:01:
                    18:41:67:56:af:63:34:95:9a:76:4d:c7:25:b2:4c:
                    48:00:a8:05:d1:60:47:15:1e:e5:c1:1f:9d:27:f3:
                    a2:93:86:c9:b7:32:23:fd:c1:34:81:38:c8:f3:ec:
                    e4:fb:92:9a:b7:99:06:3e:be:59:d6:6c:e7:af:15:
                    46:35:34:15:f2:8d:30:2a:a5:3b:bb:cb:e0:d0:01:
                    9d:7b:c5:88:7a:86:9a:1d:eb:c7:90:d0:bf:32:ad:
                    16:25
                Exponent: 65537 (0x10001)
        X509v3 extensions:
            X509v3 Basic Constraints: 
                CA:FALSE
            X509v3 Key Usage: 
                Digital Signature, Non Repudiation, Key Encipherment
            X509v3 Subject Alternative Name: 
                DNS:monitoring.metadatacenter.orgx
    Signature Algorithm: sha256WithRSAEncryption
         93:d9:bd:b3:6d:44:7d:f6:e9:42:58:5a:ef:62:a2:0d:ce:a5:
         25:9c:02:ec:ef:93:e2:06:d8:2b:a1:fe:d2:27:ac:44:4e:99:
         10:98:d2:2b:5b:ea:7b:65:47:b6:db:02:7d:dd:1b:3c:0b:da:
         f1:01:45:62:40:48:9f:21:40:13:15:a9:c7:c7:04:9e:ca:3d:
         06:5e:07:8d:42:86:ef:02:82:f7:80:a0:35:9c:ba:6c:af:49:
         81:bc:53:5c:53:11:b0:fe:8f:6e:98:b3:ff:41:f8:62:59:be:
         08:3d:a2:c8:c6:1e:a9:ec:d9:23:31:bb:d2:63:c7:fa:70:1b:
         08:fe:73:b1:09:2b:49:81:bd:10:37:78:62:0d:ef:1c:85:83:
         20:48:2e:13:cd:d4:a0:bf:00:41:af:8f:b4:1e:d1:1e:c8:9f:
         f9:fa:61:d8:ce:7f:5b:21:ca:2f:eb:56:fa:74:8b:86:f9:14:
         48:f8:08:dd:d3:53:59:56:fe:5a:4a:cb:90:f0:5b:da:15:85:
         2d:95:5d:b9:47:86:33:e8:79:30:65:cd:61:ad:63:87:00:84:
         cf:70:2a:1a:35:a6:10:4c:a8:d9:9c:a2:89:8a:b8:85:ae:4e:
         3e:52:fc:ca:99:de:19:5a:01:d0:61:c9:b1:5f:d8:d2:e8:cc:
         d8:26:7a:0d:23:d8:00:56:70:e6:54:96:fa:58:b7:0e:85:9e:
         81:ca:3d:12:d5:95:c8:fe:ef:1b:d3:f2:33:36:a7:de:84:5a:
         ce:cf:64:de:fa:0a:66:66:b5:0a:19:26:b7:9d:5b:b7:38:3f:
         bc:48:3b:92:88:91:20:3c:24:b3:39:dd:ad:ca:f9:31:4d:90:
         d6:70:6c:5e:dd:dd:2c:cf:c8:b8:37:65:a4:5d:ec:9f:20:45:
         36:c0:55:24:e5:4e:b0:89:0a:53:7f:af:de:22:e6:b3:09:07:
         59:04:6d:e1:ab:00:d7:4d:80:7a:d6:6e:41:df:ce:b1:d6:0d:
         bb:85:34:7c:a4:56:2b:29:cf:e1:4c:00:a8:92:1a:ba:5f:76:
         e5:01:a8:2c:fe:70:6d:6f:0f:3a:cb:3f:03:53:a5:ae:70:eb:
         93:de:69:c9:39:5c:56:65:c6:ec:25:4e:6d:28:35:79:a9:6f:
         ca:4d:b4:8c:bf:14:88:a8:62:63:0f:1d:7b:ae:65:7c:4c:c4:
         4a:a3:3c:c3:f7:86:5c:53:67:e1:60:ef:18:86:f6:d8:6b:c0:
         1a:d7:4b:f3:59:b5:2f:c9:e5:b5:f8:8d:63:2a:a9:51:e4:55:
         05:6f:2a:28:e0:29:e0:56:44:7c:32:ba:d3:f9:13:e7:eb:d9:
         ed:c7:14:1e:d2:41:7b:c3
-----BEGIN CERTIFICATE-----
MIIE4DCCAsigAwIBAgIBFDANBgkqhkiG9w0BAQsFADCBkzELMAkGA1UEBhMCVVMx
CzAJBgNVBAgMAkNBMREwDwYDVQQHDAhTdGFuZm9yZDENMAsGA1UECgwEQk1JUjEO
MAwGA1UECwwFQ0VEQVIxHDAaBgNVBAMME21ldGFkYXRhY2VudGVyLm9yZ3gxJzAl
BgkqhkiG9w0BCQEWGG1ldGFkYXRhY2VudGVyQGdtYWlsLmNvbTAeFw0yNDAxMTcy
MTUwNDRaFw0yNjA0MjAyMTUwNDRaMIGLMQswCQYDVQQGEwJVUzELMAkGA1UECAwC
Q0ExDTALBgNVBAoMBEJNSVIxDjAMBgNVBAsMBUNFREFSMScwJQYDVQQDDB5tb25p
dG9yaW5nLm1ldGFkYXRhY2VudGVyLm9yZ3gxJzAlBgkqhkiG9w0BCQEWGG1ldGFk
YXRhY2VudGVyQGdtYWlsLmNvbTCCASIwDQYJKoZIhvcNAQEBBQADggEPADCCAQoC
ggEBANpj4N5A9kGcbu0F7+dKIB7BkNlnba4aJ22odZjWMpMNytaVsNs8U3zp7iqw
AnmvEUDBhk+3I9U6iHAKFAAYSc1gLPhwLB+Z3e0WAAPNnQ0Qhrld9mUGJeBVOPM9
hk/nkXTskKjqp9YBkzxh39b8ONGN0o55nfRlcMExRFyYfgWGnzRXr4NfEdSuf4w6
W0kNZZUU2RafYjMu+xQkBLjcWGdUy0YBGEFnVq9jNJWadk3HJbJMSACoBdFgRxUe
5cEfnSfzopOGybcyI/3BNIE4yPPs5PuSmreZBj6+WdZs568VRjU0FfKNMCqlO7vL
4NABnXvFiHqGmh3rx5DQvzKtFiUCAwEAAaNFMEMwCQYDVR0TBAIwADALBgNVHQ8E
BAMCBeAwKQYDVR0RBCIwIIIebW9uaXRvcmluZy5tZXRhZGF0YWNlbnRlci5vcmd4
MA0GCSqGSIb3DQEBCwUAA4ICAQCT2b2zbUR99ulCWFrvYqINzqUlnALs75PiBtgr
of7SJ6xETpkQmNIrW+p7ZUe22wJ93Rs8C9rxAUViQEifIUATFanHxwSeyj0GXgeN
QobvAoL3gKA1nLpsr0mBvFNcUxGw/o9umLP/QfhiWb4IPaLIxh6p7NkjMbvSY8f6
cBsI/nOxCStJgb0QN3hiDe8chYMgSC4TzdSgvwBBr4+0HtEeyJ/5+mHYzn9bIcov
61b6dIuG+RRI+Ajd01NZVv5aSsuQ8FvaFYUtlV25R4Yz6HkwZc1hrWOHAITPcCoa
NaYQTKjZnKKJiriFrk4+UvzKmd4ZWgHQYcmxX9jS6MzYJnoNI9gAVnDmVJb6WLcO
hZ6Byj0S1ZXI/u8b0/IzNqfehFrOz2Te+gpmZrUKGSa3nVu3OD+8SDuSiJEgPCSz
Od2tyvkxTZDWcGxe3d0sz8i4N2WkXeyfIEU2wFUk5U6wiQpTf6/eIuazCQdZBG3h
qwDXTYB61m5B386x1g27hTR8pFYrKc/hTACokhq6X3blAags/nBtbw86yz8DU6Wu
cOuT3mnJOVxWZcbsJU5tKDV5qW/KTbSMvxSIqGJjDx17rmV8TMRKozzD94ZcU2fh
YO8YhvbYa8Aa10vzWbUvyeW1+I1jKqlR5FUFbyoo4CngVkR8MrrT+RPn69ntxxQe
0kF7ww==
-----END CERTIFICATE-----
