Certificate:
    Data:
        Version: 3 (0x2)
        Serial Number: 20 (0x14)
        Signature Algorithm: sha256WithRSAEncryption
        Issuer: C=US, ST=CA, L=Stanford, O=BMIR, OU=CEDAR, CN=metadatacenter.orgx/emailAddress=metadatacenter@gmail.com
        Validity
            Not Before: Jan 18 00:50:46 2024 GMT
            Not After : Apr 21 00:50:46 2026 GMT
        Subject: C=US, ST=CA, O=BMIR, OU=CEDAR, CN=monitoring.metadatacenter.orgx/emailAddress=metadatacenter@gmail.com
        Subject Public Key Info:
            Public Key Algorithm: rsaEncryption
                RSA Public-Key: (2048 bit)
                Modulus:
                    00:e8:15:f4:24:1a:78:8e:8f:27:db:5d:49:01:e5:
                    4f:8b:7f:f4:11:f2:35:6e:fa:d1:1c:d8:5c:83:a9:
                    26:8e:d5:a9:31:e5:47:a4:30:79:e8:e5:4b:ef:30:
                    29:6f:81:a1:ba:c0:b1:f5:94:e7:72:98:37:76:54:
                    d0:4a:8a:09:77:a9:f6:b7:0e:4b:ce:eb:38:f0:22:
                    c5:94:f1:df:a8:6a:6b:db:04:a7:f1:d6:59:cd:9d:
                    e3:c2:34:c6:fa:00:cd:04:4c:5a:47:e5:11:18:e8:
                    90:f6:f9:60:fa:29:1c:f6:67:8a:e1:d5:e0:cf:f2:
                    57:be:65:92:bf:e3:fd:41:01:19:f3:ad:31:0e:ae:
                    55:8e:77:25:c5:87:b9:c3:99:1d:dd:e4:1e:3b:41:
                    b3:6b:fc:43:c1:61:c0:4a:cc:df:a7:63:82:30:f5:
                    13:db:37:2f:bc:21:cf:8c:ec:b3:8d:51:8b:f5:b3:
                    77:6e:07:aa:2d:6c:72:c2:64:17:05:a6:21:62:35:
                    dc:da:a5:72:5f:38:e7:a6:79:b1:0c:cc:f2:39:42:
                    f3:4d:0a:63:13:12:a4:fb:90:5c:f0:6f:97:80:bd:
                    a9:a5:f0:13:44:ba:35:8e:11:00:59:b4:97:ea:84:
                    6b:be:ff:1d:48:4f:78:da:9a:ae:1c:a6:e4:6f:37:
                    a5:79
                Exponent: 65537 (0x10001)
        X509v3 extensions:
            X509v3 Basic Constraints: 
                CA:FALSE
            X509v3 Key Usage: 
                Digital Signature, Non Repudiation, Key Encipherment
            X509v3 Subject Alternative Name: 
                DNS:monitoring.metadatacenter.orgx
    Signature Algorithm: sha256WithRSAEncryption
         61:a9:b1:c2:a1:44:5b:13:da:68:a9:32:e0:81:a7:f7:9d:35:
         0b:dc:8a:88:6d:73:65:ff:d4:ef:fc:6c:4b:b9:08:a5:6c:fc:
         4c:cc:c7:3a:9c:7b:13:0d:39:ea:f0:cc:86:98:ed:52:87:65:
         77:9d:6a:99:91:01:a0:c2:d5:2a:8c:3c:96:b9:1b:61:5b:ce:
         39:83:22:44:82:e4:6e:e9:5b:aa:6d:43:cd:3c:27:b4:45:d2:
         8d:47:e6:84:c4:e9:05:23:c3:49:1f:a9:6a:46:5c:cb:b8:1f:
         65:82:36:6c:c4:b7:bf:7b:91:89:2c:71:bc:b1:5f:0c:43:90:
         86:47:c5:6b:b9:26:44:8e:3f:4e:b7:14:f5:bf:19:4b:0c:9f:
         bb:6d:b1:ab:bb:40:75:69:c6:61:32:bf:f9:1f:06:38:19:2d:
         77:be:3b:6e:86:ec:41:4a:14:74:23:b0:10:1c:28:73:f7:d2:
         98:5c:e4:45:75:97:fd:5a:25:6f:28:12:4c:5c:cc:09:c1:68:
         42:d5:11:49:24:1e:74:36:e1:ae:7d:85:24:2b:a8:67:cd:b3:
         71:7f:ba:95:14:dc:3e:06:79:c2:1a:6f:59:e0:22:4d:9a:5e:
         5b:cc:2b:89:b9:84:bd:c8:2b:8d:e8:49:1f:14:27:8b:3e:c7:
         f4:fd:f7:b7:3c:90:43:57:40:96:e6:05:d4:5b:77:28:7c:cd:
         c3:d1:0a:19:6e:9c:aa:34:df:76:7d:56:e9:70:34:9f:fa:cd:
         75:a4:c9:55:ad:ef:14:35:16:6a:81:bd:db:74:19:77:f3:a8:
         1b:d5:b9:91:12:bc:11:7d:d0:b2:36:10:27:c4:f5:cb:51:4c:
         3b:98:8b:a5:3c:e6:d6:46:39:f4:fb:f0:97:2a:45:a2:3d:33:
         11:a7:a0:7f:72:60:7a:9b:7f:2f:6b:a2:0b:49:55:c7:d4:8b:
         35:78:72:bf:50:40:f9:ad:ab:55:2c:21:55:5c:05:ba:59:ec:
         ce:9a:de:05:31:8b:72:16:bc:bf:92:cc:6f:d1:2c:36:74:4c:
         c4:98:c7:30:1b:32:0f:e4:c8:6c:cc:94:62:20:bb:37:e4:eb:
         4e:44:34:1b:5a:d9:95:3d:95:b9:ad:77:0e:f5:60:e4:ec:8a:
         c9:b2:66:70:69:c7:51:f5:8f:f6:b0:58:d1:c1:15:60:82:68:
         5a:f6:9f:7e:1b:0f:5d:59:86:4c:72:73:bf:a6:55:b8:9e:fb:
         af:c6:4f:5f:f6:81:7c:e8:8f:d7:1c:f8:c3:75:6f:98:f4:21:
         bc:61:9b:5b:27:6b:5f:5b:21:01:f7:62:14:ad:5a:5d:d8:22:
         7d:c5:fb:a7:1e:fe:bc:4c
-----BEGIN CERTIFICATE-----
MIIE4DCCAsigAwIBAgIBFDANBgkqhkiG9w0BAQsFADCBkzELMAkGA1UEBhMCVVMx
CzAJBgNVBAgMAkNBMREwDwYDVQQHDAhTdGFuZm9yZDENMAsGA1UECgwEQk1JUjEO
MAwGA1UECwwFQ0VEQVIxHDAaBgNVBAMME21ldGFkYXRhY2VudGVyLm9yZ3gxJzAl
BgkqhkiG9w0BCQEWGG1ldGFkYXRhY2VudGVyQGdtYWlsLmNvbTAeFw0yNDAxMTgw
MDUwNDZaFw0yNjA0MjEwMDUwNDZaMIGLMQswCQYDVQQGEwJVUzELMAkGA1UECAwC
Q0ExDTALBgNVBAoMBEJNSVIxDjAMBgNVBAsMBUNFREFSMScwJQYDVQQDDB5tb25p
dG9yaW5nLm1ldGFkYXRhY2VudGVyLm9yZ3gxJzAlBgkqhkiG9w0BCQEWGG1ldGFk
YXRhY2VudGVyQGdtYWlsLmNvbTCCASIwDQYJKoZIhvcNAQEBBQADggEPADCCAQoC
ggEBAOgV9CQaeI6PJ9tdSQHlT4t/9BHyNW760RzYXIOpJo7VqTHlR6QweejlS+8w
KW+BobrAsfWU53KYN3ZU0EqKCXep9rcOS87rOPAixZTx36hqa9sEp/HWWc2d48I0
xvoAzQRMWkflERjokPb5YPopHPZniuHV4M/yV75lkr/j/UEBGfOtMQ6uVY53JcWH
ucOZHd3kHjtBs2v8Q8FhwErM36djgjD1E9s3L7whz4zss41Ri/Wzd24Hqi1scsJk
FwWmIWI13Nqlcl8456Z5sQzM8jlC800KYxMSpPuQXPBvl4C9qaXwE0S6NY4RAFm0
l+qEa77/HUhPeNqarhym5G83pXkCAwEAAaNFMEMwCQYDVR0TBAIwADALBgNVHQ8E
BAMCBeAwKQYDVR0RBCIwIIIebW9uaXRvcmluZy5tZXRhZGF0YWNlbnRlci5vcmd4
MA0GCSqGSIb3DQEBCwUAA4ICAQBhqbHCoURbE9poqTLggaf3nTUL3IqIbXNl/9Tv
/GxLuQilbPxMzMc6nHsTDTnq8MyGmO1Sh2V3nWqZkQGgwtUqjDyWuRthW845gyJE
guRu6VuqbUPNPCe0RdKNR+aExOkFI8NJH6lqRlzLuB9lgjZsxLe/e5GJLHG8sV8M
Q5CGR8VruSZEjj9OtxT1vxlLDJ+7bbGru0B1acZhMr/5HwY4GS13vjtuhuxBShR0
I7AQHChz99KYXORFdZf9WiVvKBJMXMwJwWhC1RFJJB50NuGufYUkK6hnzbNxf7qV
FNw+BnnCGm9Z4CJNml5bzCuJuYS9yCuN6EkfFCeLPsf0/fe3PJBDV0CW5gXUW3co
fM3D0QoZbpyqNN92fVbpcDSf+s11pMlVre8UNRZqgb3bdBl386gb1bmRErwRfdCy
NhAnxPXLUUw7mIulPObWRjn0+/CXKkWiPTMRp6B/cmB6m38va6ILSVXH1Is1eHK/
UED5ratVLCFVXAW6WezOmt4FMYtyFry/ksxv0Sw2dEzEmMcwGzIP5MhszJRiILs3
5OtORDQbWtmVPZW5rXcO9WDk7IrJsmZwacdR9Y/2sFjRwRVggmha9p9+Gw9dWYZM
cnO/plW4nvuvxk9f9oF86I/XHPjDdW+Y9CG8YZtbJ2tfWyEB92IUrVpd2CJ9xfun
Hv68TA==
-----END CERTIFICATE-----
