Certificate:
    Data:
        Version: 3 (0x2)
        Serial Number: 6 (0x6)
        Signature Algorithm: sha256WithRSAEncryption
        Issuer: C=US, ST=CA, L=Stanford, O=BMIR, OU=CEDAR, CN=metadatacenter.orgx/emailAddress=metadatacenter@gmail.com
        Validity
            Not Before: Jan 17 21:50:43 2024 GMT
            Not After : Apr 20 21:50:43 2026 GMT
        Subject: C=US, ST=CA, O=BMIR, OU=CEDAR, CN=messaging.metadatacenter.orgx/emailAddress=metadatacenter@gmail.com
        Subject Public Key Info:
            Public Key Algorithm: rsaEncryption
                RSA Public-Key: (2048 bit)
                Modulus:
                    00:ba:b9:4a:7b:c3:87:e3:c8:1a:0f:3c:20:64:0b:
                    20:48:58:2e:9c:5a:90:98:ec:5d:27:d8:46:80:0f:
                    53:7d:20:1f:04:df:d3:10:6b:34:9f:4d:98:8d:4d:
                    35:7e:5c:d3:a4:dc:50:f2:21:2d:b8:d8:ad:24:93:
                    18:b6:cc:50:3f:63:bf:cd:5c:22:64:e7:98:30:bb:
                    5a:50:a9:53:ab:1e:96:51:05:a4:ca:80:d9:1a:da:
                    db:a4:6c:be:78:b3:64:16:a8:92:84:f5:a9:4f:a4:
                    b7:d5:b2:24:a5:13:06:e5:00:a0:92:21:63:c6:c9:
                    96:05:25:04:84:a3:4e:ea:eb:f7:88:d3:a9:1b:af:
                    d6:82:d0:5f:a7:39:49:ed:fc:d1:56:7e:42:af:88:
                    cc:91:05:33:b1:7a:fb:15:bc:c0:14:10:2f:52:fd:
                    2f:08:c8:ae:6b:12:54:d2:47:a2:7c:fa:dd:5b:ad:
                    9a:52:0d:e7:e4:97:7c:88:51:90:0d:29:42:06:fb:
                    e6:29:96:f6:a1:fd:d1:d8:08:c8:09:51:8d:27:fa:
                    73:04:40:24:3c:29:02:59:1b:1c:2b:f8:85:9a:53:
                    59:cd:94:75:6c:26:d3:66:9e:57:ac:a9:c5:01:37:
                    8d:f5:9d:d4:1c:29:99:93:d5:ca:e0:00:0c:c8:3e:
                    51:3b
                Exponent: 65537 (0x10001)
        X509v3 extensions:
            X509v3 Basic Constraints: 
                CA:FALSE
            X509v3 Key Usage: 
                Digital Signature, Non Repudiation, Key Encipherment
            X509v3 Subject Alternative Name: 
                DNS:messaging.metadatacenter.orgx
    Signature Algorithm: sha256WithRSAEncryption
         7b:d4:d0:1f:00:50:80:37:41:73:45:6d:78:c3:29:aa:c3:3e:
         50:fe:0e:b9:c8:8d:04:2b:63:68:24:7e:49:6e:c1:30:a9:62:
         ee:6e:4c:99:d2:0c:7c:e1:92:b7:fd:52:0d:4c:5b:ea:e1:b5:
         35:8f:41:ce:6e:eb:24:48:b6:b0:68:9e:f5:ec:36:43:ab:a6:
         17:6e:d6:6e:33:8f:1c:cc:c1:6b:28:3a:3a:2c:7f:a1:fb:73:
         72:12:5f:ed:75:20:34:cd:3f:0f:61:c5:dd:48:d5:59:e9:a3:
         fe:14:03:81:58:b0:2a:8a:a4:86:8f:9d:4b:02:72:ca:b6:6d:
         dd:08:73:a9:b6:8b:a1:7c:6d:9d:92:62:fd:89:72:8a:c7:5e:
         aa:54:c9:9c:4e:6b:e8:59:d7:c1:51:c4:6e:3f:29:6e:8f:99:
         2e:e5:94:dc:12:b5:ae:a0:f5:ca:0b:51:74:7f:cb:32:8d:c4:
         6c:bc:b4:c3:75:34:2d:0f:87:e8:b7:90:f8:2c:43:3c:70:7b:
         2a:2c:5b:76:c8:cc:94:17:9c:da:02:9c:fa:83:e5:07:5a:2e:
         18:a2:2e:21:71:61:58:8a:3f:5e:f9:59:4c:9b:65:01:24:f4:
         14:3f:8e:61:d1:48:e9:74:40:6a:b9:5b:9d:e6:76:30:8f:42:
         02:5f:09:f2:64:b1:a0:11:a7:e4:f9:cb:28:8a:66:04:a5:df:
         60:5c:9c:58:b0:c9:59:f8:ea:26:38:ba:27:51:86:38:ec:ed:
         ed:ac:76:c0:42:9c:34:66:64:4e:ba:cb:60:fd:e8:5d:d7:34:
         96:63:66:84:a6:bf:c5:fa:63:69:eb:4e:74:5a:e0:04:29:33:
         f6:a2:af:36:89:e5:be:74:c8:06:40:3d:56:5e:24:67:74:9f:
         06:b0:9b:44:6d:c6:f8:cf:af:67:6f:c1:12:2f:34:9b:30:10:
         b5:c0:23:6e:ae:63:5b:82:a2:e9:76:6f:b0:17:71:ce:24:44:
         ba:69:ab:4b:dd:4b:51:92:5f:87:1c:2a:fe:07:e3:8a:7f:90:
         57:0a:3e:1d:42:3f:6e:84:42:4c:9a:04:2e:50:21:ff:30:e4:
         32:6d:df:35:d2:42:53:c1:db:2e:f5:5b:5f:97:6d:12:29:f6:
         67:e8:a7:90:b3:65:d8:19:71:a5:c8:8e:be:3e:42:2d:01:51:
         ea:05:29:b6:a6:16:73:6d:4f:87:38:d5:a1:f8:05:d8:f2:89:
         86:67:b5:c7:31:b1:2d:79:07:72:2d:70:65:77:96:6f:28:9f:
         db:8b:24:a6:4b:53:82:81:6e:77:a1:76:ee:5c:d5:57:51:20:
         19:39:08:2a:3f:f1:0f:ed
-----BEGIN CERTIFICATE-----
MIIE3jCCAsagAwIBAgIBBjANBgkqhkiG9w0BAQsFADCBkzELMAkGA1UEBhMCVVMx
CzAJBgNVBAgMAkNBMREwDwYDVQQHDAhTdGFuZm9yZDENMAsGA1UECgwEQk1JUjEO
MAwGA1UECwwFQ0VEQVIxHDAaBgNVBAMME21ldGFkYXRhY2VudGVyLm9yZ3gxJzAl
BgkqhkiG9w0BCQEWGG1ldGFkYXRhY2VudGVyQGdtYWlsLmNvbTAeFw0yNDAxMTcy
MTUwNDNaFw0yNjA0MjAyMTUwNDNaMIGKMQswCQYDVQQGEwJVUzELMAkGA1UECAwC
Q0ExDTALBgNVBAoMBEJNSVIxDjAMBgNVBAsMBUNFREFSMSYwJAYDVQQDDB1tZXNz
YWdpbmcubWV0YWRhdGFjZW50ZXIub3JneDEnMCUGCSqGSIb3DQEJARYYbWV0YWRh
dGFjZW50ZXJAZ21haWwuY29tMIIBIjANBgkqhkiG9w0BAQEFAAOCAQ8AMIIBCgKC
AQEAurlKe8OH48gaDzwgZAsgSFgunFqQmOxdJ9hGgA9TfSAfBN/TEGs0n02YjU01
flzTpNxQ8iEtuNitJJMYtsxQP2O/zVwiZOeYMLtaUKlTqx6WUQWkyoDZGtrbpGy+
eLNkFqiShPWpT6S31bIkpRMG5QCgkiFjxsmWBSUEhKNO6uv3iNOpG6/WgtBfpzlJ
7fzRVn5Cr4jMkQUzsXr7FbzAFBAvUv0vCMiuaxJU0keifPrdW62aUg3n5Jd8iFGQ
DSlCBvvmKZb2of3R2AjICVGNJ/pzBEAkPCkCWRscK/iFmlNZzZR1bCbTZp5XrKnF
ATeN9Z3UHCmZk9XK4AAMyD5ROwIDAQABo0QwQjAJBgNVHRMEAjAAMAsGA1UdDwQE
AwIF4DAoBgNVHREEITAfgh1tZXNzYWdpbmcubWV0YWRhdGFjZW50ZXIub3JneDAN
BgkqhkiG9w0BAQsFAAOCAgEAe9TQHwBQgDdBc0VteMMpqsM+UP4OuciNBCtjaCR+
SW7BMKli7m5MmdIMfOGSt/1SDUxb6uG1NY9Bzm7rJEi2sGie9ew2Q6umF27WbjOP
HMzBayg6Oix/oftzchJf7XUgNM0/D2HF3UjVWemj/hQDgViwKoqkho+dSwJyyrZt
3QhzqbaLoXxtnZJi/YlyisdeqlTJnE5r6FnXwVHEbj8pbo+ZLuWU3BK1rqD1ygtR
dH/LMo3EbLy0w3U0LQ+H6LeQ+CxDPHB7KixbdsjMlBec2gKc+oPlB1ouGKIuIXFh
WIo/XvlZTJtlAST0FD+OYdFI6XRAarlbneZ2MI9CAl8J8mSxoBGn5PnLKIpmBKXf
YFycWLDJWfjqJji6J1GGOOzt7ax2wEKcNGZkTrrLYP3oXdc0lmNmhKa/xfpjaetO
dFrgBCkz9qKvNonlvnTIBkA9Vl4kZ3SfBrCbRG3G+M+vZ2/BEi80mzAQtcAjbq5j
W4Ki6XZvsBdxziREummrS91LUZJfhxwq/gfjin+QVwo+HUI/boRCTJoELlAh/zDk
Mm3fNdJCU8HbLvVbX5dtEin2Z+inkLNl2BlxpciOvj5CLQFR6gUptqYWc21PhzjV
ofgF2PKJhme1xzGxLXkHci1wZXeWbyif24skpktTgoFud6F27lzVV1EgGTkIKj/x
D+0=
-----END CERTIFICATE-----
