Certificate:
    Data:
        Version: 3 (0x2)
        Serial Number: 3 (0x3)
        Signature Algorithm: sha256WithRSAEncryption
        Issuer: C=US, ST=CA, L=Stanford, O=BMIR, OU=CEDAR, CN=metadatacenter.orgx/emailAddress=metadatacenter@gmail.com
        Validity
            Not Before: Jan 18 00:50:44 2024 GMT
            Not After : Apr 21 00:50:44 2026 GMT
        Subject: C=US, ST=CA, O=BMIR, OU=CEDAR, CN=bridge.metadatacenter.orgx/emailAddress=metadatacenter@gmail.com
        Subject Public Key Info:
            Public Key Algorithm: rsaEncryption
                RSA Public-Key: (2048 bit)
                Modulus:
                    00:d2:48:75:9f:76:f0:d4:f3:b3:95:9a:cf:1e:2b:
                    af:a5:2a:80:28:f9:9c:cf:ff:56:a7:e0:36:0e:b3:
                    ee:0b:72:e8:c6:be:98:d5:b8:33:a9:f1:1a:aa:c4:
                    77:21:b2:bd:0e:55:3c:dc:45:ec:f4:72:1f:29:10:
                    36:71:cc:58:4f:af:ec:6a:52:1a:fe:b3:b0:23:8f:
                    81:74:c4:af:a9:dc:a0:b8:df:76:c3:aa:2d:66:e0:
                    1c:4b:3d:0a:a1:ff:60:f8:74:d4:b0:73:d6:55:f0:
                    fd:6e:0e:84:54:52:bd:f5:c9:4e:b0:4e:f9:a9:fc:
                    4c:37:5b:b0:47:52:f8:80:37:0f:e4:ed:51:14:92:
                    2e:e4:30:f5:60:a9:07:e6:3c:7f:51:39:c1:06:f1:
                    08:9f:a8:f4:29:8d:7d:a7:ac:fe:d0:61:2d:04:ac:
                    cc:1b:7a:c2:89:56:50:00:a5:99:d7:e0:67:c9:36:
                    9d:91:05:d3:13:8c:66:a4:35:d7:04:e9:94:df:8d:
                    e1:dc:d0:66:83:2e:1b:c9:b8:1f:b0:be:6a:d8:0a:
                    ca:f1:44:f4:47:45:f0:6d:56:7e:31:0f:b7:0f:54:
                    26:64:c9:b7:69:90:83:47:2b:00:88:a9:0e:59:49:
                    41:d6:9f:a1:a4:98:b6:06:02:2f:65:e6:35:f1:7d:
                    fb:79
                Exponent: 65537 (0x10001)
        X509v3 extensions:
            X509v3 Basic Constraints: 
                CA:FALSE
            X509v3 Key Usage: 
                Digital Signature, Non Repudiation, Key Encipherment
            X509v3 Subject Alternative Name: 
                DNS:bridge.metadatacenter.orgx
    Signature Algorithm: sha256WithRSAEncryption
         7c:c9:0a:0e:7d:d4:90:81:7e:07:13:cb:bf:52:ee:bb:d4:94:
         d9:1b:5c:f7:02:99:9a:49:89:a1:df:42:14:9b:22:5c:63:36:
         3a:64:b6:b3:e1:51:68:f2:b9:a9:d0:92:f8:40:92:77:4b:be:
         4c:12:ca:5c:90:cb:ea:42:8e:88:67:fa:31:6d:7c:32:ad:fb:
         7f:d3:c2:b8:d6:df:7a:fa:a0:6a:59:06:5f:dd:cf:a8:44:5e:
         51:95:77:e0:5f:e1:76:a5:cc:49:f8:d8:54:e7:58:00:8d:29:
         a1:ff:6e:da:a8:54:7b:5b:ca:f6:09:ce:e4:85:b2:56:4a:1d:
         4f:3b:b1:85:21:32:21:56:e6:82:76:ea:f5:fb:e8:b5:75:c2:
         66:89:06:27:e3:62:c3:8b:70:12:9d:35:25:31:98:18:27:d4:
         c2:33:d8:61:6d:4b:bc:08:ca:c7:b6:35:e7:bf:a5:4a:ff:50:
         93:a5:0c:f8:02:a3:cd:25:02:0f:c5:8d:82:97:0b:46:4a:19:
         54:a8:cb:ba:a4:0c:22:8c:7a:72:d4:a9:4a:f2:a3:83:98:52:
         a7:80:23:ea:82:d9:6d:3e:6e:b2:c7:47:42:67:97:f3:56:0e:
         59:81:87:8f:be:13:50:29:52:3e:5a:af:1a:68:f2:c6:d8:f5:
         fe:3b:41:8e:33:1c:3d:65:80:a9:b7:f9:67:d7:2a:ca:9f:12:
         e7:84:db:83:f4:df:c8:69:c7:36:95:6e:7f:fb:00:0c:8f:8d:
         8b:7d:0b:f5:ae:87:aa:96:dd:5c:f5:87:c0:0a:13:c6:ef:33:
         c2:19:d2:02:92:0f:f6:a5:1e:8b:c2:98:a9:00:54:06:b2:58:
         db:33:76:41:e3:47:b5:21:de:31:1f:ee:2d:08:b6:ae:d0:23:
         be:c4:18:56:7f:b3:21:3d:02:ee:57:98:30:42:b1:3c:fe:08:
         34:7a:20:bc:58:63:b4:7d:3c:be:d3:9d:9f:88:07:b6:61:dd:
         1c:1f:2f:fb:65:e6:e1:3f:61:3b:df:83:e6:93:de:e7:dd:04:
         e9:c6:98:6d:ef:45:06:60:37:0a:2d:11:35:9f:aa:fd:cb:95:
         92:98:fa:8e:87:0c:35:93:d1:67:5b:bd:72:4d:61:0d:6f:c6:
         07:b0:6b:ca:f3:96:3e:f3:f3:05:36:2a:4d:30:51:41:f2:94:
         4d:b4:79:5f:be:d2:b0:f5:63:b6:ea:52:85:0a:e4:b2:0f:2d:
         6f:44:14:83:f3:8e:fd:86:80:42:56:6d:4a:f6:81:3f:3c:e5:
         87:b7:56:46:43:50:ce:13:29:a9:36:46:a0:9f:d5:cd:11:0c:
         37:79:ce:ac:d0:b5:e8:1b
-----BEGIN CERTIFICATE-----
MIIE2DCCAsCgAwIBAgIBAzANBgkqhkiG9w0BAQsFADCBkzELMAkGA1UEBhMCVVMx
CzAJBgNVBAgMAkNBMREwDwYDVQQHDAhTdGFuZm9yZDENMAsGA1UECgwEQk1JUjEO
MAwGA1UECwwFQ0VEQVIxHDAaBgNVBAMME21ldGFkYXRhY2VudGVyLm9yZ3gxJzAl
BgkqhkiG9w0BCQEWGG1ldGFkYXRhY2VudGVyQGdtYWlsLmNvbTAeFw0yNDAxMTgw
MDUwNDRaFw0yNjA0MjEwMDUwNDRaMIGHMQswCQYDVQQGEwJVUzELMAkGA1UECAwC
Q0ExDTALBgNVBAoMBEJNSVIxDjAMBgNVBAsMBUNFREFSMSMwIQYDVQQDDBpicmlk
Z2UubWV0YWRhdGFjZW50ZXIub3JneDEnMCUGCSqGSIb3DQEJARYYbWV0YWRhdGFj
ZW50ZXJAZ21haWwuY29tMIIBIjANBgkqhkiG9w0BAQEFAAOCAQ8AMIIBCgKCAQEA
0kh1n3bw1POzlZrPHiuvpSqAKPmcz/9Wp+A2DrPuC3Loxr6Y1bgzqfEaqsR3IbK9
DlU83EXs9HIfKRA2ccxYT6/salIa/rOwI4+BdMSvqdyguN92w6otZuAcSz0Kof9g
+HTUsHPWVfD9bg6EVFK99clOsE75qfxMN1uwR1L4gDcP5O1RFJIu5DD1YKkH5jx/
UTnBBvEIn6j0KY19p6z+0GEtBKzMG3rCiVZQAKWZ1+BnyTadkQXTE4xmpDXXBOmU
343h3NBmgy4bybgfsL5q2ArK8UT0R0XwbVZ+MQ+3D1QmZMm3aZCDRysAiKkOWUlB
1p+hpJi2BgIvZeY18X37eQIDAQABo0EwPzAJBgNVHRMEAjAAMAsGA1UdDwQEAwIF
4DAlBgNVHREEHjAcghpicmlkZ2UubWV0YWRhdGFjZW50ZXIub3JneDANBgkqhkiG
9w0BAQsFAAOCAgEAfMkKDn3UkIF+BxPLv1Luu9SU2Rtc9wKZmkmJod9CFJsiXGM2
OmS2s+FRaPK5qdCS+ECSd0u+TBLKXJDL6kKOiGf6MW18Mq37f9PCuNbfevqgalkG
X93PqEReUZV34F/hdqXMSfjYVOdYAI0pof9u2qhUe1vK9gnO5IWyVkodTzuxhSEy
IVbmgnbq9fvotXXCZokGJ+Niw4twEp01JTGYGCfUwjPYYW1LvAjKx7Y157+lSv9Q
k6UM+AKjzSUCD8WNgpcLRkoZVKjLuqQMIox6ctSpSvKjg5hSp4Aj6oLZbT5ussdH
QmeX81YOWYGHj74TUClSPlqvGmjyxtj1/jtBjjMcPWWAqbf5Z9cqyp8S54Tbg/Tf
yGnHNpVuf/sADI+Ni30L9a6HqpbdXPWHwAoTxu8zwhnSApIP9qUei8KYqQBUBrJY
2zN2QeNHtSHeMR/uLQi2rtAjvsQYVn+zIT0C7leYMEKxPP4INHogvFhjtH08vtOd
n4gHtmHdHB8v+2Xm4T9hO9+D5pPe590E6caYbe9FBmA3Ci0RNZ+q/cuVkpj6jocM
NZPRZ1u9ck1hDW/GB7BryvOWPvPzBTYqTTBRQfKUTbR5X77SsPVjtupShQrksg8t
b0QUg/OO/YaAQlZtSvaBPzzlh7dWRkNQzhMpqTZGoJ/VzREMN3nOrNC16Bs=
-----END CERTIFICATE-----
