Certificate:
    Data:
        Version: 3 (0x2)
        Serial Number: 1 (0x1)
        Signature Algorithm: sha256WithRSAEncryption
        Issuer: C=US, ST=CA, L=Stanford, O=BMIR, OU=CEDAR, CN=metadatacenter.orgx/emailAddress=metadatacenter@gmail.com
        Validity
            Not Before: Jan 18 01:27:06 2023 GMT
            Not After : Apr 21 01:27:06 2025 GMT
        Subject: C=US, ST=CA, O=BMIR, OU=CEDAR, CN=auth.metadatacenter.orgx/emailAddress=metadatacenter@gmail.com
        Subject Public Key Info:
            Public Key Algorithm: rsaEncryption
                RSA Public-Key: (2048 bit)
                Modulus:
                    00:ea:a0:b8:c9:a0:27:7e:e2:c9:77:92:28:8e:31:
                    f8:cf:5f:32:90:ec:42:84:11:22:c0:17:da:e2:78:
                    96:b8:42:32:ab:0b:67:53:11:f3:a3:19:69:36:86:
                    a6:ca:4f:55:85:73:8b:bd:37:a0:f3:49:7f:c6:18:
                    8c:f8:8d:38:71:93:07:50:11:39:99:02:da:8f:e4:
                    13:33:f8:f2:1a:7f:c8:da:79:18:fd:57:2a:ef:9f:
                    40:ef:cb:ce:20:95:99:75:f2:22:b8:da:27:19:99:
                    52:07:70:3f:0c:3c:6b:1c:62:a7:2c:6b:ee:18:b7:
                    93:4f:59:66:3c:53:9f:70:75:92:2b:1d:c3:f5:1b:
                    81:86:20:12:f9:9a:95:41:80:cf:95:48:f7:4a:75:
                    da:73:3a:c6:4b:f4:b4:fd:d4:ef:0e:7f:30:58:b7:
                    fa:16:98:14:0f:9c:b0:33:2e:fa:4d:cf:90:cc:ef:
                    d3:2c:c1:8e:b6:52:90:d5:e2:1b:fe:3a:b0:a8:4a:
                    7b:7e:9a:d7:59:09:7f:31:84:5b:10:82:57:c2:be:
                    10:36:4d:9c:f2:66:98:0c:da:24:eb:19:32:52:1a:
                    9e:f9:bc:3c:dc:4f:2b:ff:48:b1:0d:9b:67:58:b1:
                    92:33:f5:58:b4:63:fa:84:24:71:9b:59:a7:96:af:
                    f0:0b
                Exponent: 65537 (0x10001)
        X509v3 extensions:
            X509v3 Basic Constraints: 
                CA:FALSE
            X509v3 Key Usage: 
                Digital Signature, Non Repudiation, Key Encipherment
            X509v3 Subject Alternative Name: 
                DNS:auth.metadatacenter.orgx
    Signature Algorithm: sha256WithRSAEncryption
         75:cf:d0:34:00:dc:24:39:9e:5d:32:54:3c:af:cb:f9:9a:bb:
         82:9f:bb:27:c3:db:21:22:31:09:2e:5d:ff:2a:a3:ba:a8:f3:
         dc:de:be:61:06:be:0a:5c:03:5e:b1:74:87:30:90:27:e8:a6:
         c3:54:ca:17:78:6b:c3:de:8c:32:a8:6c:91:ef:a7:a6:cf:b8:
         9c:5d:61:02:32:39:41:bc:e4:ea:4f:a8:8f:5b:d9:f4:78:3c:
         3f:45:5a:8c:a4:65:07:47:3d:01:ad:30:1f:21:aa:76:51:3d:
         ec:bb:23:95:4c:6d:0c:aa:77:93:06:18:ab:3e:0a:91:8e:74:
         d1:2c:06:04:05:10:49:7f:f1:d8:6e:d1:62:97:f7:97:3c:bd:
         43:36:4b:ec:07:91:9e:dc:2f:cf:1d:0f:ce:53:82:d8:c1:91:
         d1:77:8b:65:60:20:98:a4:c3:3e:05:3f:08:a2:fa:6e:88:4c:
         8f:cc:54:0a:14:66:54:51:28:10:9e:39:9d:7c:ec:a9:5b:4f:
         c8:e8:a7:1f:09:5c:11:75:0e:4f:fd:60:b6:c2:0a:15:9c:2a:
         19:f7:ad:cd:0d:a8:44:aa:72:1d:35:2f:80:3a:f6:ee:b2:1e:
         2e:f6:ff:66:d0:c1:e4:30:3a:f0:07:5c:4f:5e:c5:d2:f4:b1:
         db:0f:39:8f:a4:d2:92:51:39:51:1e:ad:d6:40:16:3f:6f:f9:
         1d:52:18:de:91:d4:0b:36:e0:23:2b:37:b3:bc:4f:b6:0e:db:
         b1:c3:dc:c8:39:0e:c2:6b:73:4e:f5:11:4a:0c:8c:36:9c:6e:
         37:2d:97:44:80:96:4f:c1:26:e3:fa:96:30:ef:77:77:52:ae:
         0e:f4:1f:0a:a1:2e:14:c5:5c:93:c7:4b:20:e2:65:53:f8:a9:
         72:4f:3e:f8:ce:23:9f:86:1d:a7:1f:43:8e:a8:d9:6b:10:fd:
         7d:79:93:12:de:21:7c:d3:ea:b7:5d:e9:8f:8b:9d:c8:4b:f4:
         47:a6:69:ed:f9:51:ef:cd:39:4d:9b:8d:54:a9:2d:66:18:95:
         8b:0f:56:67:d2:68:d6:95:68:5f:f2:65:ba:10:40:3e:01:19:
         87:70:6f:31:cd:45:a8:f5:b8:2b:e2:d3:fd:72:60:6d:07:b8:
         6a:e5:06:b4:af:14:eb:e9:e7:61:ac:29:eb:71:74:64:63:f2:
         1c:7b:87:a2:c8:38:b5:bc:4f:1f:12:40:e7:fa:bf:4c:9e:4d:
         12:02:47:ce:3d:89:4f:44:e5:ac:82:62:0b:af:ec:b9:45:ea:
         e2:87:cc:e8:5d:59:c2:eb:22:7a:40:59:e0:52:1e:19:b2:d3:
         62:ca:14:e9:10:a1:f4:b7
-----BEGIN CERTIFICATE-----
MIIE1DCCArygAwIBAgIBATANBgkqhkiG9w0BAQsFADCBkzELMAkGA1UEBhMCVVMx
CzAJBgNVBAgMAkNBMREwDwYDVQQHDAhTdGFuZm9yZDENMAsGA1UECgwEQk1JUjEO
MAwGA1UECwwFQ0VEQVIxHDAaBgNVBAMME21ldGFkYXRhY2VudGVyLm9yZ3gxJzAl
BgkqhkiG9w0BCQEWGG1ldGFkYXRhY2VudGVyQGdtYWlsLmNvbTAeFw0yMzAxMTgw
MTI3MDZaFw0yNTA0MjEwMTI3MDZaMIGFMQswCQYDVQQGEwJVUzELMAkGA1UECAwC
Q0ExDTALBgNVBAoMBEJNSVIxDjAMBgNVBAsMBUNFREFSMSEwHwYDVQQDDBhhdXRo
Lm1ldGFkYXRhY2VudGVyLm9yZ3gxJzAlBgkqhkiG9w0BCQEWGG1ldGFkYXRhY2Vu
dGVyQGdtYWlsLmNvbTCCASIwDQYJKoZIhvcNAQEBBQADggEPADCCAQoCggEBAOqg
uMmgJ37iyXeSKI4x+M9fMpDsQoQRIsAX2uJ4lrhCMqsLZ1MR86MZaTaGpspPVYVz
i703oPNJf8YYjPiNOHGTB1AROZkC2o/kEzP48hp/yNp5GP1XKu+fQO/LziCVmXXy
IrjaJxmZUgdwPww8axxipyxr7hi3k09ZZjxTn3B1kisdw/UbgYYgEvmalUGAz5VI
90p12nM6xkv0tP3U7w5/MFi3+haYFA+csDMu+k3PkMzv0yzBjrZSkNXiG/46sKhK
e36a11kJfzGEWxCCV8K+EDZNnPJmmAzaJOsZMlIanvm8PNxPK/9IsQ2bZ1ixkjP1
WLRj+oQkcZtZp5av8AsCAwEAAaM/MD0wCQYDVR0TBAIwADALBgNVHQ8EBAMCBeAw
IwYDVR0RBBwwGoIYYXV0aC5tZXRhZGF0YWNlbnRlci5vcmd4MA0GCSqGSIb3DQEB
CwUAA4ICAQB1z9A0ANwkOZ5dMlQ8r8v5mruCn7snw9shIjEJLl3/KqO6qPPc3r5h
Br4KXANesXSHMJAn6KbDVMoXeGvD3owyqGyR76emz7icXWECMjlBvOTqT6iPW9n0
eDw/RVqMpGUHRz0BrTAfIap2UT3suyOVTG0MqneTBhirPgqRjnTRLAYEBRBJf/HY
btFil/eXPL1DNkvsB5Ge3C/PHQ/OU4LYwZHRd4tlYCCYpMM+BT8IovpuiEyPzFQK
FGZUUSgQnjmdfOypW0/I6KcfCVwRdQ5P/WC2wgoVnCoZ963NDahEqnIdNS+AOvbu
sh4u9v9m0MHkMDrwB1xPXsXS9LHbDzmPpNKSUTlRHq3WQBY/b/kdUhjekdQLNuAj
KzezvE+2Dtuxw9zIOQ7Ca3NO9RFKDIw2nG43LZdEgJZPwSbj+pYw73d3Uq4O9B8K
oS4UxVyTx0sg4mVT+KlyTz74ziOfhh2nH0OOqNlrEP19eZMS3iF80+q3XemPi53I
S/RHpmnt+VHvzTlNm41UqS1mGJWLD1Zn0mjWlWhf8mW6EEA+ARmHcG8xzUWo9bgr
4tP9cmBtB7hq5Qa0rxTr6edhrCnrcXRkY/Ice4eiyDi1vE8fEkDn+r9Mnk0SAkfO
PYlPROWsgmILr+y5Rerih8zoXVnC6yJ6QFngUh4ZstNiyhTpEKH0tw==
-----END CERTIFICATE-----
