Certificate:
    Data:
        Version: 3 (0x2)
        Serial Number: 9 (0x9)
        Signature Algorithm: sha256WithRSAEncryption
        Issuer: C=US, ST=CA, L=Stanford, O=BMIR, OU=CEDAR, CN=metadatacenter.orgx/emailAddress=metadatacenter@gmail.com
        Validity
            Not Before: Jan 18 18:39:55 2023 GMT
            Not After : Apr 21 18:39:55 2025 GMT
        Subject: C=US, ST=CA, O=BMIR, OU=CEDAR, CN=metadatacenter.orgx/emailAddress=metadatacenter@gmail.com
        Subject Public Key Info:
            Public Key Algorithm: rsaEncryption
                RSA Public-Key: (2048 bit)
                Modulus:
                    00:d1:02:6c:d6:11:d9:ba:d0:6a:3e:18:a9:e3:0a:
                    20:9a:bc:0e:5c:09:96:c6:0e:7d:8e:fa:69:d3:6c:
                    d1:50:a8:a7:71:6e:74:fb:85:64:1f:ae:e6:ac:ce:
                    05:72:af:e0:3f:e5:95:de:f8:ee:6d:f3:b7:51:cb:
                    af:e5:14:d7:ae:c3:c7:c2:3f:e1:e4:55:5c:7c:6f:
                    71:99:b0:f8:f3:9a:fe:d0:ad:77:3d:1b:67:13:f0:
                    78:e0:59:4b:aa:46:d3:28:b1:3b:44:95:62:46:b8:
                    a8:d5:19:4e:21:b8:1c:13:7e:db:c6:95:b6:61:26:
                    6f:5c:30:61:e3:4e:3b:d5:67:9b:88:50:be:e7:09:
                    d0:b6:41:7f:44:6d:cc:b7:f2:66:35:26:a5:65:fe:
                    bb:26:1a:cd:ed:79:0d:be:32:9c:35:50:42:a6:9d:
                    20:d9:4d:8a:12:33:8d:72:6e:61:8d:b3:8a:b7:d2:
                    05:34:8a:f9:d3:60:3f:05:08:f4:b0:b8:27:4b:e7:
                    16:20:0f:2e:c9:b8:67:b6:36:b5:20:c1:5f:1b:d7:
                    4a:c7:57:53:8c:a4:ca:99:ea:9d:5b:13:28:1f:d6:
                    3c:80:e5:b2:2e:42:84:7f:a7:0f:50:47:7c:65:50:
                    b9:2b:85:e9:f0:01:73:ff:53:70:61:98:aa:63:24:
                    85:e1
                Exponent: 65537 (0x10001)
        X509v3 extensions:
            X509v3 Basic Constraints: 
                CA:FALSE
            X509v3 Key Usage: 
                Digital Signature, Non Repudiation, Key Encipherment
            X509v3 Subject Alternative Name: 
                DNS:metadatacenter.orgx
    Signature Algorithm: sha256WithRSAEncryption
         09:33:15:86:d5:c5:ad:47:7a:68:ab:9b:a3:c0:bf:be:d1:0e:
         25:08:b6:75:18:ac:9c:b2:29:ae:3b:d1:92:b8:bb:3f:b1:08:
         f9:43:dc:aa:11:7d:bd:0f:c7:d5:69:4e:35:63:d7:80:f5:ba:
         b4:46:01:ab:cc:b4:f3:68:73:b4:05:8f:65:65:b3:2f:86:f0:
         ee:b7:a8:d8:8d:1c:90:aa:38:c7:83:f3:eb:c5:d5:bc:3d:fd:
         e1:39:22:d5:a8:36:e6:75:63:a2:27:b0:89:2b:4a:4d:ac:11:
         5e:34:3b:06:23:35:65:70:cd:ac:18:bf:04:0d:0d:88:15:46:
         39:23:b6:af:e0:61:59:26:1e:77:44:d6:a7:e2:4b:fd:b4:a3:
         2c:99:8b:a3:33:71:61:a6:05:0f:31:1d:bb:53:75:8e:58:1b:
         f5:8c:81:bb:f4:e7:bd:96:ae:2b:81:44:71:d1:e7:f1:6d:11:
         91:51:8a:5a:90:8f:34:3b:c9:3d:c3:02:21:4e:fa:27:e9:ad:
         80:d4:27:f9:f9:e6:d2:b3:24:f1:70:eb:c8:58:1a:5b:c8:99:
         a9:b5:ba:05:46:e7:71:ab:af:26:3a:93:87:9e:f9:bb:8d:5e:
         03:7b:11:df:90:83:da:e5:49:2e:8b:b1:fb:ca:5b:73:8b:48:
         4f:ea:5b:ba:9f:08:a1:d2:b2:e2:3b:e4:86:f0:69:a1:38:28:
         84:59:e4:2b:cb:8f:78:fc:b4:17:ba:04:75:a5:a9:68:2b:cb:
         c5:4a:aa:ad:bb:12:a1:fc:a9:0c:e0:d1:60:84:cb:cb:ea:bb:
         1e:67:56:33:f7:f1:0a:18:f6:31:3e:c5:b7:ec:03:4a:c6:0c:
         a3:a2:d7:bb:34:e0:4f:51:a0:c4:2b:25:03:ac:57:0c:85:20:
         b6:74:60:d6:5e:4f:fc:1c:09:50:75:c9:fc:22:83:92:e9:2d:
         38:f8:f4:b5:6c:f4:83:e9:b5:21:ed:f2:c3:5e:b5:77:0d:a7:
         85:a7:fd:35:af:5f:44:9c:1b:b0:bf:34:af:a6:a8:6a:0f:4b:
         53:d7:5c:6d:9c:93:07:1c:49:f5:0c:be:82:f5:b6:4e:14:77:
         bc:8f:35:f5:37:58:32:9a:63:53:f0:99:cb:63:ce:71:54:ce:
         a6:16:5c:31:d6:15:ab:9c:07:39:e7:07:1d:35:0d:76:42:1b:
         f2:46:61:74:da:31:67:6b:35:99:6b:a0:03:45:63:69:86:01:
         c9:e6:16:d1:0b:c2:72:5d:de:ff:54:20:b3:15:0a:1d:a1:08:
         73:45:f5:e0:dd:56:21:6f:87:6b:bb:38:c5:21:d2:f7:c3:ff:
         5b:bc:c8:a5:df:69:88:11
-----BEGIN CERTIFICATE-----
MIIEyjCCArKgAwIBAgIBCTANBgkqhkiG9w0BAQsFADCBkzELMAkGA1UEBhMCVVMx
CzAJBgNVBAgMAkNBMREwDwYDVQQHDAhTdGFuZm9yZDENMAsGA1UECgwEQk1JUjEO
MAwGA1UECwwFQ0VEQVIxHDAaBgNVBAMME21ldGFkYXRhY2VudGVyLm9yZ3gxJzAl
BgkqhkiG9w0BCQEWGG1ldGFkYXRhY2VudGVyQGdtYWlsLmNvbTAeFw0yMzAxMTgx
ODM5NTVaFw0yNTA0MjExODM5NTVaMIGAMQswCQYDVQQGEwJVUzELMAkGA1UECAwC
Q0ExDTALBgNVBAoMBEJNSVIxDjAMBgNVBAsMBUNFREFSMRwwGgYDVQQDDBNtZXRh
ZGF0YWNlbnRlci5vcmd4MScwJQYJKoZIhvcNAQkBFhhtZXRhZGF0YWNlbnRlckBn
bWFpbC5jb20wggEiMA0GCSqGSIb3DQEBAQUAA4IBDwAwggEKAoIBAQDRAmzWEdm6
0Go+GKnjCiCavA5cCZbGDn2O+mnTbNFQqKdxbnT7hWQfruaszgVyr+A/5ZXe+O5t
87dRy6/lFNeuw8fCP+HkVVx8b3GZsPjzmv7QrXc9G2cT8HjgWUuqRtMosTtElWJG
uKjVGU4huBwTftvGlbZhJm9cMGHjTjvVZ5uIUL7nCdC2QX9Ebcy38mY1JqVl/rsm
Gs3teQ2+Mpw1UEKmnSDZTYoSM41ybmGNs4q30gU0ivnTYD8FCPSwuCdL5xYgDy7J
uGe2NrUgwV8b10rHV1OMpMqZ6p1bEygf1jyA5bIuQoR/pw9QR3xlULkrhenwAXP/
U3BhmKpjJIXhAgMBAAGjOjA4MAkGA1UdEwQCMAAwCwYDVR0PBAQDAgXgMB4GA1Ud
EQQXMBWCE21ldGFkYXRhY2VudGVyLm9yZ3gwDQYJKoZIhvcNAQELBQADggIBAAkz
FYbVxa1Hemirm6PAv77RDiUItnUYrJyyKa470ZK4uz+xCPlD3KoRfb0Px9VpTjVj
14D1urRGAavMtPNoc7QFj2Vlsy+G8O63qNiNHJCqOMeD8+vF1bw9/eE5ItWoNuZ1
Y6InsIkrSk2sEV40OwYjNWVwzawYvwQNDYgVRjkjtq/gYVkmHndE1qfiS/20oyyZ
i6MzcWGmBQ8xHbtTdY5YG/WMgbv0572WriuBRHHR5/FtEZFRilqQjzQ7yT3DAiFO
+ifprYDUJ/n55tKzJPFw68hYGlvImam1ugVG53GrryY6k4ee+buNXgN7Ed+Qg9rl
SS6LsfvKW3OLSE/qW7qfCKHSsuI75IbwaaE4KIRZ5CvLj3j8tBe6BHWlqWgry8VK
qq27EqH8qQzg0WCEy8vqux5nVjP38QoY9jE+xbfsA0rGDKOi17s04E9RoMQrJQOs
VwyFILZ0YNZeT/wcCVB1yfwig5LpLTj49LVs9IPptSHt8sNetXcNp4Wn/TWvX0Sc
G7C/NK+mqGoPS1PXXG2ckwccSfUMvoL1tk4Ud7yPNfU3WDKaY1PwmctjznFUzqYW
XDHWFaucBznnBx01DXZCG/JGYXTaMWdrNZlroANFY2mGAcnmFtELwnJd3v9UILMV
Ch2hCHNF9eDdViFvh2u7OMUh0vfD/1u8yKXfaYgR
-----END CERTIFICATE-----
