Certificate:
    Data:
        Version: 3 (0x2)
        Serial Number: 24 (0x18)
        Signature Algorithm: sha256WithRSAEncryption
        Issuer: C=US, ST=CA, L=Stanford, O=BMIR, OU=CEDAR, CN=metadatacenter.orgx/emailAddress=metadatacenter@gmail.com
        Validity
            Not Before: Jan 18 00:50:46 2024 GMT
            Not After : Apr 21 00:50:46 2026 GMT
        Subject: C=US, ST=CA, O=BMIR, OU=CEDAR, CN=docs.cee.metadatacenter.orgx/emailAddress=metadatacenter@gmail.com
        Subject Public Key Info:
            Public Key Algorithm: rsaEncryption
                RSA Public-Key: (2048 bit)
                Modulus:
                    00:d5:1e:ec:f2:30:1b:62:3b:bc:39:0e:d0:d5:d9:
                    51:76:3d:71:30:3f:83:89:ff:80:d2:28:c0:e2:95:
                    9f:1e:c0:5c:05:62:d9:70:4f:fc:d7:08:a5:5f:bb:
                    d8:f7:cf:af:76:46:c6:af:95:cf:4c:17:b5:f6:d8:
                    04:e5:de:f8:b7:a9:b7:42:2b:82:da:d7:ec:60:8d:
                    e9:ee:4c:3e:fd:eb:85:5a:fa:60:fc:77:e2:1b:ad:
                    23:43:f4:1c:21:a9:71:37:8b:94:01:28:9e:44:7f:
                    d7:2a:b2:69:db:e1:70:d4:78:04:8c:8e:cb:48:74:
                    bb:dc:9c:ed:20:7c:1d:fa:fe:13:57:f6:f8:46:d3:
                    3d:19:4d:c4:f2:62:2b:b5:a6:90:0b:ef:9a:1f:df:
                    1b:04:15:ca:29:ed:92:90:a2:16:0e:e0:28:6a:09:
                    31:0a:e6:c9:9a:8f:95:10:6c:ca:2d:9f:86:27:27:
                    eb:2d:19:01:be:b4:b2:6c:81:8b:45:31:9a:dd:7b:
                    3a:a4:ec:12:85:b1:7c:c5:81:42:d3:22:9e:b8:84:
                    ef:8b:ed:35:07:ad:72:27:90:1e:29:ca:78:fc:90:
                    7c:02:34:a4:df:80:35:df:93:5e:d8:a3:97:38:83:
                    fb:01:47:cd:07:77:cb:e2:bc:ca:05:50:54:d7:da:
                    fd:bd
                Exponent: 65537 (0x10001)
        X509v3 extensions:
            X509v3 Basic Constraints: 
                CA:FALSE
            X509v3 Key Usage: 
                Digital Signature, Non Repudiation, Key Encipherment
            X509v3 Subject Alternative Name: 
                DNS:docs.cee.metadatacenter.orgx
    Signature Algorithm: sha256WithRSAEncryption
         43:f6:10:1a:68:fa:8b:31:e1:3e:c5:2b:d2:d3:7a:72:e9:e7:
         8c:86:bd:db:91:91:f0:b0:ca:e6:bc:9e:da:57:cd:d7:84:02:
         a9:0f:ff:59:43:43:31:c0:b1:54:68:db:12:e8:b7:3f:05:62:
         14:c1:66:b5:da:71:74:36:f6:72:8f:16:ed:16:c7:f5:c9:cb:
         0f:a8:f1:7b:7e:45:c2:9d:ad:45:24:83:6c:38:c6:1e:d4:48:
         33:ca:51:04:d1:6f:22:64:25:4c:17:b0:43:23:50:3d:a6:eb:
         0c:3e:74:b9:13:52:3f:47:12:7f:37:90:b0:21:cc:0c:c9:12:
         09:30:9b:d8:46:fa:37:5a:5c:d6:51:8b:26:39:cf:dd:88:28:
         88:85:c0:12:7e:c1:e9:e9:50:d3:6f:77:03:70:f5:8d:ea:97:
         16:50:4c:d5:14:16:31:51:93:f0:f8:68:c7:6e:58:07:7b:de:
         17:3e:18:bc:6a:76:4a:b7:50:e6:1e:6e:11:41:06:96:13:78:
         77:cc:84:32:86:11:47:7f:e7:fe:bc:66:95:c9:ce:a9:43:6e:
         87:0e:e9:32:9b:91:76:4b:82:70:71:0c:1b:ea:c7:89:46:08:
         e1:ac:18:33:40:65:c5:dd:c3:cf:ea:99:b1:f0:0f:ed:c1:62:
         64:9d:7d:fd:ac:50:c9:66:f0:c3:8c:94:82:0d:43:fe:b4:5d:
         d9:8e:46:3b:e1:39:0e:80:1e:a6:fa:98:c8:3e:6b:21:4d:79:
         de:cc:04:8b:b8:59:db:60:c9:7d:b7:67:76:ec:01:c1:dd:48:
         c2:cf:da:8e:c4:a2:de:10:ab:f0:b1:55:eb:40:a9:6f:e4:ca:
         6e:3f:9b:92:cd:87:5a:df:44:90:8e:eb:50:f6:15:45:00:61:
         c1:de:05:7c:b3:63:48:95:bc:27:8b:b8:5d:ed:9c:17:f6:29:
         3c:9b:51:e0:3f:61:d6:eb:e7:fb:5d:cb:46:5f:e7:d5:55:91:
         56:62:73:a5:fd:a4:70:e6:2b:0c:c8:87:b0:06:19:59:2d:64:
         c8:19:00:d7:48:ed:71:59:b1:91:f3:6b:5e:c8:85:c9:86:e6:
         19:17:95:2e:8b:73:9c:c6:ee:2b:80:87:22:fc:0a:ee:59:7f:
         76:bd:15:3c:93:e0:eb:0b:8e:7e:f2:4a:a8:c8:64:ae:d1:65:
         63:13:23:cb:9f:45:35:ee:27:1c:87:ba:79:35:26:a6:e6:67:
         5a:fa:65:ab:2e:0b:eb:4a:7f:5f:7f:50:cf:c9:a6:c1:38:2e:
         c0:0c:0d:67:55:40:77:37:87:89:8a:7f:35:b7:23:61:a9:a2:
         42:3e:27:c5:30:55:de:b4
-----BEGIN CERTIFICATE-----
MIIE3DCCAsSgAwIBAgIBGDANBgkqhkiG9w0BAQsFADCBkzELMAkGA1UEBhMCVVMx
CzAJBgNVBAgMAkNBMREwDwYDVQQHDAhTdGFuZm9yZDENMAsGA1UECgwEQk1JUjEO
MAwGA1UECwwFQ0VEQVIxHDAaBgNVBAMME21ldGFkYXRhY2VudGVyLm9yZ3gxJzAl
BgkqhkiG9w0BCQEWGG1ldGFkYXRhY2VudGVyQGdtYWlsLmNvbTAeFw0yNDAxMTgw
MDUwNDZaFw0yNjA0MjEwMDUwNDZaMIGJMQswCQYDVQQGEwJVUzELMAkGA1UECAwC
Q0ExDTALBgNVBAoMBEJNSVIxDjAMBgNVBAsMBUNFREFSMSUwIwYDVQQDDBxkb2Nz
LmNlZS5tZXRhZGF0YWNlbnRlci5vcmd4MScwJQYJKoZIhvcNAQkBFhhtZXRhZGF0
YWNlbnRlckBnbWFpbC5jb20wggEiMA0GCSqGSIb3DQEBAQUAA4IBDwAwggEKAoIB
AQDVHuzyMBtiO7w5DtDV2VF2PXEwP4OJ/4DSKMDilZ8ewFwFYtlwT/zXCKVfu9j3
z692Rsavlc9MF7X22ATl3vi3qbdCK4La1+xgjenuTD7964Va+mD8d+IbrSND9Bwh
qXE3i5QBKJ5Ef9cqsmnb4XDUeASMjstIdLvcnO0gfB36/hNX9vhG0z0ZTcTyYiu1
ppAL75of3xsEFcop7ZKQohYO4ChqCTEK5smaj5UQbMotn4YnJ+stGQG+tLJsgYtF
MZrdezqk7BKFsXzFgULTIp64hO+L7TUHrXInkB4pynj8kHwCNKTfgDXfk17Yo5c4
g/sBR80Hd8vivMoFUFTX2v29AgMBAAGjQzBBMAkGA1UdEwQCMAAwCwYDVR0PBAQD
AgXgMCcGA1UdEQQgMB6CHGRvY3MuY2VlLm1ldGFkYXRhY2VudGVyLm9yZ3gwDQYJ
KoZIhvcNAQELBQADggIBAEP2EBpo+osx4T7FK9LTenLp54yGvduRkfCwyua8ntpX
zdeEAqkP/1lDQzHAsVRo2xLotz8FYhTBZrXacXQ29nKPFu0Wx/XJyw+o8Xt+RcKd
rUUkg2w4xh7USDPKUQTRbyJkJUwXsEMjUD2m6ww+dLkTUj9HEn83kLAhzAzJEgkw
m9hG+jdaXNZRiyY5z92IKIiFwBJ+wenpUNNvdwNw9Y3qlxZQTNUUFjFRk/D4aMdu
WAd73hc+GLxqdkq3UOYebhFBBpYTeHfMhDKGEUd/5/68ZpXJzqlDbocO6TKbkXZL
gnBxDBvqx4lGCOGsGDNAZcXdw8/qmbHwD+3BYmSdff2sUMlm8MOMlIINQ/60XdmO
RjvhOQ6AHqb6mMg+ayFNed7MBIu4WdtgyX23Z3bsAcHdSMLP2o7Eot4Qq/CxVetA
qW/kym4/m5LNh1rfRJCO61D2FUUAYcHeBXyzY0iVvCeLuF3tnBf2KTybUeA/Ydbr
5/tdy0Zf59VVkVZic6X9pHDmKwzIh7AGGVktZMgZANdI7XFZsZHza17IhcmG5hkX
lS6Lc5zG7iuAhyL8Cu5Zf3a9FTyT4OsLjn7ySqjIZK7RZWMTI8ufRTXuJxyHunk1
JqbmZ1r6ZasuC+tKf19/UM/JpsE4LsAMDWdVQHc3h4mKfzW3I2GpokI+J8UwVd60
-----END CERTIFICATE-----
