Certificate:
    Data:
        Version: 3 (0x2)
        Serial Number: 25 (0x19)
        Signature Algorithm: sha256WithRSAEncryption
        Issuer: C=US, ST=CA, L=Stanford, O=BMIR, OU=CEDAR, CN=metadatacenter.orgx/emailAddress=metadatacenter@gmail.com
        Validity
            Not Before: Jan 17 21:50:45 2024 GMT
            Not After : Apr 20 21:50:45 2026 GMT
        Subject: C=US, ST=CA, O=BMIR, OU=CEDAR, CN=shared.metadatacenter.orgx/emailAddress=metadatacenter@gmail.com
        Subject Public Key Info:
            Public Key Algorithm: rsaEncryption
                RSA Public-Key: (2048 bit)
                Modulus:
                    00:e1:aa:ba:ff:5e:64:b7:28:e4:97:f5:b7:70:ee:
                    90:96:43:ae:ce:d3:35:16:78:e5:12:5d:02:43:a0:
                    82:b8:55:79:fb:6f:a8:d0:51:da:ac:44:29:a8:8b:
                    66:28:5f:15:57:09:9f:52:13:4f:f4:f2:fd:55:5b:
                    c5:6c:00:ef:39:5c:c9:0d:83:fe:e2:0a:ba:fb:8f:
                    8e:13:6a:49:6f:0d:5b:8f:2e:1d:f4:a8:46:8d:d4:
                    42:ed:9a:15:6a:59:8d:ca:86:6d:6a:2d:76:c5:4c:
                    89:36:3a:c3:f5:52:56:83:16:fe:11:7b:b5:98:d5:
                    a0:e3:7c:82:fc:30:10:e2:31:b9:f2:e6:41:16:f6:
                    72:e3:c5:37:c7:0c:5c:90:4d:86:8d:fa:a5:c3:9e:
                    d7:e3:11:c3:92:d1:f0:3f:49:c6:2f:54:0c:46:e1:
                    60:8c:03:8d:11:7c:0d:d7:13:d9:ef:38:8f:5e:0a:
                    92:b5:e2:fc:5b:d0:88:95:85:e2:b6:cd:40:b8:7f:
                    21:ab:1e:90:ef:53:00:7c:5d:61:ee:63:f6:79:53:
                    ba:95:e8:87:42:d4:32:fc:f5:4c:34:b2:80:ef:c6:
                    44:21:9f:6c:90:8b:3d:c9:62:4b:b3:cf:7c:00:85:
                    9b:a4:78:c6:fc:9b:30:c2:c1:c1:82:9e:32:4c:c1:
                    b8:f9
                Exponent: 65537 (0x10001)
        X509v3 extensions:
            X509v3 Basic Constraints: 
                CA:FALSE
            X509v3 Key Usage: 
                Digital Signature, Non Repudiation, Key Encipherment
            X509v3 Subject Alternative Name: 
                DNS:shared.metadatacenter.orgx
    Signature Algorithm: sha256WithRSAEncryption
         67:a0:b0:1e:ea:3a:52:7a:89:3e:46:4b:10:0c:5a:fb:ad:d0:
         7e:2c:a7:17:6c:7e:49:52:56:63:a3:35:91:d9:7a:a6:f3:a8:
         5b:6c:da:2e:8e:aa:23:ba:91:e9:04:87:9d:6a:fd:a4:6f:b0:
         79:95:ee:56:9a:30:7d:85:68:91:78:d5:72:28:94:9f:9c:42:
         b1:de:d5:3e:56:62:66:5c:ea:22:eb:0f:32:5f:e4:9c:4e:46:
         8d:e7:33:df:73:f1:b2:61:10:38:03:f9:32:ab:33:c6:b6:29:
         4c:e7:04:b5:ae:4b:a4:f2:e3:56:c7:3b:a7:a1:cd:04:37:90:
         f5:52:09:f5:fa:71:6e:23:11:00:ba:89:68:6d:23:b7:0e:8c:
         75:b8:63:ee:ab:7b:e6:ce:9f:96:c8:80:68:aa:1d:1b:6f:de:
         19:a2:9f:a9:15:62:66:93:b4:5b:07:a8:4d:05:4e:54:ea:f9:
         cc:3f:c8:49:2b:90:0f:2a:80:84:11:97:b2:1c:14:41:b7:09:
         c0:b8:c0:d3:19:cb:53:9c:88:0e:c1:1a:40:03:bd:33:8c:b3:
         27:27:94:a6:1e:b1:21:7d:bd:71:31:34:0b:64:59:13:0b:7d:
         ac:f7:0c:d9:d5:c9:81:39:72:b5:9c:f9:02:17:8c:d1:f6:28:
         dd:30:8c:9a:07:05:1e:c0:e9:59:dc:6c:2c:25:af:a5:c9:34:
         f2:1b:c7:53:c7:a1:17:19:b3:15:47:82:03:75:2f:ea:6b:a6:
         ae:e0:10:97:d9:81:d6:ae:26:3b:c9:a7:fc:46:93:97:e0:b4:
         f9:05:13:65:ed:5a:e0:55:a7:fa:12:8b:db:1f:2b:45:ed:91:
         27:60:0f:d9:4c:a1:29:58:84:eb:6a:4f:0f:97:41:5a:bf:9d:
         68:42:c6:53:4f:6e:48:28:78:8b:74:f0:52:4a:0f:5f:6a:00:
         bb:9d:2d:e6:e3:f0:20:92:5d:cb:84:ff:e8:9f:b5:ef:71:30:
         93:8e:d2:1a:e4:61:4d:44:01:4d:16:74:87:5f:8a:20:91:82:
         04:44:f9:95:ee:60:4a:8e:4b:de:d1:69:55:98:de:2c:ef:a8:
         6c:13:eb:d4:dc:22:29:bc:97:a9:cb:03:3b:c0:1a:46:fc:a7:
         33:8c:05:64:a2:75:3b:da:84:0c:4d:be:61:bf:f4:22:a6:48:
         f7:e3:b3:f2:28:cd:a7:97:e7:ce:64:70:d4:b9:3e:a1:66:87:
         e7:50:e8:e0:47:84:fb:0f:38:c2:e6:5b:b8:c5:5c:fb:7e:11:
         9a:15:29:dc:c9:e9:57:ea:b6:eb:d5:6a:bc:79:3b:b3:6a:af:
         9c:32:98:d0:05:c3:07:92
-----BEGIN CERTIFICATE-----
MIIE2DCCAsCgAwIBAgIBGTANBgkqhkiG9w0BAQsFADCBkzELMAkGA1UEBhMCVVMx
CzAJBgNVBAgMAkNBMREwDwYDVQQHDAhTdGFuZm9yZDENMAsGA1UECgwEQk1JUjEO
MAwGA1UECwwFQ0VEQVIxHDAaBgNVBAMME21ldGFkYXRhY2VudGVyLm9yZ3gxJzAl
BgkqhkiG9w0BCQEWGG1ldGFkYXRhY2VudGVyQGdtYWlsLmNvbTAeFw0yNDAxMTcy
MTUwNDVaFw0yNjA0MjAyMTUwNDVaMIGHMQswCQYDVQQGEwJVUzELMAkGA1UECAwC
Q0ExDTALBgNVBAoMBEJNSVIxDjAMBgNVBAsMBUNFREFSMSMwIQYDVQQDDBpzaGFy
ZWQubWV0YWRhdGFjZW50ZXIub3JneDEnMCUGCSqGSIb3DQEJARYYbWV0YWRhdGFj
ZW50ZXJAZ21haWwuY29tMIIBIjANBgkqhkiG9w0BAQEFAAOCAQ8AMIIBCgKCAQEA
4aq6/15ktyjkl/W3cO6QlkOuztM1FnjlEl0CQ6CCuFV5+2+o0FHarEQpqItmKF8V
VwmfUhNP9PL9VVvFbADvOVzJDYP+4gq6+4+OE2pJbw1bjy4d9KhGjdRC7ZoValmN
yoZtai12xUyJNjrD9VJWgxb+EXu1mNWg43yC/DAQ4jG58uZBFvZy48U3xwxckE2G
jfqlw57X4xHDktHwP0nGL1QMRuFgjAONEXwN1xPZ7ziPXgqSteL8W9CIlYXits1A
uH8hqx6Q71MAfF1h7mP2eVO6leiHQtQy/PVMNLKA78ZEIZ9skIs9yWJLs898AIWb
pHjG/JswwsHBgp4yTMG4+QIDAQABo0EwPzAJBgNVHRMEAjAAMAsGA1UdDwQEAwIF
4DAlBgNVHREEHjAcghpzaGFyZWQubWV0YWRhdGFjZW50ZXIub3JneDANBgkqhkiG
9w0BAQsFAAOCAgEAZ6CwHuo6UnqJPkZLEAxa+63QfiynF2x+SVJWY6M1kdl6pvOo
W2zaLo6qI7qR6QSHnWr9pG+weZXuVpowfYVokXjVciiUn5xCsd7VPlZiZlzqIusP
Ml/knE5Gjecz33PxsmEQOAP5MqszxrYpTOcEta5LpPLjVsc7p6HNBDeQ9VIJ9fpx
biMRALqJaG0jtw6Mdbhj7qt75s6flsiAaKodG2/eGaKfqRViZpO0WweoTQVOVOr5
zD/ISSuQDyqAhBGXshwUQbcJwLjA0xnLU5yIDsEaQAO9M4yzJyeUph6xIX29cTE0
C2RZEwt9rPcM2dXJgTlytZz5AheM0fYo3TCMmgcFHsDpWdxsLCWvpck08hvHU8eh
FxmzFUeCA3Uv6mumruAQl9mB1q4mO8mn/EaTl+C0+QUTZe1a4FWn+hKL2x8rRe2R
J2AP2UyhKViE62pPD5dBWr+daELGU09uSCh4i3TwUkoPX2oAu50t5uPwIJJdy4T/
6J+173Ewk47SGuRhTUQBTRZ0h1+KIJGCBET5le5gSo5L3tFpVZjeLO+obBPr1Nwi
KbyXqcsDO8AaRvynM4wFZKJ1O9qEDE2+Yb/0IqZI9+Oz8ijNp5fnzmRw1Lk+oWaH
51Do4EeE+w84wuZbuMVc+34RmhUp3MnpV+q269VqvHk7s2qvnDKY0AXDB5I=
-----END CERTIFICATE-----
