Certificate:
    Data:
        Version: 3 (0x2)
        Serial Number: 3 (0x3)
        Signature Algorithm: sha256WithRSAEncryption
        Issuer: C=US, ST=CA, L=Stanford, O=BMIR, OU=CEDAR, CN=metadatacenter.orgx/emailAddress=metadatacenter@gmail.com
        Validity
            Not Before: Jan 17 21:50:43 2024 GMT
            Not After : Apr 20 21:50:43 2026 GMT
        Subject: C=US, ST=CA, O=BMIR, OU=CEDAR, CN=bridge.metadatacenter.orgx/emailAddress=metadatacenter@gmail.com
        Subject Public Key Info:
            Public Key Algorithm: rsaEncryption
                RSA Public-Key: (2048 bit)
                Modulus:
                    00:d0:c8:c9:62:c0:df:04:d1:64:fd:8b:28:5d:8d:
                    74:6a:bc:c2:98:1a:2a:a8:de:2a:5b:94:fd:63:eb:
                    42:79:e9:c7:da:44:b0:d7:58:b9:1b:54:45:68:f0:
                    6c:b8:f8:55:a6:08:d8:fa:f2:66:01:fd:b3:e1:21:
                    84:f1:ad:3f:df:fa:55:b0:20:41:2d:0d:05:58:9c:
                    01:eb:49:4c:41:1c:82:2d:f4:3f:82:b2:72:63:c2:
                    3e:5a:73:b6:3c:ba:27:0b:d0:b3:61:76:a2:71:35:
                    06:cf:f7:12:43:dc:c6:00:17:19:71:11:7c:83:64:
                    64:01:ac:f3:e7:77:a6:77:ff:5a:d4:cd:2b:f7:b2:
                    3d:75:f8:ec:e8:bd:89:37:2d:ee:37:d9:67:d4:6b:
                    05:56:3c:24:69:ab:cb:cd:7d:d7:aa:8b:bb:bb:c8:
                    1a:7b:c8:f3:15:3b:90:cf:f8:69:cf:a3:7e:ce:62:
                    9d:8c:12:af:66:7a:fd:73:39:2f:b1:f5:51:13:d9:
                    b1:ef:fd:8d:49:8d:33:70:da:2f:da:09:6c:1a:18:
                    56:53:de:b9:c2:ef:e3:5f:09:e2:b4:e5:ce:e3:de:
                    31:33:25:c4:77:94:67:4d:f9:e1:8f:f6:2f:c9:3b:
                    ff:c8:f9:ef:0c:8a:0c:8b:9f:14:5a:36:55:e2:7f:
                    21:3b
                Exponent: 65537 (0x10001)
        X509v3 extensions:
            X509v3 Basic Constraints: 
                CA:FALSE
            X509v3 Key Usage: 
                Digital Signature, Non Repudiation, Key Encipherment
            X509v3 Subject Alternative Name: 
                DNS:bridge.metadatacenter.orgx
    Signature Algorithm: sha256WithRSAEncryption
         2a:52:90:cc:a2:b7:f8:0e:b2:04:40:88:1b:f4:a1:7e:dc:a8:
         f3:fc:67:e0:87:bd:ce:ca:c1:dc:d0:3c:20:f8:c8:d9:57:ca:
         5a:e2:ed:35:0e:e4:1d:78:72:26:77:07:a5:b7:08:f9:9f:e8:
         60:f6:88:c3:de:dc:ac:54:5c:c0:31:fc:23:03:72:b1:6c:36:
         23:78:f3:6c:bc:47:b0:31:7f:7d:bb:e0:af:4f:80:25:55:3a:
         eb:a9:ee:09:fb:2a:58:38:6e:81:3a:28:16:b1:cd:f9:b6:de:
         08:4b:99:97:63:6b:51:63:eb:8c:d9:2b:43:68:91:4f:3f:74:
         0f:0b:80:ca:21:f5:a4:9d:31:f9:66:3e:f4:a8:5a:72:92:2a:
         0e:3b:60:8f:19:ac:29:9b:49:96:de:dd:11:86:9c:e8:9a:2d:
         7c:d6:f4:c9:14:a7:fc:a7:62:4c:4f:e4:0d:5d:be:80:a8:3d:
         1e:46:13:76:1a:a2:13:7f:dd:0a:83:21:d4:d4:12:b5:fd:97:
         5a:06:83:c1:cf:56:f0:0e:04:3d:c7:82:85:c0:ba:65:5d:23:
         8a:b6:be:de:03:8a:29:83:4f:bb:19:d7:7c:9a:1c:c2:e4:bf:
         44:92:77:16:42:89:4b:5f:b2:85:9f:32:1a:89:e2:dc:11:e0:
         1b:f9:57:96:6a:e3:d8:91:08:dc:92:b8:56:f0:b7:70:5b:82:
         6e:be:b6:fb:aa:ab:83:47:0a:93:6e:09:cd:a1:bb:d9:a6:64:
         73:a8:b4:18:05:86:db:0d:31:7a:b2:c4:d5:10:35:21:a3:74:
         fc:a8:ae:9e:3d:66:12:a7:46:6c:76:04:b2:13:76:9b:e4:ff:
         67:1c:82:de:4c:40:55:a9:e1:52:45:2e:71:88:41:5e:c4:8d:
         72:4c:9a:bf:67:fc:4d:c1:b9:c6:90:1e:20:72:08:57:02:af:
         70:ec:ed:95:50:e1:38:c1:93:71:a4:0a:aa:00:5c:66:67:33:
         07:a0:58:b7:18:b3:c1:10:64:cb:ee:cb:ef:5c:82:46:0d:b8:
         81:a0:fb:64:96:68:02:6f:e8:df:a9:a1:39:f4:cd:c1:9b:87:
         e9:01:b8:d0:4b:59:24:81:9b:74:60:ee:08:18:47:59:05:19:
         2a:2b:2f:e3:94:52:f4:b0:18:41:be:6a:20:86:4b:58:11:6a:
         b3:0a:c3:5e:d4:65:88:b6:15:2a:64:05:82:4e:72:85:d3:e2:
         e6:6e:8e:86:e0:5e:ae:d6:5a:aa:d7:b6:c0:7a:18:10:e6:c6:
         b8:c6:cf:0b:15:98:f9:7c:b2:39:5d:c1:22:a7:6f:60:e4:f0:
         65:39:26:28:09:7d:e9:88
-----BEGIN CERTIFICATE-----
MIIE2DCCAsCgAwIBAgIBAzANBgkqhkiG9w0BAQsFADCBkzELMAkGA1UEBhMCVVMx
CzAJBgNVBAgMAkNBMREwDwYDVQQHDAhTdGFuZm9yZDENMAsGA1UECgwEQk1JUjEO
MAwGA1UECwwFQ0VEQVIxHDAaBgNVBAMME21ldGFkYXRhY2VudGVyLm9yZ3gxJzAl
BgkqhkiG9w0BCQEWGG1ldGFkYXRhY2VudGVyQGdtYWlsLmNvbTAeFw0yNDAxMTcy
MTUwNDNaFw0yNjA0MjAyMTUwNDNaMIGHMQswCQYDVQQGEwJVUzELMAkGA1UECAwC
Q0ExDTALBgNVBAoMBEJNSVIxDjAMBgNVBAsMBUNFREFSMSMwIQYDVQQDDBpicmlk
Z2UubWV0YWRhdGFjZW50ZXIub3JneDEnMCUGCSqGSIb3DQEJARYYbWV0YWRhdGFj
ZW50ZXJAZ21haWwuY29tMIIBIjANBgkqhkiG9w0BAQEFAAOCAQ8AMIIBCgKCAQEA
0MjJYsDfBNFk/YsoXY10arzCmBoqqN4qW5T9Y+tCeenH2kSw11i5G1RFaPBsuPhV
pgjY+vJmAf2z4SGE8a0/3/pVsCBBLQ0FWJwB60lMQRyCLfQ/grJyY8I+WnO2PLon
C9CzYXaicTUGz/cSQ9zGABcZcRF8g2RkAazz53emd/9a1M0r97I9dfjs6L2JNy3u
N9ln1GsFVjwkaavLzX3Xqou7u8gae8jzFTuQz/hpz6N+zmKdjBKvZnr9czkvsfVR
E9mx7/2NSY0zcNov2glsGhhWU965wu/jXwnitOXO494xMyXEd5RnTfnhj/YvyTv/
yPnvDIoMi58UWjZV4n8hOwIDAQABo0EwPzAJBgNVHRMEAjAAMAsGA1UdDwQEAwIF
4DAlBgNVHREEHjAcghpicmlkZ2UubWV0YWRhdGFjZW50ZXIub3JneDANBgkqhkiG
9w0BAQsFAAOCAgEAKlKQzKK3+A6yBECIG/Shftyo8/xn4Ie9zsrB3NA8IPjI2VfK
WuLtNQ7kHXhyJncHpbcI+Z/oYPaIw97crFRcwDH8IwNysWw2I3jzbLxHsDF/fbvg
r0+AJVU666nuCfsqWDhugTooFrHN+bbeCEuZl2NrUWPrjNkrQ2iRTz90DwuAyiH1
pJ0x+WY+9KhacpIqDjtgjxmsKZtJlt7dEYac6JotfNb0yRSn/KdiTE/kDV2+gKg9
HkYTdhqiE3/dCoMh1NQStf2XWgaDwc9W8A4EPceChcC6ZV0jira+3gOKKYNPuxnX
fJocwuS/RJJ3FkKJS1+yhZ8yGoni3BHgG/lXlmrj2JEI3JK4VvC3cFuCbr62+6qr
g0cKk24JzaG72aZkc6i0GAWG2w0xerLE1RA1IaN0/Kiunj1mEqdGbHYEshN2m+T/
ZxyC3kxAVanhUkUucYhBXsSNckyav2f8TcG5xpAeIHIIVwKvcOztlVDhOMGTcaQK
qgBcZmczB6BYtxizwRBky+7L71yCRg24gaD7ZJZoAm/o36mhOfTNwZuH6QG40EtZ
JIGbdGDuCBhHWQUZKisv45RS9LAYQb5qIIZLWBFqswrDXtRliLYVKmQFgk5yhdPi
5m6OhuBertZaqte2wHoYEObGuMbPCxWY+XyyOV3BIqdvYOTwZTkmKAl96Yg=
-----END CERTIFICATE-----
