Certificate:
    Data:
        Version: 3 (0x2)
        Serial Number: 4 (0x4)
        Signature Algorithm: sha256WithRSAEncryption
        Issuer: C=US, ST=CA, L=Stanford, O=BMIR, OU=CEDAR, CN=metadatacenter.orgx/emailAddress=metadatacenter@gmail.com
        Validity
            Not Before: Jan 17 21:50:43 2024 GMT
            Not After : Apr 20 21:50:43 2026 GMT
        Subject: C=US, ST=CA, O=BMIR, OU=CEDAR, CN=group.metadatacenter.orgx/emailAddress=metadatacenter@gmail.com
        Subject Public Key Info:
            Public Key Algorithm: rsaEncryption
                RSA Public-Key: (2048 bit)
                Modulus:
                    00:e1:fb:05:60:3c:96:a7:35:ac:c2:e5:22:f9:d9:
                    5b:b0:80:62:64:9e:61:d9:6c:e1:12:94:ac:22:8c:
                    fc:53:d3:7b:17:01:f8:d6:34:d2:7f:c3:5d:1a:a2:
                    87:69:bf:7c:48:52:3a:c0:49:94:11:b0:1d:53:6f:
                    d0:08:26:79:ed:20:4e:19:2e:dc:e5:75:ba:45:91:
                    ef:11:aa:41:bf:55:97:76:bb:7e:be:d9:76:fe:33:
                    30:04:6a:98:aa:82:d2:92:ec:e6:b0:0b:95:11:b1:
                    a1:07:22:7a:a4:e0:f8:3f:4b:34:94:c6:47:eb:4f:
                    4b:6f:57:80:f7:29:1f:82:90:f9:34:ac:d0:e9:5f:
                    98:6d:2b:5e:54:68:b2:d7:f4:25:1a:30:29:e2:43:
                    d9:b2:7e:be:70:e6:67:4a:55:97:15:8a:62:9b:9f:
                    1d:1e:81:8f:57:bb:8a:82:09:a6:46:7b:1a:3f:56:
                    58:ea:01:fe:d8:90:48:57:a3:72:39:3e:02:99:7b:
                    95:4a:f0:bb:62:e9:55:5f:0f:77:a9:0b:73:d7:dd:
                    42:77:8d:d7:02:5b:6b:4f:11:56:ec:58:64:1a:9d:
                    1d:12:c6:8b:84:c1:b5:23:0d:e6:70:49:4f:4f:53:
                    0f:f3:a4:e7:5f:59:12:32:93:22:f7:6d:9a:08:76:
                    39:39
                Exponent: 65537 (0x10001)
        X509v3 extensions:
            X509v3 Basic Constraints: 
                CA:FALSE
            X509v3 Key Usage: 
                Digital Signature, Non Repudiation, Key Encipherment
            X509v3 Subject Alternative Name: 
                DNS:group.metadatacenter.orgx
    Signature Algorithm: sha256WithRSAEncryption
         50:c3:31:b3:d4:5b:24:9f:fe:83:55:7a:e3:af:9d:73:a7:02:
         1f:62:14:1f:d1:e7:69:c7:65:86:f5:11:c8:e8:30:5b:47:d3:
         2b:5d:bb:83:f4:f4:43:e3:1f:9c:60:72:8b:8d:da:be:c2:c2:
         6f:ad:5d:cf:8b:6a:38:33:7f:56:34:dd:e7:20:74:8a:6c:dd:
         0c:c3:53:f2:22:4d:48:90:5a:d8:b8:9f:34:c6:4e:98:c9:15:
         25:2d:f0:af:74:5f:3c:ec:5c:46:9f:7a:d8:86:33:77:a7:e8:
         31:21:7c:d0:0b:a5:04:74:3e:0d:ff:2e:6b:37:d2:d9:75:11:
         46:a1:03:10:15:36:ba:d9:3e:1c:f8:37:8f:a2:2f:6d:88:c4:
         d5:6d:0a:85:97:e6:d0:37:eb:16:a1:fc:30:76:0d:11:6a:67:
         c2:05:4a:a5:1f:29:b8:2a:40:ea:55:c4:1a:bf:ad:30:91:ac:
         11:2d:75:28:a6:b1:f4:13:91:6e:3e:e5:40:2e:33:0b:29:7b:
         c8:ed:2b:33:56:8e:80:2c:74:5d:b0:7a:17:7b:9f:63:cb:71:
         2b:05:fd:a9:1a:34:87:cb:68:10:6c:da:dc:28:ce:01:1a:ca:
         ca:34:2b:eb:98:77:c7:9f:91:0b:04:2b:48:21:96:b3:5b:76:
         91:70:8b:ec:36:73:33:83:3d:ec:a3:c8:b2:3f:cf:ee:d1:6c:
         3a:27:94:62:f5:4b:7f:d9:15:34:23:41:48:46:04:33:6a:56:
         8c:02:44:25:4d:4d:99:76:70:c4:32:6f:34:5e:58:73:c0:21:
         9e:00:93:7e:22:2e:2e:46:11:10:75:a5:ba:15:dc:da:c3:59:
         e9:79:ef:d9:f1:8a:5b:63:19:b8:b4:72:54:92:e4:cb:8e:01:
         7f:d6:6b:f2:f7:9f:1f:6d:49:92:48:bd:01:db:1b:00:f7:f8:
         0c:5c:e6:68:a3:e4:2b:af:76:06:08:58:8e:eb:5a:2a:21:5d:
         b7:d5:26:df:6c:0f:5d:6d:26:ae:e7:42:ee:b5:60:d8:27:ad:
         50:af:a0:de:3d:56:ba:b4:98:ca:15:5b:c9:ea:c8:c7:12:d7:
         d5:16:45:ed:10:fb:48:c3:63:c8:d5:c3:d2:95:cc:a7:bb:bd:
         fc:83:f2:6c:a1:54:b1:86:d1:62:e3:2b:25:e1:c6:39:c1:d9:
         85:42:cd:24:57:96:bd:5f:7a:40:4b:67:b9:b7:96:b3:7f:cb:
         14:a8:58:a1:17:3a:89:55:56:cc:6f:53:92:b5:c4:bc:bd:af:
         34:a4:d8:5b:32:9b:89:a9:d4:db:74:15:b9:b8:79:3e:64:bf:
         f5:a4:49:aa:9f:d0:76:07
-----BEGIN CERTIFICATE-----
MIIE1jCCAr6gAwIBAgIBBDANBgkqhkiG9w0BAQsFADCBkzELMAkGA1UEBhMCVVMx
CzAJBgNVBAgMAkNBMREwDwYDVQQHDAhTdGFuZm9yZDENMAsGA1UECgwEQk1JUjEO
MAwGA1UECwwFQ0VEQVIxHDAaBgNVBAMME21ldGFkYXRhY2VudGVyLm9yZ3gxJzAl
BgkqhkiG9w0BCQEWGG1ldGFkYXRhY2VudGVyQGdtYWlsLmNvbTAeFw0yNDAxMTcy
MTUwNDNaFw0yNjA0MjAyMTUwNDNaMIGGMQswCQYDVQQGEwJVUzELMAkGA1UECAwC
Q0ExDTALBgNVBAoMBEJNSVIxDjAMBgNVBAsMBUNFREFSMSIwIAYDVQQDDBlncm91
cC5tZXRhZGF0YWNlbnRlci5vcmd4MScwJQYJKoZIhvcNAQkBFhhtZXRhZGF0YWNl
bnRlckBnbWFpbC5jb20wggEiMA0GCSqGSIb3DQEBAQUAA4IBDwAwggEKAoIBAQDh
+wVgPJanNazC5SL52VuwgGJknmHZbOESlKwijPxT03sXAfjWNNJ/w10aoodpv3xI
UjrASZQRsB1Tb9AIJnntIE4ZLtzldbpFke8RqkG/VZd2u36+2Xb+MzAEapiqgtKS
7OawC5URsaEHInqk4Pg/SzSUxkfrT0tvV4D3KR+CkPk0rNDpX5htK15UaLLX9CUa
MCniQ9myfr5w5mdKVZcVimKbnx0egY9Xu4qCCaZGexo/VljqAf7YkEhXo3I5PgKZ
e5VK8Lti6VVfD3epC3PX3UJ3jdcCW2tPEVbsWGQanR0SxouEwbUjDeZwSU9PUw/z
pOdfWRIykyL3bZoIdjk5AgMBAAGjQDA+MAkGA1UdEwQCMAAwCwYDVR0PBAQDAgXg
MCQGA1UdEQQdMBuCGWdyb3VwLm1ldGFkYXRhY2VudGVyLm9yZ3gwDQYJKoZIhvcN
AQELBQADggIBAFDDMbPUWySf/oNVeuOvnXOnAh9iFB/R52nHZYb1EcjoMFtH0ytd
u4P09EPjH5xgcouN2r7Cwm+tXc+Lajgzf1Y03ecgdIps3QzDU/IiTUiQWti4nzTG
TpjJFSUt8K90XzzsXEafetiGM3en6DEhfNALpQR0Pg3/Lms30tl1EUahAxAVNrrZ
Phz4N4+iL22IxNVtCoWX5tA36xah/DB2DRFqZ8IFSqUfKbgqQOpVxBq/rTCRrBEt
dSimsfQTkW4+5UAuMwspe8jtKzNWjoAsdF2wehd7n2PLcSsF/akaNIfLaBBs2two
zgEayso0K+uYd8efkQsEK0ghlrNbdpFwi+w2czODPeyjyLI/z+7RbDonlGL1S3/Z
FTQjQUhGBDNqVowCRCVNTZl2cMQybzReWHPAIZ4Ak34iLi5GERB1pboV3NrDWel5
79nxiltjGbi0clSS5MuOAX/Wa/L3nx9tSZJIvQHbGwD3+Axc5mij5CuvdgYIWI7r
WiohXbfVJt9sD11tJq7nQu61YNgnrVCvoN49Vrq0mMoVW8nqyMcS19UWRe0Q+0jD
Y8jVw9KVzKe7vfyD8myhVLGG0WLjKyXhxjnB2YVCzSRXlr1fekBLZ7m3lrN/yxSo
WKEXOolVVsxvU5K1xLy9rzSk2Fsym4mp1Nt0Fbm4eT5kv/WkSaqf0HYH
-----END CERTIFICATE-----
