Certificate:
    Data:
        Version: 3 (0x2)
        Serial Number: 4 (0x4)
        Signature Algorithm: sha256WithRSAEncryption
        Issuer: C=US, ST=CA, L=Stanford, O=BMIR, OU=CEDAR, CN=metadatacenter.orgx/emailAddress=metadatacenter@gmail.com
        Validity
            Not Before: Jan 18 00:50:44 2024 GMT
            Not After : Apr 21 00:50:44 2026 GMT
        Subject: C=US, ST=CA, O=BMIR, OU=CEDAR, CN=group.metadatacenter.orgx/emailAddress=metadatacenter@gmail.com
        Subject Public Key Info:
            Public Key Algorithm: rsaEncryption
                RSA Public-Key: (2048 bit)
                Modulus:
                    00:ad:91:dc:3e:23:f0:67:5f:1d:d7:1b:b0:03:12:
                    cb:c1:04:6e:10:fe:e9:08:e5:b2:69:cd:28:2e:fd:
                    08:ab:cd:27:c7:98:06:82:c6:94:a0:f8:a9:22:7f:
                    c2:f2:56:8c:d8:ba:c6:3f:dc:4f:6e:d6:64:73:0f:
                    60:67:a7:0e:6b:61:9d:fe:9c:73:65:c1:21:1e:62:
                    7f:5d:e7:3e:93:90:c6:a9:f7:43:cf:10:ef:fb:53:
                    bf:dd:47:72:c9:68:ed:0b:d8:fb:65:b9:d0:7a:11:
                    53:75:8a:2c:c3:db:e8:55:99:2c:e0:bc:a8:96:32:
                    75:6e:21:97:f6:54:30:06:ac:1a:62:f2:54:fb:70:
                    53:e3:f6:eb:ce:e8:01:c7:6a:c8:cc:71:e2:54:28:
                    c1:2d:fc:3f:98:6f:ca:47:84:f4:c6:2d:66:70:b6:
                    e4:09:81:cb:9f:8a:1b:7c:c9:01:34:47:26:c6:fa:
                    6a:6f:fb:af:8b:e1:21:03:0b:bf:f1:34:2d:8b:70:
                    6b:c7:df:23:cb:0b:9b:15:6a:eb:65:21:d4:e6:27:
                    d6:51:78:ae:15:b7:b6:aa:1a:27:e3:7f:5f:07:29:
                    64:3b:7b:27:21:ee:2e:dc:e0:2c:53:46:f5:e8:f2:
                    ea:4e:22:83:51:28:c0:8c:5e:98:b1:14:b9:55:c6:
                    35:6d
                Exponent: 65537 (0x10001)
        X509v3 extensions:
            X509v3 Basic Constraints: 
                CA:FALSE
            X509v3 Key Usage: 
                Digital Signature, Non Repudiation, Key Encipherment
            X509v3 Subject Alternative Name: 
                DNS:group.metadatacenter.orgx
    Signature Algorithm: sha256WithRSAEncryption
         13:f8:66:de:9f:dd:b9:46:ce:c7:25:84:b5:65:b2:aa:d3:34:
         07:5b:e1:a7:67:5b:87:da:1d:90:60:63:01:45:07:23:ef:84:
         73:be:19:7c:95:d4:80:4d:60:0d:7f:db:22:0b:93:6c:18:ac:
         c0:4b:41:01:94:3c:b1:c5:dc:f4:bf:af:3b:a7:a7:92:34:dc:
         03:43:cd:bb:d2:ef:ef:f6:9c:cc:c1:ed:65:8e:1f:3a:45:dc:
         7b:c3:c7:e1:ef:cc:3a:07:25:34:e9:78:60:3a:e4:04:d0:3c:
         29:2c:01:c4:79:c2:7c:31:8d:ea:0e:aa:e5:06:0f:ce:81:9a:
         7c:57:da:a0:ae:c6:68:26:26:d3:8f:03:50:07:0a:19:07:ca:
         e9:c4:71:f6:cf:bc:ab:9f:16:48:b3:e2:10:af:f1:d6:65:ef:
         2b:62:96:cc:90:7c:2b:d3:e6:fd:57:e3:85:35:fb:6c:a7:f1:
         c9:90:0c:ef:ab:09:d7:19:d6:f2:84:ec:fb:64:37:1c:eb:f9:
         21:d3:7f:d3:37:70:07:7f:f9:11:0a:cb:89:99:bd:d2:fb:2c:
         c4:45:6a:5b:ff:2b:8d:bf:90:9f:96:cc:63:f3:fa:49:6a:bf:
         e1:53:22:0d:23:29:e3:a7:86:b9:5e:f1:69:58:f2:f7:ab:db:
         de:46:b5:05:3a:2d:5e:07:b1:9c:b7:ce:07:3d:0d:0c:36:e9:
         c2:85:f4:db:85:c3:f1:06:1b:73:8f:0e:3c:45:1f:40:ae:53:
         f4:56:12:d2:2a:d9:c2:81:f3:7c:98:50:6f:4d:bd:97:be:76:
         b8:e1:55:35:a5:22:22:89:0e:10:ea:d6:b9:44:1d:e9:25:ab:
         4a:d0:43:4c:1a:c6:b8:19:63:56:6a:f9:8e:e1:a5:44:18:df:
         67:3c:7e:5a:c2:e9:9d:ef:45:6f:f0:ad:5b:9b:ff:38:8e:83:
         ea:fc:e4:60:d4:ea:72:e8:ee:ea:c8:5e:b3:d9:b2:ce:d6:d7:
         8a:37:79:e6:d8:04:8c:65:f3:2a:c0:1c:c2:c3:03:eb:ab:29:
         e1:99:d3:7f:03:75:a4:d2:fd:8c:e7:2f:31:3b:42:16:29:a4:
         25:fe:3b:d2:db:4e:bf:e4:a5:aa:ae:35:66:3b:ce:28:b2:99:
         81:97:90:df:ba:d2:9e:db:e6:a2:1f:9a:d4:f3:b3:d9:32:d2:
         53:b5:e9:dc:c9:61:38:ad:fc:e1:37:ca:48:af:57:27:0b:ec:
         53:f7:b2:37:ff:f0:b8:6f:29:9b:86:df:d3:6e:01:f5:de:d5:
         53:43:95:ac:4e:82:5a:cd:61:67:7d:a9:bd:6b:ae:e9:ca:00:
         9e:57:40:3c:6e:b8:aa:14
-----BEGIN CERTIFICATE-----
MIIE1jCCAr6gAwIBAgIBBDANBgkqhkiG9w0BAQsFADCBkzELMAkGA1UEBhMCVVMx
CzAJBgNVBAgMAkNBMREwDwYDVQQHDAhTdGFuZm9yZDENMAsGA1UECgwEQk1JUjEO
MAwGA1UECwwFQ0VEQVIxHDAaBgNVBAMME21ldGFkYXRhY2VudGVyLm9yZ3gxJzAl
BgkqhkiG9w0BCQEWGG1ldGFkYXRhY2VudGVyQGdtYWlsLmNvbTAeFw0yNDAxMTgw
MDUwNDRaFw0yNjA0MjEwMDUwNDRaMIGGMQswCQYDVQQGEwJVUzELMAkGA1UECAwC
Q0ExDTALBgNVBAoMBEJNSVIxDjAMBgNVBAsMBUNFREFSMSIwIAYDVQQDDBlncm91
cC5tZXRhZGF0YWNlbnRlci5vcmd4MScwJQYJKoZIhvcNAQkBFhhtZXRhZGF0YWNl
bnRlckBnbWFpbC5jb20wggEiMA0GCSqGSIb3DQEBAQUAA4IBDwAwggEKAoIBAQCt
kdw+I/BnXx3XG7ADEsvBBG4Q/ukI5bJpzSgu/QirzSfHmAaCxpSg+Kkif8LyVozY
usY/3E9u1mRzD2Bnpw5rYZ3+nHNlwSEeYn9d5z6TkMap90PPEO/7U7/dR3LJaO0L
2PtludB6EVN1iizD2+hVmSzgvKiWMnVuIZf2VDAGrBpi8lT7cFPj9uvO6AHHasjM
ceJUKMEt/D+Yb8pHhPTGLWZwtuQJgcufiht8yQE0RybG+mpv+6+L4SEDC7/xNC2L
cGvH3yPLC5sVautlIdTmJ9ZReK4Vt7aqGifjf18HKWQ7eych7i7c4CxTRvXo8upO
IoNRKMCMXpixFLlVxjVtAgMBAAGjQDA+MAkGA1UdEwQCMAAwCwYDVR0PBAQDAgXg
MCQGA1UdEQQdMBuCGWdyb3VwLm1ldGFkYXRhY2VudGVyLm9yZ3gwDQYJKoZIhvcN
AQELBQADggIBABP4Zt6f3blGzsclhLVlsqrTNAdb4adnW4faHZBgYwFFByPvhHO+
GXyV1IBNYA1/2yILk2wYrMBLQQGUPLHF3PS/rzunp5I03ANDzbvS7+/2nMzB7WWO
HzpF3HvDx+HvzDoHJTTpeGA65ATQPCksAcR5wnwxjeoOquUGD86BmnxX2qCuxmgm
JtOPA1AHChkHyunEcfbPvKufFkiz4hCv8dZl7ytilsyQfCvT5v1X44U1+2yn8cmQ
DO+rCdcZ1vKE7PtkNxzr+SHTf9M3cAd/+REKy4mZvdL7LMRFalv/K42/kJ+WzGPz
+klqv+FTIg0jKeOnhrle8WlY8ver295GtQU6LV4HsZy3zgc9DQw26cKF9NuFw/EG
G3OPDjxFH0CuU/RWEtIq2cKB83yYUG9NvZe+drjhVTWlIiKJDhDq1rlEHeklq0rQ
Q0waxrgZY1Zq+Y7hpUQY32c8flrC6Z3vRW/wrVub/ziOg+r85GDU6nLo7urIXrPZ
ss7W14o3eebYBIxl8yrAHMLDA+urKeGZ038DdaTS/YznLzE7QhYppCX+O9LbTr/k
paquNWY7ziiymYGXkN+60p7b5qIfmtTzs9ky0lO16dzJYTit/OE3ykivVycL7FP3
sjf/8LhvKZuG39NuAfXe1VNDlaxOglrNYWd9qb1rrunKAJ5XQDxuuKoU
-----END CERTIFICATE-----
