Certificate:
    Data:
        Version: 3 (0x2)
        Serial Number: 0 (0x0)
        Signature Algorithm: sha256WithRSAEncryption
        Issuer: C=US, ST=CA, L=Stanford, O=BMIR, OU=CEDAR, CN=metadatacenter.orgx/emailAddress=metadatacenter@gmail.com
        Validity
            Not Before: Oct  5 23:30:21 2020 GMT
            Not After : Jan  7 23:30:21 2023 GMT
        Subject: C=US, ST=CA, O=BMIR, OU=CEDAR, CN=auth.metadatacenter.orgx/emailAddress=metadatacenter@gmail.com
        Subject Public Key Info:
            Public Key Algorithm: rsaEncryption
                RSA Public-Key: (2048 bit)
                Modulus:
                    00:96:50:7b:7e:3b:2b:f9:35:38:03:16:16:e7:dc:
                    21:f0:16:a1:3f:f7:4a:88:5a:a5:d0:e8:59:f6:2a:
                    3e:0f:1e:33:d7:eb:c6:87:66:01:6a:ee:9c:35:cc:
                    c6:bc:14:c5:02:bc:f2:bc:76:46:b5:8c:f0:60:cb:
                    80:61:27:af:86:2c:db:8a:7e:d1:d9:c0:7c:d1:33:
                    3a:bf:dd:1b:42:15:c0:4a:42:77:db:d0:2f:42:db:
                    6f:c8:ec:5d:b4:52:c2:a8:bf:94:89:81:f2:b4:08:
                    01:70:04:51:e7:56:c6:50:12:e1:b5:57:19:2d:b8:
                    5e:a0:bf:83:e2:73:86:5d:f8:ee:4f:a2:9d:ff:ec:
                    10:50:6b:2d:eb:53:45:b5:d7:1e:3c:28:58:44:34:
                    1e:6c:64:67:e5:47:82:21:f5:32:be:dd:02:f0:a5:
                    25:c8:9f:ae:a7:ad:cb:c5:19:82:cd:8b:08:23:3d:
                    60:de:87:0c:6f:98:6b:c0:ad:6b:e5:0a:24:ca:32:
                    a0:57:db:54:b1:8f:10:6e:10:18:21:47:5c:ed:d9:
                    46:e1:d8:f9:3a:ad:8f:05:34:89:79:37:48:46:60:
                    01:f5:f4:eb:31:ff:e4:f6:7c:2d:0d:fa:be:98:a2:
                    c5:12:36:a6:be:ab:13:4c:33:60:ad:c5:73:ae:a8:
                    b8:a9
                Exponent: 65537 (0x10001)
        X509v3 extensions:
            X509v3 Basic Constraints: 
                CA:FALSE
            X509v3 Key Usage: 
                Digital Signature, Non Repudiation, Key Encipherment
            X509v3 Subject Alternative Name: 
                DNS:artifact.metadatacenter.orgx, DNS:auth.metadatacenter.orgx, DNS:cedar.metadatacenter.orgx, DNS:component.metadatacenter.orgx, DNS:group.metadatacenter.orgx, DNS:internals.metadatacenter.orgx, DNS:messaging.metadatacenter.orgx, DNS:open.metadatacenter.orgx, DNS:openview.metadatacenter.orgx, DNS:repo.metadatacenter.orgx, DNS:resource.metadatacenter.orgx, DNS:schema.metadatacenter.orgx, DNS:submission.metadatacenter.orgx, DNS:terminology.metadatacenter.orgx, DNS:user.metadatacenter.orgx, DNS:valuerecommender.metadatacenter.orgx, DNS:worker.metadatacenter.orgx
    Signature Algorithm: sha256WithRSAEncryption
         75:66:e7:de:1b:11:f4:39:ee:af:1c:31:6b:10:78:cc:20:49:
         cd:d6:c5:a0:d4:21:b5:dc:81:c5:c4:d5:86:56:fe:af:f5:33:
         e0:e1:fe:fb:31:97:f9:86:22:3f:14:47:b5:06:32:60:8a:d6:
         42:67:d3:34:61:91:c8:13:6a:2e:10:e8:61:3b:1e:be:c6:27:
         59:45:a7:39:37:6a:2d:3d:f9:9a:37:6b:5c:64:16:3e:f2:13:
         3c:a7:ed:76:ee:f9:1e:84:a7:8a:8f:bb:aa:c8:a2:d1:54:f6:
         f8:fc:c6:8a:da:22:b5:87:b7:22:96:dd:9c:2c:90:0f:71:fc:
         25:f7:95:4f:b7:ee:6c:3b:66:ff:40:db:cb:39:40:65:13:fd:
         a3:98:f3:47:5f:aa:8c:86:54:13:cd:53:12:ff:ff:6f:70:fb:
         3c:65:9d:62:a7:94:fe:58:44:70:54:f6:63:99:c2:7f:53:69:
         22:96:8a:e7:70:25:d2:6d:50:8f:52:c2:ab:3d:7f:22:de:a2:
         23:11:d3:8a:30:b0:ab:11:4d:71:e0:14:31:e6:19:76:11:45:
         70:d3:7c:ee:ce:c0:88:e0:ce:38:69:9b:68:c9:a6:40:3d:96:
         3f:17:35:fa:88:2e:4d:07:52:68:bb:7d:bf:ed:49:70:3b:4b:
         58:9d:15:99:b1:d9:49:12:d4:73:14:10:20:4b:d7:72:c6:b9:
         67:82:9b:1f:ca:98:49:aa:e8:55:b5:d4:bc:21:52:05:d0:c8:
         53:b7:17:93:54:8a:ad:a6:43:1c:5f:f6:92:6d:bc:67:15:aa:
         e7:7a:fb:74:1f:8f:ef:d0:9d:a3:15:a9:d9:7b:ca:0b:b4:15:
         e9:12:44:9c:35:cf:45:bc:7d:0d:54:f4:96:49:50:71:21:68:
         ca:83:04:d4:10:bc:77:4f:dd:f2:16:01:b0:94:d4:16:ec:4a:
         1b:84:6e:c7:b8:c2:81:5c:aa:1a:d6:aa:18:d4:c8:56:41:db:
         23:ec:1f:84:e4:e5:8a:9a:6d:a2:b2:19:08:ea:26:43:eb:6e:
         52:42:44:26:00:95:00:fc:3a:4e:a8:8a:8c:1a:6e:8d:23:04:
         1e:0d:09:cd:15:13:9b:bc:39:05:31:1b:b0:db:bf:20:d9:1d:
         49:5c:86:b4:cb:1f:f1:c7:75:83:3a:0f:3d:7c:f8:d5:af:78:
         3e:cc:7e:c5:c5:54:39:0c:55:fc:25:41:51:56:c0:13:03:d8:
         71:e9:d3:0c:2c:9d:be:12:14:40:4d:95:83:75:d4:8c:df:f9:
         ba:67:e3:30:68:11:0b:6b:c3:ad:39:21:08:03:62:fe:1a:8b:
         94:9a:69:8e:d5:b6:78:2b
-----BEGIN CERTIFICATE-----
MIIGuDCCBKCgAwIBAgIBADANBgkqhkiG9w0BAQsFADCBkzELMAkGA1UEBhMCVVMx
CzAJBgNVBAgMAkNBMREwDwYDVQQHDAhTdGFuZm9yZDENMAsGA1UECgwEQk1JUjEO
MAwGA1UECwwFQ0VEQVIxHDAaBgNVBAMME21ldGFkYXRhY2VudGVyLm9yZ3gxJzAl
BgkqhkiG9w0BCQEWGG1ldGFkYXRhY2VudGVyQGdtYWlsLmNvbTAeFw0yMDEwMDUy
MzMwMjFaFw0yMzAxMDcyMzMwMjFaMIGFMQswCQYDVQQGEwJVUzELMAkGA1UECAwC
Q0ExDTALBgNVBAoMBEJNSVIxDjAMBgNVBAsMBUNFREFSMSEwHwYDVQQDDBhhdXRo
Lm1ldGFkYXRhY2VudGVyLm9yZ3gxJzAlBgkqhkiG9w0BCQEWGG1ldGFkYXRhY2Vu
dGVyQGdtYWlsLmNvbTCCASIwDQYJKoZIhvcNAQEBBQADggEPADCCAQoCggEBAJZQ
e347K/k1OAMWFufcIfAWoT/3SohapdDoWfYqPg8eM9frxodmAWrunDXMxrwUxQK8
8rx2RrWM8GDLgGEnr4Ys24p+0dnAfNEzOr/dG0IVwEpCd9vQL0Lbb8jsXbRSwqi/
lImB8rQIAXAEUedWxlAS4bVXGS24XqC/g+Jzhl347k+inf/sEFBrLetTRbXXHjwo
WEQ0HmxkZ+VHgiH1Mr7dAvClJcifrqety8UZgs2LCCM9YN6HDG+Ya8Cta+UKJMoy
oFfbVLGPEG4QGCFHXO3ZRuHY+TqtjwU0iXk3SEZgAfX06zH/5PZ8LQ36vpiixRI2
pr6rE0wzYK3Fc66ouKkCAwEAAaOCAiEwggIdMAkGA1UdEwQCMAAwCwYDVR0PBAQD
AgXgMIICAQYDVR0RBIIB+DCCAfSCHGFydGlmYWN0Lm1ldGFkYXRhY2VudGVyLm9y
Z3iCGGF1dGgubWV0YWRhdGFjZW50ZXIub3JneIIZY2VkYXIubWV0YWRhdGFjZW50
ZXIub3JneIIdY29tcG9uZW50Lm1ldGFkYXRhY2VudGVyLm9yZ3iCGWdyb3VwLm1l
dGFkYXRhY2VudGVyLm9yZ3iCHWludGVybmFscy5tZXRhZGF0YWNlbnRlci5vcmd4
gh1tZXNzYWdpbmcubWV0YWRhdGFjZW50ZXIub3JneIIYb3Blbi5tZXRhZGF0YWNl
bnRlci5vcmd4ghxvcGVudmlldy5tZXRhZGF0YWNlbnRlci5vcmd4ghhyZXBvLm1l
dGFkYXRhY2VudGVyLm9yZ3iCHHJlc291cmNlLm1ldGFkYXRhY2VudGVyLm9yZ3iC
GnNjaGVtYS5tZXRhZGF0YWNlbnRlci5vcmd4gh5zdWJtaXNzaW9uLm1ldGFkYXRh
Y2VudGVyLm9yZ3iCH3Rlcm1pbm9sb2d5Lm1ldGFkYXRhY2VudGVyLm9yZ3iCGHVz
ZXIubWV0YWRhdGFjZW50ZXIub3JneIIkdmFsdWVyZWNvbW1lbmRlci5tZXRhZGF0
YWNlbnRlci5vcmd4ghp3b3JrZXIubWV0YWRhdGFjZW50ZXIub3JneDANBgkqhkiG
9w0BAQsFAAOCAgEAdWbn3hsR9DnurxwxaxB4zCBJzdbFoNQhtdyBxcTVhlb+r/Uz
4OH++zGX+YYiPxRHtQYyYIrWQmfTNGGRyBNqLhDoYTsevsYnWUWnOTdqLT35mjdr
XGQWPvITPKftdu75HoSnio+7qsii0VT2+PzGitoitYe3IpbdnCyQD3H8JfeVT7fu
bDtm/0DbyzlAZRP9o5jzR1+qjIZUE81TEv//b3D7PGWdYqeU/lhEcFT2Y5nCf1Np
IpaK53Al0m1Qj1LCqz1/It6iIxHTijCwqxFNceAUMeYZdhFFcNN87s7AiODOOGmb
aMmmQD2WPxc1+oguTQdSaLt9v+1JcDtLWJ0VmbHZSRLUcxQQIEvXcsa5Z4KbH8qY
SaroVbXUvCFSBdDIU7cXk1SKraZDHF/2km28ZxWq53r7dB+P79CdoxWp2XvKC7QV
6RJEnDXPRbx9DVT0lklQcSFoyoME1BC8d0/d8hYBsJTUFuxKG4Rux7jCgVyqGtaq
GNTIVkHbI+wfhOTlipptorIZCOomQ+tuUkJEJgCVAPw6TqiKjBpujSMEHg0JzRUT
m7w5BTEbsNu/INkdSVyGtMsf8cd1gzoPPXz41a94Psx+xcVUOQxV/CVBUVbAEwPY
cenTDCydvhIUQE2Vg3XUjN/5umfjMGgRC2vDrTkhCANi/hqLlJppjtW2eCs=
-----END CERTIFICATE-----
