Certificate:
    Data:
        Version: 3 (0x2)
        Serial Number: 24 (0x18)
        Signature Algorithm: sha256WithRSAEncryption
        Issuer: C=US, ST=CA, L=Stanford, O=BMIR, OU=CEDAR, CN=metadatacenter.orgx/emailAddress=metadatacenter@gmail.com
        Validity
            Not Before: Nov 10 18:23:25 2020 GMT
            Not After : Feb 12 18:23:25 2023 GMT
        Subject: C=US, ST=CA, O=BMIR, OU=CEDAR, CN=auth.metadatacenter.orgx/emailAddress=metadatacenter@gmail.com
        Subject Public Key Info:
            Public Key Algorithm: rsaEncryption
                RSA Public-Key: (2048 bit)
                Modulus:
                    00:96:50:7b:7e:3b:2b:f9:35:38:03:16:16:e7:dc:
                    21:f0:16:a1:3f:f7:4a:88:5a:a5:d0:e8:59:f6:2a:
                    3e:0f:1e:33:d7:eb:c6:87:66:01:6a:ee:9c:35:cc:
                    c6:bc:14:c5:02:bc:f2:bc:76:46:b5:8c:f0:60:cb:
                    80:61:27:af:86:2c:db:8a:7e:d1:d9:c0:7c:d1:33:
                    3a:bf:dd:1b:42:15:c0:4a:42:77:db:d0:2f:42:db:
                    6f:c8:ec:5d:b4:52:c2:a8:bf:94:89:81:f2:b4:08:
                    01:70:04:51:e7:56:c6:50:12:e1:b5:57:19:2d:b8:
                    5e:a0:bf:83:e2:73:86:5d:f8:ee:4f:a2:9d:ff:ec:
                    10:50:6b:2d:eb:53:45:b5:d7:1e:3c:28:58:44:34:
                    1e:6c:64:67:e5:47:82:21:f5:32:be:dd:02:f0:a5:
                    25:c8:9f:ae:a7:ad:cb:c5:19:82:cd:8b:08:23:3d:
                    60:de:87:0c:6f:98:6b:c0:ad:6b:e5:0a:24:ca:32:
                    a0:57:db:54:b1:8f:10:6e:10:18:21:47:5c:ed:d9:
                    46:e1:d8:f9:3a:ad:8f:05:34:89:79:37:48:46:60:
                    01:f5:f4:eb:31:ff:e4:f6:7c:2d:0d:fa:be:98:a2:
                    c5:12:36:a6:be:ab:13:4c:33:60:ad:c5:73:ae:a8:
                    b8:a9
                Exponent: 65537 (0x10001)
        X509v3 extensions:
            X509v3 Basic Constraints: 
                CA:FALSE
            X509v3 Key Usage: 
                Digital Signature, Non Repudiation, Key Encipherment
            X509v3 Subject Alternative Name: 
                DNS:artifact.metadatacenter.orgx, DNS:auth.metadatacenter.orgx, DNS:cedar.metadatacenter.orgx, DNS:component.metadatacenter.orgx, DNS:group.metadatacenter.orgx, DNS:impex.metadatacenter.orgx, DNS:internals.metadatacenter.orgx, DNS:messaging.metadatacenter.orgx, DNS:open.metadatacenter.orgx, DNS:openview.metadatacenter.orgx, DNS:repo.metadatacenter.orgx, DNS:resource.metadatacenter.orgx, DNS:schema.metadatacenter.orgx, DNS:submission.metadatacenter.orgx, DNS:terminology.metadatacenter.orgx, DNS:user.metadatacenter.orgx, DNS:valuerecommender.metadatacenter.orgx, DNS:worker.metadatacenter.orgx
    Signature Algorithm: sha256WithRSAEncryption
         64:45:b8:9e:17:ea:76:6d:19:40:7e:72:71:22:a3:6d:75:a4:
         ab:2c:e7:91:db:81:b5:ac:55:39:33:ea:5c:37:ce:b4:c9:14:
         0f:d2:01:25:f8:f2:65:12:ab:33:f8:ee:64:86:54:80:1e:d7:
         80:e8:14:6b:8f:3c:80:6f:fc:b2:05:20:7c:ac:08:2e:0d:05:
         d9:bd:a1:0a:0f:85:d4:c5:64:ff:d3:8a:37:1d:f4:55:b9:d0:
         02:3b:12:b0:1d:54:5a:f4:0a:69:11:57:a0:6c:8a:e9:9a:ba:
         d3:2e:52:7d:a7:d6:df:7f:a5:54:0a:b3:91:d8:f6:20:19:9f:
         df:90:8c:e2:1f:8e:58:7a:07:3d:be:5f:79:ff:cc:db:32:e0:
         5f:7c:29:92:45:e5:7a:8a:18:65:da:a4:9d:32:e0:b6:cf:23:
         1f:b0:4c:5d:eb:f3:1f:14:ab:70:d7:4e:89:89:52:f4:29:b1:
         95:97:27:02:99:a4:ad:bd:a8:49:94:8e:11:4a:ef:48:9e:f3:
         17:85:37:e7:53:5a:0b:41:05:ae:82:cc:28:20:00:01:03:78:
         23:d0:e5:d4:c9:b1:ff:d6:71:01:2e:da:1b:e6:39:bc:cb:7e:
         2f:bc:10:b9:21:af:9a:63:e5:65:83:6a:89:04:71:9c:46:8b:
         47:37:f7:c5:42:6c:cf:1e:35:43:77:8e:a3:70:79:b5:41:02:
         6c:60:c2:67:29:98:49:6d:40:e7:fa:f0:e7:33:b9:db:29:f0:
         e5:b7:a6:6d:50:dc:99:57:83:cf:33:28:87:ad:5a:7c:5a:14:
         fb:a0:95:f6:71:41:0a:8a:7e:e1:28:85:60:70:e8:d2:69:62:
         14:0b:76:8f:52:1f:65:06:ce:3d:17:23:39:f7:d2:23:f6:80:
         bf:6f:d2:2a:70:3a:1b:a0:65:2e:b7:ab:ed:a5:ba:3d:6a:b1:
         65:0f:46:7b:03:08:e5:b5:85:eb:7f:65:2f:7c:c0:7e:5c:5e:
         86:f8:c6:85:50:a0:ae:dd:f3:21:3c:54:50:83:4c:1a:6c:6d:
         62:f9:6c:3b:53:32:81:7e:f7:4f:a1:dc:13:2c:24:6a:fe:9c:
         d3:8c:ee:b4:3e:fc:b1:d6:aa:01:3f:c6:cf:6b:3b:5b:0b:74:
         8e:f5:fc:91:33:61:57:ab:97:94:03:9e:ba:61:35:7b:a4:a4:
         ee:0d:c6:ee:a5:c9:66:f5:e0:c2:34:eb:61:16:93:74:68:46:
         ed:36:df:50:0d:88:1f:bf:7a:c5:67:14:4e:51:a2:1d:84:9f:
         5e:7a:1e:b9:7d:2f:86:d1:bf:28:9a:cc:29:a4:90:77:35:b3:
         45:8a:bb:21:35:6d:c6:e5
-----BEGIN CERTIFICATE-----
MIIG0zCCBLugAwIBAgIBGDANBgkqhkiG9w0BAQsFADCBkzELMAkGA1UEBhMCVVMx
CzAJBgNVBAgMAkNBMREwDwYDVQQHDAhTdGFuZm9yZDENMAsGA1UECgwEQk1JUjEO
MAwGA1UECwwFQ0VEQVIxHDAaBgNVBAMME21ldGFkYXRhY2VudGVyLm9yZ3gxJzAl
BgkqhkiG9w0BCQEWGG1ldGFkYXRhY2VudGVyQGdtYWlsLmNvbTAeFw0yMDExMTAx
ODIzMjVaFw0yMzAyMTIxODIzMjVaMIGFMQswCQYDVQQGEwJVUzELMAkGA1UECAwC
Q0ExDTALBgNVBAoMBEJNSVIxDjAMBgNVBAsMBUNFREFSMSEwHwYDVQQDDBhhdXRo
Lm1ldGFkYXRhY2VudGVyLm9yZ3gxJzAlBgkqhkiG9w0BCQEWGG1ldGFkYXRhY2Vu
dGVyQGdtYWlsLmNvbTCCASIwDQYJKoZIhvcNAQEBBQADggEPADCCAQoCggEBAJZQ
e347K/k1OAMWFufcIfAWoT/3SohapdDoWfYqPg8eM9frxodmAWrunDXMxrwUxQK8
8rx2RrWM8GDLgGEnr4Ys24p+0dnAfNEzOr/dG0IVwEpCd9vQL0Lbb8jsXbRSwqi/
lImB8rQIAXAEUedWxlAS4bVXGS24XqC/g+Jzhl347k+inf/sEFBrLetTRbXXHjwo
WEQ0HmxkZ+VHgiH1Mr7dAvClJcifrqety8UZgs2LCCM9YN6HDG+Ya8Cta+UKJMoy
oFfbVLGPEG4QGCFHXO3ZRuHY+TqtjwU0iXk3SEZgAfX06zH/5PZ8LQ36vpiixRI2
pr6rE0wzYK3Fc66ouKkCAwEAAaOCAjwwggI4MAkGA1UdEwQCMAAwCwYDVR0PBAQD
AgXgMIICHAYDVR0RBIICEzCCAg+CHGFydGlmYWN0Lm1ldGFkYXRhY2VudGVyLm9y
Z3iCGGF1dGgubWV0YWRhdGFjZW50ZXIub3JneIIZY2VkYXIubWV0YWRhdGFjZW50
ZXIub3JneIIdY29tcG9uZW50Lm1ldGFkYXRhY2VudGVyLm9yZ3iCGWdyb3VwLm1l
dGFkYXRhY2VudGVyLm9yZ3iCGWltcGV4Lm1ldGFkYXRhY2VudGVyLm9yZ3iCHWlu
dGVybmFscy5tZXRhZGF0YWNlbnRlci5vcmd4gh1tZXNzYWdpbmcubWV0YWRhdGFj
ZW50ZXIub3JneIIYb3Blbi5tZXRhZGF0YWNlbnRlci5vcmd4ghxvcGVudmlldy5t
ZXRhZGF0YWNlbnRlci5vcmd4ghhyZXBvLm1ldGFkYXRhY2VudGVyLm9yZ3iCHHJl
c291cmNlLm1ldGFkYXRhY2VudGVyLm9yZ3iCGnNjaGVtYS5tZXRhZGF0YWNlbnRl
ci5vcmd4gh5zdWJtaXNzaW9uLm1ldGFkYXRhY2VudGVyLm9yZ3iCH3Rlcm1pbm9s
b2d5Lm1ldGFkYXRhY2VudGVyLm9yZ3iCGHVzZXIubWV0YWRhdGFjZW50ZXIub3Jn
eIIkdmFsdWVyZWNvbW1lbmRlci5tZXRhZGF0YWNlbnRlci5vcmd4ghp3b3JrZXIu
bWV0YWRhdGFjZW50ZXIub3JneDANBgkqhkiG9w0BAQsFAAOCAgEAZEW4nhfqdm0Z
QH5ycSKjbXWkqyznkduBtaxVOTPqXDfOtMkUD9IBJfjyZRKrM/juZIZUgB7XgOgU
a488gG/8sgUgfKwILg0F2b2hCg+F1MVk/9OKNx30VbnQAjsSsB1UWvQKaRFXoGyK
6Zq60y5SfafW33+lVAqzkdj2IBmf35CM4h+OWHoHPb5fef/M2zLgX3wpkkXleooY
ZdqknTLgts8jH7BMXevzHxSrcNdOiYlS9CmxlZcnApmkrb2oSZSOEUrvSJ7zF4U3
51NaC0EFroLMKCAAAQN4I9Dl1Mmx/9ZxAS7aG+Y5vMt+L7wQuSGvmmPlZYNqiQRx
nEaLRzf3xUJszx41Q3eOo3B5tUECbGDCZymYSW1A5/rw5zO52ynw5bembVDcmVeD
zzMoh61afFoU+6CV9nFBCop+4SiFYHDo0mliFAt2j1IfZQbOPRcjOffSI/aAv2/S
KnA6G6BlLrer7aW6PWqxZQ9GewMI5bWF639lL3zAflxehvjGhVCgrt3zITxUUINM
GmxtYvlsO1MygX73T6HcEywkav6c04zutD78sdaqAT/Gz2s7Wwt0jvX8kTNhV6uX
lAOeumE1e6Sk7g3G7qXJZvXgwjTrYRaTdGhG7TbfUA2IH796xWcUTlGiHYSfXnoe
uX0vhtG/KJrMKaSQdzWzRYq7ITVtxuU=
-----END CERTIFICATE-----
