Certificate:
    Data:
        Version: 3 (0x2)
        Serial Number: 16 (0x10)
        Signature Algorithm: sha256WithRSAEncryption
        Issuer: C=US, ST=CA, L=Stanford, O=BMIR, OU=CEDAR, CN=metadatacenter.orgx/emailAddress=metadatacenter@gmail.com
        Validity
            Not Before: Jan 18 00:50:45 2024 GMT
            Not After : Apr 21 00:50:45 2026 GMT
        Subject: C=US, ST=CA, O=BMIR, OU=CEDAR, CN=worker.metadatacenter.orgx/emailAddress=metadatacenter@gmail.com
        Subject Public Key Info:
            Public Key Algorithm: rsaEncryption
                RSA Public-Key: (2048 bit)
                Modulus:
                    00:b5:49:7b:1e:5f:d0:d2:bc:aa:9b:f6:e0:f7:0d:
                    f6:65:6d:8e:d3:41:20:38:b7:ee:b9:f2:29:93:c8:
                    6e:58:f5:f7:28:fe:2c:da:2f:5f:25:52:e1:c7:64:
                    10:39:a8:b7:1c:cc:ae:83:e9:3b:95:3e:5a:4c:61:
                    39:97:70:03:8d:de:50:98:2a:de:30:0f:b7:7a:14:
                    7b:60:04:02:9e:2c:40:07:a6:b4:d8:98:ec:f8:c0:
                    a4:2e:e3:4e:88:28:02:38:be:bc:77:48:d5:43:48:
                    a6:40:f2:4a:b3:f7:18:c1:e5:04:0c:60:c8:53:5b:
                    07:64:c1:79:39:02:ce:98:31:19:26:88:c4:5c:ee:
                    e8:91:81:1b:4f:b6:ae:df:79:0e:1c:8d:2a:89:3f:
                    ae:b0:e4:1c:48:58:7f:ef:31:d0:1d:a2:d5:e1:60:
                    49:89:bf:60:c0:aa:af:5a:87:dc:b4:0d:a1:1d:55:
                    28:ec:5b:01:75:b0:b2:6e:7b:2c:96:d3:87:2f:2e:
                    27:5d:93:f9:2f:88:12:0b:59:2b:53:1d:f4:1b:03:
                    85:69:e9:59:9e:11:3c:de:61:bb:fe:49:61:36:fb:
                    6a:6d:48:b1:6d:37:fd:fb:17:db:9e:3b:4f:37:0e:
                    c2:eb:07:29:97:ff:f3:cf:91:cc:75:4b:f3:e5:eb:
                    bc:e5
                Exponent: 65537 (0x10001)
        X509v3 extensions:
            X509v3 Basic Constraints: 
                CA:FALSE
            X509v3 Key Usage: 
                Digital Signature, Non Repudiation, Key Encipherment
            X509v3 Subject Alternative Name: 
                DNS:worker.metadatacenter.orgx
    Signature Algorithm: sha256WithRSAEncryption
         9d:c9:26:3d:27:79:11:85:87:a3:2e:3a:df:5b:81:cc:84:7c:
         23:5b:a6:57:66:61:bf:0e:97:82:48:9b:38:1a:fd:2f:81:63:
         ba:41:99:c3:cd:c4:72:50:c1:6a:d2:0d:e9:76:29:11:a2:10:
         8d:97:2b:b0:ae:80:ae:68:7a:56:b7:a1:9e:f9:ab:13:e1:b4:
         5c:55:81:ec:1e:4f:f7:24:b2:f4:1f:7c:0c:91:6f:4c:45:97:
         07:d9:4a:af:33:41:83:f4:57:fc:bb:31:7c:d5:ac:7d:7f:8c:
         39:52:7a:a6:23:81:cb:c7:5d:1b:20:fc:0b:2d:f5:5e:a4:c3:
         e7:ea:b2:b0:fa:2c:a5:85:fe:fa:ef:57:49:10:8a:08:3e:30:
         ed:0c:37:da:ac:31:05:a5:e3:82:8f:bc:a2:23:59:4f:d3:bc:
         cf:7e:18:dd:7b:cd:f7:91:6c:21:e1:d4:b8:d6:0d:60:83:b8:
         d4:1c:d1:f0:c4:b6:8a:c5:8f:31:d9:37:0e:58:27:5d:58:e2:
         4c:08:12:f6:b3:7a:fb:22:06:dd:84:a0:10:6e:c1:23:b0:80:
         6d:2b:a6:14:6a:48:52:4d:5c:7d:ca:61:be:57:59:ed:81:ff:
         62:e6:be:00:a7:7a:46:ef:d0:9d:1f:12:59:b2:f1:3b:0f:8d:
         d7:a1:76:b5:79:5a:83:3b:45:c6:e4:22:e9:3a:09:6d:9b:3d:
         49:ae:aa:f5:80:a1:e3:6c:50:bb:25:8c:00:38:d7:f9:31:b6:
         08:ff:84:bb:99:99:3c:43:c3:b1:8e:9b:eb:72:48:85:84:b1:
         4d:cd:06:15:5e:ad:db:2c:1e:b5:9d:6b:63:99:c1:77:33:d0:
         f4:c2:d1:b2:5c:58:40:af:38:88:1c:00:85:97:17:98:0a:dd:
         18:04:2b:7e:4d:72:bd:49:1b:46:39:f9:2c:a9:57:2d:2b:0b:
         7b:15:ab:f9:6e:9f:9d:a0:c5:20:8c:fc:06:eb:02:73:30:f3:
         b8:68:4a:81:e6:8a:b2:75:e8:b5:ce:cc:9a:00:5e:b4:2a:36:
         e4:f8:8a:4a:5a:e8:16:73:f2:7d:d3:3a:9c:b8:48:f1:12:b0:
         45:95:08:e9:5f:87:2e:c6:7a:b8:9f:ac:42:1e:13:d3:c1:60:
         25:6a:2b:85:7a:ca:cc:17:7d:f2:74:f6:73:ca:42:1a:de:8e:
         94:22:c5:ab:8e:34:82:28:41:45:c8:52:10:3e:27:97:42:20:
         7e:2b:07:c0:01:e0:09:fe:d4:e1:71:c8:9e:ed:ff:a3:5a:32:
         f3:12:30:41:11:9b:d3:5e:b1:c5:f6:ee:dd:bb:2b:f2:f1:a9:
         9b:92:c2:50:9f:e5:9f:49
-----BEGIN CERTIFICATE-----
MIIE2DCCAsCgAwIBAgIBEDANBgkqhkiG9w0BAQsFADCBkzELMAkGA1UEBhMCVVMx
CzAJBgNVBAgMAkNBMREwDwYDVQQHDAhTdGFuZm9yZDENMAsGA1UECgwEQk1JUjEO
MAwGA1UECwwFQ0VEQVIxHDAaBgNVBAMME21ldGFkYXRhY2VudGVyLm9yZ3gxJzAl
BgkqhkiG9w0BCQEWGG1ldGFkYXRhY2VudGVyQGdtYWlsLmNvbTAeFw0yNDAxMTgw
MDUwNDVaFw0yNjA0MjEwMDUwNDVaMIGHMQswCQYDVQQGEwJVUzELMAkGA1UECAwC
Q0ExDTALBgNVBAoMBEJNSVIxDjAMBgNVBAsMBUNFREFSMSMwIQYDVQQDDBp3b3Jr
ZXIubWV0YWRhdGFjZW50ZXIub3JneDEnMCUGCSqGSIb3DQEJARYYbWV0YWRhdGFj
ZW50ZXJAZ21haWwuY29tMIIBIjANBgkqhkiG9w0BAQEFAAOCAQ8AMIIBCgKCAQEA
tUl7Hl/Q0ryqm/bg9w32ZW2O00EgOLfuufIpk8huWPX3KP4s2i9fJVLhx2QQOai3
HMyug+k7lT5aTGE5l3ADjd5QmCreMA+3ehR7YAQCnixAB6a02Jjs+MCkLuNOiCgC
OL68d0jVQ0imQPJKs/cYweUEDGDIU1sHZMF5OQLOmDEZJojEXO7okYEbT7au33kO
HI0qiT+usOQcSFh/7zHQHaLV4WBJib9gwKqvWofctA2hHVUo7FsBdbCybnssltOH
Ly4nXZP5L4gSC1krUx30GwOFaelZnhE83mG7/klhNvtqbUixbTf9+xfbnjtPNw7C
6wcpl//zz5HMdUvz5eu85QIDAQABo0EwPzAJBgNVHRMEAjAAMAsGA1UdDwQEAwIF
4DAlBgNVHREEHjAcghp3b3JrZXIubWV0YWRhdGFjZW50ZXIub3JneDANBgkqhkiG
9w0BAQsFAAOCAgEAnckmPSd5EYWHoy4631uBzIR8I1umV2Zhvw6XgkibOBr9L4Fj
ukGZw83EclDBatIN6XYpEaIQjZcrsK6Armh6VrehnvmrE+G0XFWB7B5P9ySy9B98
DJFvTEWXB9lKrzNBg/RX/LsxfNWsfX+MOVJ6piOBy8ddGyD8Cy31XqTD5+qysPos
pYX++u9XSRCKCD4w7Qw32qwxBaXjgo+8oiNZT9O8z34Y3XvN95FsIeHUuNYNYIO4
1BzR8MS2isWPMdk3DlgnXVjiTAgS9rN6+yIG3YSgEG7BI7CAbSumFGpIUk1cfcph
vldZ7YH/Yua+AKd6Ru/QnR8SWbLxOw+N16F2tXlagztFxuQi6ToJbZs9Sa6q9YCh
42xQuyWMADjX+TG2CP+Eu5mZPEPDsY6b63JIhYSxTc0GFV6t2ywetZ1rY5nBdzPQ
9MLRslxYQK84iBwAhZcXmArdGAQrfk1yvUkbRjn5LKlXLSsLexWr+W6fnaDFIIz8
BusCczDzuGhKgeaKsnXotc7MmgBetCo25PiKSlroFnPyfdM6nLhI8RKwRZUI6V+H
LsZ6uJ+sQh4T08FgJWorhXrKzBd98nT2c8pCGt6OlCLFq440gihBRchSED4nl0Ig
fisHwAHgCf7U4XHInu3/o1oy8xIwQRGb016xxfbu3bsr8vGpm5LCUJ/ln0k=
-----END CERTIFICATE-----
