Certificate:
    Data:
        Version: 3 (0x2)
        Serial Number: 19 (0x13)
        Signature Algorithm: sha256WithRSAEncryption
        Issuer: C=US, ST=CA, L=Stanford, O=BMIR, OU=CEDAR, CN=metadatacenter.orgx/emailAddress=metadatacenter@gmail.com
        Validity
            Not Before: Jan 18 19:36:36 2023 GMT
            Not After : Apr 21 19:36:36 2025 GMT
        Subject: C=US, ST=CA, O=BMIR, OU=CEDAR, CN=worker.metadatacenter.orgx/emailAddress=metadatacenter@gmail.com
        Subject Public Key Info:
            Public Key Algorithm: rsaEncryption
                RSA Public-Key: (2048 bit)
                Modulus:
                    00:d3:be:76:df:b5:d0:a8:f4:19:1f:e5:8a:4f:df:
                    07:9c:38:d1:44:d2:09:3e:2e:87:f3:e2:c4:04:85:
                    bd:0a:dc:ba:78:8a:90:96:20:9c:52:35:91:1b:99:
                    67:8d:db:e4:12:c4:d9:ac:3d:49:b9:43:29:da:e2:
                    e7:81:c2:c4:1f:f9:57:83:0d:c5:81:32:01:f6:a8:
                    e4:10:8e:99:ad:30:a0:df:15:41:52:3c:75:c3:f0:
                    9e:4f:86:a4:e9:57:06:55:c5:3c:2e:19:ba:c0:c9:
                    3d:1b:75:9a:2c:1b:f8:96:69:15:e9:12:8d:74:93:
                    48:77:5b:d3:f0:6b:ea:87:8d:4d:28:45:67:04:6b:
                    b5:58:48:8f:3d:e3:9d:94:08:bc:72:26:e6:44:e0:
                    71:fb:b4:f3:06:00:6a:d5:17:bc:fd:81:62:b6:54:
                    c5:c2:bd:a9:7c:03:a3:18:3c:c5:0e:3e:24:b5:75:
                    d2:8d:fe:c1:6d:86:03:c2:92:dc:64:20:be:d6:e9:
                    cc:55:ce:47:0a:66:2e:b6:5b:6f:fc:5b:ed:4f:a6:
                    b0:cb:1a:19:0e:ea:78:81:de:19:d6:6a:35:f3:ac:
                    97:29:63:d6:b6:d3:b6:9a:48:1d:4a:57:ab:a2:1a:
                    61:22:7d:8f:34:56:3a:f1:3f:5b:96:a5:59:af:1d:
                    2d:af
                Exponent: 65537 (0x10001)
        X509v3 extensions:
            X509v3 Basic Constraints: 
                CA:FALSE
            X509v3 Key Usage: 
                Digital Signature, Non Repudiation, Key Encipherment
            X509v3 Subject Alternative Name: 
                DNS:worker.metadatacenter.orgx
    Signature Algorithm: sha256WithRSAEncryption
         09:39:1d:7f:10:6b:90:ce:b6:98:ce:ea:3b:50:19:34:24:80:
         64:77:ce:80:6b:66:67:dd:a6:27:c3:f5:8e:88:78:85:f0:2f:
         96:93:08:81:4d:36:98:8d:48:19:c1:d6:23:be:1c:21:38:84:
         02:bc:fa:f3:c4:76:a7:2d:50:24:a1:cb:73:f3:f0:0e:bb:7e:
         34:96:bd:2f:e5:88:b6:56:81:38:36:b0:0d:61:dc:e9:94:7f:
         57:24:9e:50:8d:31:84:9c:9b:cf:8f:cb:9d:2f:d4:e6:a6:3d:
         f7:f6:ff:b8:64:55:be:9c:e1:84:1b:a6:f1:47:a5:39:f9:7a:
         c9:60:4e:7b:ec:c5:26:36:44:43:47:a9:fc:72:d3:73:d7:06:
         57:f3:3f:8f:1a:91:23:ff:cc:bf:0a:81:34:46:bb:fc:9c:ef:
         24:5a:b4:dd:75:5d:69:39:36:5e:f2:22:10:b2:3d:35:85:a9:
         11:0e:19:c3:a1:00:b1:36:19:34:42:f2:22:bd:9d:c1:b4:08:
         72:5a:65:c2:ad:37:ec:44:16:ac:a1:74:45:7f:c3:bf:df:7b:
         e7:07:fa:b5:28:51:0f:38:33:56:8d:e6:a3:76:51:bd:f0:98:
         7c:71:b3:d5:2e:01:69:a1:6c:97:ec:63:e7:2d:17:0c:95:33:
         e4:d9:83:0b:01:3a:7f:6f:6c:de:ed:a0:bf:53:cd:cf:04:cb:
         3e:da:5c:fe:d3:7d:bb:4b:7f:22:de:dd:25:bc:17:80:1d:06:
         5b:d6:d3:27:3b:1d:bb:0a:03:d5:d1:79:0b:30:44:0b:de:d9:
         fe:e8:e8:8a:cc:6b:e8:0f:b5:0d:ab:4c:d9:46:5b:2b:01:09:
         f1:ad:d8:df:f5:78:a6:a3:ee:9a:00:b9:01:15:a5:42:10:99:
         6d:d9:47:39:9a:d4:b5:5e:6c:31:dc:cb:ba:2a:16:ef:33:67:
         a1:e4:8e:f0:0c:a7:d9:c9:d3:ca:ea:3d:d1:91:15:75:94:e0:
         dd:a7:de:98:f1:a7:3d:4a:db:1d:62:ab:52:52:e4:62:df:a9:
         e0:33:74:c9:da:b5:6a:72:f5:97:3c:5b:b7:04:bb:b4:26:4d:
         a7:06:62:b5:7d:42:12:97:e7:9b:83:bf:09:6c:ab:e4:65:93:
         ec:8a:d2:17:6c:05:86:bc:d4:bd:28:9d:07:0b:85:fd:2a:bf:
         36:cb:db:bd:55:9e:21:d4:c3:b5:e3:b6:27:89:c6:ba:23:88:
         45:f0:6e:33:29:55:94:7f:f2:d0:59:df:3c:94:9e:6a:74:4d:
         3a:cf:30:bf:2f:85:98:46:40:58:2c:c7:52:38:3b:57:13:f8:
         6b:38:e9:d0:63:d4:5e:18
-----BEGIN CERTIFICATE-----
MIIE2DCCAsCgAwIBAgIBEzANBgkqhkiG9w0BAQsFADCBkzELMAkGA1UEBhMCVVMx
CzAJBgNVBAgMAkNBMREwDwYDVQQHDAhTdGFuZm9yZDENMAsGA1UECgwEQk1JUjEO
MAwGA1UECwwFQ0VEQVIxHDAaBgNVBAMME21ldGFkYXRhY2VudGVyLm9yZ3gxJzAl
BgkqhkiG9w0BCQEWGG1ldGFkYXRhY2VudGVyQGdtYWlsLmNvbTAeFw0yMzAxMTgx
OTM2MzZaFw0yNTA0MjExOTM2MzZaMIGHMQswCQYDVQQGEwJVUzELMAkGA1UECAwC
Q0ExDTALBgNVBAoMBEJNSVIxDjAMBgNVBAsMBUNFREFSMSMwIQYDVQQDDBp3b3Jr
ZXIubWV0YWRhdGFjZW50ZXIub3JneDEnMCUGCSqGSIb3DQEJARYYbWV0YWRhdGFj
ZW50ZXJAZ21haWwuY29tMIIBIjANBgkqhkiG9w0BAQEFAAOCAQ8AMIIBCgKCAQEA
075237XQqPQZH+WKT98HnDjRRNIJPi6H8+LEBIW9Cty6eIqQliCcUjWRG5lnjdvk
EsTZrD1JuUMp2uLngcLEH/lXgw3FgTIB9qjkEI6ZrTCg3xVBUjx1w/CeT4ak6VcG
VcU8Lhm6wMk9G3WaLBv4lmkV6RKNdJNId1vT8Gvqh41NKEVnBGu1WEiPPeOdlAi8
cibmROBx+7TzBgBq1Re8/YFitlTFwr2pfAOjGDzFDj4ktXXSjf7BbYYDwpLcZCC+
1unMVc5HCmYutltv/FvtT6awyxoZDup4gd4Z1mo186yXKWPWttO2mkgdSlerohph
In2PNFY68T9blqVZrx0trwIDAQABo0EwPzAJBgNVHRMEAjAAMAsGA1UdDwQEAwIF
4DAlBgNVHREEHjAcghp3b3JrZXIubWV0YWRhdGFjZW50ZXIub3JneDANBgkqhkiG
9w0BAQsFAAOCAgEACTkdfxBrkM62mM7qO1AZNCSAZHfOgGtmZ92mJ8P1joh4hfAv
lpMIgU02mI1IGcHWI74cITiEArz688R2py1QJKHLc/PwDrt+NJa9L+WItlaBODaw
DWHc6ZR/VySeUI0xhJybz4/LnS/U5qY99/b/uGRVvpzhhBum8UelOfl6yWBOe+zF
JjZEQ0ep/HLTc9cGV/M/jxqRI//MvwqBNEa7/JzvJFq03XVdaTk2XvIiELI9NYWp
EQ4Zw6EAsTYZNELyIr2dwbQIclplwq037EQWrKF0RX/Dv9975wf6tShRDzgzVo3m
o3ZRvfCYfHGz1S4BaaFsl+xj5y0XDJUz5NmDCwE6f29s3u2gv1PNzwTLPtpc/tN9
u0t/It7dJbwXgB0GW9bTJzsduwoD1dF5CzBEC97Z/ujoisxr6A+1DatM2UZbKwEJ
8a3Y3/V4pqPumgC5ARWlQhCZbdlHOZrUtV5sMdzLuioW7zNnoeSO8Ayn2cnTyuo9
0ZEVdZTg3afemPGnPUrbHWKrUlLkYt+p4DN0ydq1anL1lzxbtwS7tCZNpwZitX1C
Epfnm4O/CWyr5GWT7IrSF2wFhrzUvSidBwuF/Sq/NsvbvVWeIdTDteO2J4nGuiOI
RfBuMylVlH/y0FnfPJSeanRNOs8wvy+FmEZAWCzHUjg7VxP4azjp0GPUXhg=
-----END CERTIFICATE-----
