Certificate:
    Data:
        Version: 3 (0x2)
        Serial Number: 1 (0x1)
        Signature Algorithm: sha256WithRSAEncryption
        Issuer: C=US, ST=CA, L=Stanford, O=BMIR, OU=CEDAR, CN=metadatacenter.orgx/emailAddress=metadatacenter@gmail.com
        Validity
            Not Before: Jan 17 21:50:43 2024 GMT
            Not After : Apr 20 21:50:43 2026 GMT
        Subject: C=US, ST=CA, O=BMIR, OU=CEDAR, CN=auth.metadatacenter.orgx/emailAddress=metadatacenter@gmail.com
        Subject Public Key Info:
            Public Key Algorithm: rsaEncryption
                RSA Public-Key: (2048 bit)
                Modulus:
                    00:bb:69:93:c5:08:b5:04:59:dd:83:94:2a:e6:3d:
                    0c:82:44:75:be:ac:32:22:9b:b9:cd:b0:f6:da:27:
                    bf:56:ec:8d:f9:6d:a9:0a:a7:72:14:fe:d5:bf:94:
                    66:95:fd:f7:3e:a7:83:4e:40:48:3f:da:c0:23:2c:
                    8e:df:3e:9f:ae:a4:65:89:e4:32:6f:0c:73:43:74:
                    f9:c8:7e:21:f2:99:87:d7:bc:43:52:69:0a:ef:eb:
                    88:29:9f:38:8c:ae:c2:c8:73:e9:68:9b:2a:c5:77:
                    d9:75:f9:46:c5:f4:38:e4:79:43:6d:72:10:34:ad:
                    30:0f:e1:db:24:b6:d5:4a:2d:5a:7c:e7:eb:c6:ed:
                    55:33:fb:24:8d:c9:d8:98:a2:f5:6a:e8:37:8b:4c:
                    fa:2c:11:88:dc:3a:fa:d2:8a:69:80:63:20:1b:c3:
                    31:96:1a:b6:bb:a6:73:7d:5a:60:2f:da:1b:62:82:
                    02:a8:77:a7:c3:88:90:8d:eb:9e:c2:38:e9:a8:c3:
                    03:54:e3:9c:1c:21:40:2a:0c:5a:61:37:79:78:83:
                    1b:8a:33:98:82:05:4c:0e:03:fc:dc:f3:2f:80:53:
                    bf:0c:d5:af:2d:6f:1a:47:b1:e1:ff:de:b8:bd:4f:
                    8e:0b:96:22:25:d7:0d:f8:68:29:6b:88:7f:93:0f:
                    01:9b
                Exponent: 65537 (0x10001)
        X509v3 extensions:
            X509v3 Basic Constraints: 
                CA:FALSE
            X509v3 Key Usage: 
                Digital Signature, Non Repudiation, Key Encipherment
            X509v3 Subject Alternative Name: 
                DNS:auth.metadatacenter.orgx
    Signature Algorithm: sha256WithRSAEncryption
         81:47:cd:9e:8a:0a:6b:fc:ea:c4:de:49:62:0f:77:d1:77:d0:
         36:e3:f0:7c:28:8a:07:d2:bc:8d:99:5c:58:c6:8d:53:82:95:
         2d:77:0a:4c:c6:a4:f0:97:28:dd:98:67:12:e0:bf:34:27:e2:
         37:32:64:e2:47:a5:89:3a:07:ed:4a:fe:cb:12:f9:46:eb:ec:
         a7:1c:1d:e2:0a:8f:66:cc:1e:ab:a9:1b:e0:c2:f6:6b:52:eb:
         db:3d:53:41:6e:a2:49:e0:17:1b:40:42:b1:10:8a:1a:5b:cb:
         45:1c:df:73:98:f1:25:10:0b:8b:88:93:25:94:e8:d0:e5:28:
         cc:20:b3:b7:c9:70:4b:65:2d:96:a7:a9:21:dc:44:2a:17:a2:
         fc:5c:49:ea:99:73:8c:d6:28:53:3f:41:f4:2e:90:e5:3c:dd:
         bc:1a:12:34:56:e0:3d:ad:a5:cd:9b:31:8b:3c:16:65:39:20:
         d5:75:64:1b:a8:5e:5e:bf:d1:79:52:40:de:46:78:c3:85:4a:
         2a:51:c5:95:3b:1d:3c:25:a1:c9:5e:44:91:80:7c:9a:00:1d:
         26:7a:6e:72:a6:a8:49:c8:b8:f1:1f:90:eb:7e:ee:cb:4a:be:
         ae:e8:12:89:c7:e8:6e:4d:30:b6:63:53:b5:cd:8a:75:bc:d7:
         34:28:69:06:97:00:d6:2c:d2:91:47:a5:45:38:e9:4f:f9:89:
         cf:ce:ad:5f:15:00:14:c9:3b:be:ae:90:d3:01:31:a6:8a:94:
         cc:87:8e:7c:c2:d9:b9:b7:17:dc:2b:b9:47:00:09:22:90:a7:
         29:b6:58:25:2f:1a:0f:30:84:01:5b:59:f4:f6:f9:c9:e7:90:
         1b:4f:68:ab:c1:0e:d2:35:ca:70:29:17:63:c8:4c:28:e8:67:
         d4:26:fd:5e:26:b5:e5:42:02:4f:72:d6:dd:72:e0:04:9e:f8:
         f5:c9:d7:1e:d5:fc:46:18:99:9c:8a:fc:ec:3e:0f:f9:31:9c:
         96:a5:d0:09:a6:86:b4:8b:db:df:09:1d:b1:1d:ca:88:1f:f4:
         23:43:22:04:b9:3f:10:82:a0:bb:5b:3f:d5:a8:f8:8d:4e:59:
         77:dd:e2:6f:a4:da:6b:cb:49:ea:92:84:df:34:27:1e:9e:fb:
         e4:57:13:6e:34:86:54:ac:3f:7d:ef:e2:08:98:c7:34:b4:8a:
         a0:2e:34:54:50:ba:c2:9d:30:08:45:d2:9a:4c:3b:73:03:60:
         b8:8f:aa:fd:01:6d:10:cb:fa:a0:5e:f9:a9:bc:19:28:5c:d5:
         04:56:d7:eb:24:08:68:09:8c:6f:ae:83:96:3b:8b:c2:83:4b:
         33:cc:c5:79:b3:1a:85:02
-----BEGIN CERTIFICATE-----
MIIE1DCCArygAwIBAgIBATANBgkqhkiG9w0BAQsFADCBkzELMAkGA1UEBhMCVVMx
CzAJBgNVBAgMAkNBMREwDwYDVQQHDAhTdGFuZm9yZDENMAsGA1UECgwEQk1JUjEO
MAwGA1UECwwFQ0VEQVIxHDAaBgNVBAMME21ldGFkYXRhY2VudGVyLm9yZ3gxJzAl
BgkqhkiG9w0BCQEWGG1ldGFkYXRhY2VudGVyQGdtYWlsLmNvbTAeFw0yNDAxMTcy
MTUwNDNaFw0yNjA0MjAyMTUwNDNaMIGFMQswCQYDVQQGEwJVUzELMAkGA1UECAwC
Q0ExDTALBgNVBAoMBEJNSVIxDjAMBgNVBAsMBUNFREFSMSEwHwYDVQQDDBhhdXRo
Lm1ldGFkYXRhY2VudGVyLm9yZ3gxJzAlBgkqhkiG9w0BCQEWGG1ldGFkYXRhY2Vu
dGVyQGdtYWlsLmNvbTCCASIwDQYJKoZIhvcNAQEBBQADggEPADCCAQoCggEBALtp
k8UItQRZ3YOUKuY9DIJEdb6sMiKbuc2w9tonv1bsjfltqQqnchT+1b+UZpX99z6n
g05ASD/awCMsjt8+n66kZYnkMm8Mc0N0+ch+IfKZh9e8Q1JpCu/riCmfOIyuwshz
6WibKsV32XX5RsX0OOR5Q21yEDStMA/h2yS21UotWnzn68btVTP7JI3J2Jii9Wro
N4tM+iwRiNw6+tKKaYBjIBvDMZYatrumc31aYC/aG2KCAqh3p8OIkI3rnsI46ajD
A1TjnBwhQCoMWmE3eXiDG4ozmIIFTA4D/NzzL4BTvwzVry1vGkex4f/euL1PjguW
IiXXDfhoKWuIf5MPAZsCAwEAAaM/MD0wCQYDVR0TBAIwADALBgNVHQ8EBAMCBeAw
IwYDVR0RBBwwGoIYYXV0aC5tZXRhZGF0YWNlbnRlci5vcmd4MA0GCSqGSIb3DQEB
CwUAA4ICAQCBR82eigpr/OrE3kliD3fRd9A24/B8KIoH0ryNmVxYxo1TgpUtdwpM
xqTwlyjdmGcS4L80J+I3MmTiR6WJOgftSv7LEvlG6+ynHB3iCo9mzB6rqRvgwvZr
UuvbPVNBbqJJ4BcbQEKxEIoaW8tFHN9zmPElEAuLiJMllOjQ5SjMILO3yXBLZS2W
p6kh3EQqF6L8XEnqmXOM1ihTP0H0LpDlPN28GhI0VuA9raXNmzGLPBZlOSDVdWQb
qF5ev9F5UkDeRnjDhUoqUcWVOx08JaHJXkSRgHyaAB0mem5ypqhJyLjxH5Drfu7L
Sr6u6BKJx+huTTC2Y1O1zYp1vNc0KGkGlwDWLNKRR6VFOOlP+YnPzq1fFQAUyTu+
rpDTATGmipTMh458wtm5txfcK7lHAAkikKcptlglLxoPMIQBW1n09vnJ55AbT2ir
wQ7SNcpwKRdjyEwo6GfUJv1eJrXlQgJPctbdcuAEnvj1ydce1fxGGJmcivzsPg/5
MZyWpdAJpoa0i9vfCR2xHcqIH/QjQyIEuT8QgqC7Wz/VqPiNTll33eJvpNpry0nq
koTfNCcenvvkVxNuNIZUrD997+IImMc0tIqgLjRUULrCnTAIRdKaTDtzA2C4j6r9
AW0Qy/qgXvmpvBkoXNUEVtfrJAhoCYxvroOWO4vCg0szzMV5sxqFAg==
-----END CERTIFICATE-----
