Certificate:
    Data:
        Version: 3 (0x2)
        Serial Number: 1 (0x1)
        Signature Algorithm: sha256WithRSAEncryption
        Issuer: C=US, ST=CA, L=Stanford, O=BMIR, OU=CEDAR, CN=metadatacenter.orgx/emailAddress=metadatacenter@gmail.com
        Validity
            Not Before: Jan 18 00:50:44 2024 GMT
            Not After : Apr 21 00:50:44 2026 GMT
        Subject: C=US, ST=CA, O=BMIR, OU=CEDAR, CN=auth.metadatacenter.orgx/emailAddress=metadatacenter@gmail.com
        Subject Public Key Info:
            Public Key Algorithm: rsaEncryption
                RSA Public-Key: (2048 bit)
                Modulus:
                    00:ea:02:a3:b3:e3:ec:39:9b:2e:a3:c0:4c:b7:13:
                    98:28:bb:92:82:0f:67:34:63:fe:38:b2:1c:87:3c:
                    f5:a6:f8:15:94:98:c8:ec:b0:c6:dd:a8:80:48:c2:
                    03:0b:9c:98:0e:8b:9f:d3:da:81:5c:78:71:18:f3:
                    02:ca:e8:f8:44:7c:91:ae:fd:2a:90:ab:b8:bc:99:
                    1a:2a:dd:b8:db:48:b5:ca:8b:c5:55:17:ac:ca:5e:
                    9b:eb:f0:aa:6b:2b:49:06:de:31:eb:1d:29:d4:14:
                    2b:cc:d3:56:3b:1d:e3:67:50:3d:af:7e:d7:c4:a0:
                    51:d4:ab:c4:07:42:ac:53:e1:00:e6:4d:8c:a2:5f:
                    29:05:50:83:ea:b1:d2:b3:6a:40:0a:d3:ad:45:26:
                    4a:0c:26:72:fe:1a:f7:6b:a7:b7:7c:3c:42:f6:7d:
                    c5:62:94:57:6d:e1:02:91:ef:ea:c1:80:14:6b:18:
                    e6:43:78:33:e4:fe:e8:23:0d:ae:83:fe:64:20:6a:
                    39:0a:ce:47:8f:99:d9:2b:7c:aa:83:b4:a8:f8:aa:
                    2f:39:54:3b:a6:c9:72:28:1c:2e:d5:40:2b:00:42:
                    b8:cf:ac:d4:17:32:10:a7:60:3b:57:bc:d1:52:82:
                    7b:15:20:be:48:28:2d:c6:a1:3a:db:2e:ed:7f:13:
                    ac:73
                Exponent: 65537 (0x10001)
        X509v3 extensions:
            X509v3 Basic Constraints: 
                CA:FALSE
            X509v3 Key Usage: 
                Digital Signature, Non Repudiation, Key Encipherment
            X509v3 Subject Alternative Name: 
                DNS:auth.metadatacenter.orgx
    Signature Algorithm: sha256WithRSAEncryption
         06:d9:36:54:b3:86:18:9c:45:fe:e7:bb:49:6e:0d:a6:5b:c1:
         94:56:90:7b:62:d0:fe:f0:8c:5d:c2:8e:ec:a1:5c:81:4b:9e:
         77:19:0c:31:f3:f9:fc:e4:1a:7b:d9:ac:4c:d1:86:2c:d9:eb:
         fe:d7:13:0e:54:32:a3:da:ec:2c:d5:81:0c:8b:9a:62:4d:1e:
         9f:d6:f6:9d:f2:f5:2f:d5:86:f8:fc:0a:0e:73:e4:66:75:ac:
         f0:46:6a:a5:51:7d:ea:30:06:74:e6:bc:8b:59:4d:92:64:9c:
         bd:85:d9:41:00:5b:aa:61:24:a9:f1:a7:88:d7:66:ec:a8:8a:
         da:8a:85:40:33:4b:23:84:8d:b1:d1:f3:fc:b2:1f:46:cf:0c:
         ea:48:bb:7b:3a:5b:f2:17:92:c7:a1:b2:f6:81:e1:d3:c8:45:
         4b:db:bb:7a:45:5f:d8:81:67:a0:83:10:d5:db:9e:2a:01:fc:
         f5:af:51:76:b5:1f:0b:10:7b:65:8d:29:02:d7:02:b2:16:5b:
         03:8e:b1:aa:9d:9d:c3:61:6f:14:5d:73:96:20:10:fa:81:d8:
         0f:87:83:fa:09:41:12:61:6c:f9:59:ed:40:bb:fe:3e:d4:a7:
         f8:20:8d:88:50:ac:1f:f5:1f:49:d7:0c:65:07:ee:73:be:21:
         7d:e5:f1:b9:5b:b5:44:99:cd:ea:b3:84:0e:83:88:94:e2:51:
         05:13:0c:4b:ad:99:b1:02:33:bd:be:7f:46:9f:b7:42:e0:01:
         f4:ac:eb:67:a1:49:98:2c:cb:e0:9e:55:0c:3f:06:a8:5b:62:
         9d:d1:97:3d:3e:a2:d2:89:1d:e0:a0:43:48:88:ac:79:3d:1f:
         62:69:ac:02:75:02:d7:c9:fa:93:37:eb:62:c6:af:81:31:d0:
         1f:c4:91:52:fa:6f:d2:4f:1a:a6:44:ca:aa:c4:45:41:2b:8c:
         e6:23:47:54:14:90:c6:a2:62:4e:09:c9:f4:df:b5:1b:63:8c:
         10:7f:b8:1f:b7:40:d4:f5:46:60:ea:1f:6b:fd:11:8d:ef:a6:
         7e:5d:aa:ee:81:92:55:1e:ee:6a:d4:c4:55:72:58:0e:13:e4:
         f7:07:ee:70:aa:7a:62:39:d0:95:20:78:97:31:83:56:c3:95:
         72:49:74:02:ae:56:8e:3b:67:e4:9e:42:a7:98:1a:2f:25:99:
         fb:02:fd:e8:3e:36:4f:de:a2:3a:93:31:fa:c6:df:f9:48:65:
         7f:e6:73:8f:58:c1:a7:73:8d:c8:47:fb:a3:bc:16:fc:fd:cc:
         72:5f:bc:93:bd:f5:28:97:8e:70:26:41:04:3e:65:99:40:40:
         93:a4:55:fd:0f:fb:87:c6
-----BEGIN CERTIFICATE-----
MIIE1DCCArygAwIBAgIBATANBgkqhkiG9w0BAQsFADCBkzELMAkGA1UEBhMCVVMx
CzAJBgNVBAgMAkNBMREwDwYDVQQHDAhTdGFuZm9yZDENMAsGA1UECgwEQk1JUjEO
MAwGA1UECwwFQ0VEQVIxHDAaBgNVBAMME21ldGFkYXRhY2VudGVyLm9yZ3gxJzAl
BgkqhkiG9w0BCQEWGG1ldGFkYXRhY2VudGVyQGdtYWlsLmNvbTAeFw0yNDAxMTgw
MDUwNDRaFw0yNjA0MjEwMDUwNDRaMIGFMQswCQYDVQQGEwJVUzELMAkGA1UECAwC
Q0ExDTALBgNVBAoMBEJNSVIxDjAMBgNVBAsMBUNFREFSMSEwHwYDVQQDDBhhdXRo
Lm1ldGFkYXRhY2VudGVyLm9yZ3gxJzAlBgkqhkiG9w0BCQEWGG1ldGFkYXRhY2Vu
dGVyQGdtYWlsLmNvbTCCASIwDQYJKoZIhvcNAQEBBQADggEPADCCAQoCggEBAOoC
o7Pj7DmbLqPATLcTmCi7koIPZzRj/jiyHIc89ab4FZSYyOywxt2ogEjCAwucmA6L
n9PagVx4cRjzAsro+ER8ka79KpCruLyZGirduNtItcqLxVUXrMpem+vwqmsrSQbe
MesdKdQUK8zTVjsd42dQPa9+18SgUdSrxAdCrFPhAOZNjKJfKQVQg+qx0rNqQArT
rUUmSgwmcv4a92unt3w8QvZ9xWKUV23hApHv6sGAFGsY5kN4M+T+6CMNroP+ZCBq
OQrOR4+Z2St8qoO0qPiqLzlUO6bJcigcLtVAKwBCuM+s1BcyEKdgO1e80VKCexUg
vkgoLcahOtsu7X8TrHMCAwEAAaM/MD0wCQYDVR0TBAIwADALBgNVHQ8EBAMCBeAw
IwYDVR0RBBwwGoIYYXV0aC5tZXRhZGF0YWNlbnRlci5vcmd4MA0GCSqGSIb3DQEB
CwUAA4ICAQAG2TZUs4YYnEX+57tJbg2mW8GUVpB7YtD+8Ixdwo7soVyBS553GQwx
8/n85Bp72axM0YYs2ev+1xMOVDKj2uws1YEMi5piTR6f1vad8vUv1Yb4/AoOc+Rm
dazwRmqlUX3qMAZ05ryLWU2SZJy9hdlBAFuqYSSp8aeI12bsqIraioVAM0sjhI2x
0fP8sh9GzwzqSLt7OlvyF5LHobL2geHTyEVL27t6RV/YgWeggxDV254qAfz1r1F2
tR8LEHtljSkC1wKyFlsDjrGqnZ3DYW8UXXOWIBD6gdgPh4P6CUESYWz5We1Au/4+
1Kf4II2IUKwf9R9J1wxlB+5zviF95fG5W7VEmc3qs4QOg4iU4lEFEwxLrZmxAjO9
vn9Gn7dC4AH0rOtnoUmYLMvgnlUMPwaoW2Kd0Zc9PqLSiR3goENIiKx5PR9iaawC
dQLXyfqTN+tixq+BMdAfxJFS+m/STxqmRMqqxEVBK4zmI0dUFJDGomJOCcn037Ub
Y4wQf7gft0DU9UZg6h9r/RGN76Z+XarugZJVHu5q1MRVclgOE+T3B+5wqnpiOdCV
IHiXMYNWw5VySXQCrlaOO2fknkKnmBovJZn7Av3oPjZP3qI6kzH6xt/5SGV/5nOP
WMGnc43IR/ujvBb8/cxyX7yTvfUol45wJkEEPmWZQECTpFX9D/uHxg==
-----END CERTIFICATE-----
