Certificate:
    Data:
        Version: 3 (0x2)
        Serial Number: 8 (0x8)
        Signature Algorithm: sha256WithRSAEncryption
        Issuer: C=US, ST=CA, L=Stanford, O=BMIR, OU=CEDAR, CN=metadatacenter.orgx/emailAddress=metadatacenter@gmail.com
        Validity
            Not Before: Jan 18 00:50:45 2024 GMT
            Not After : Apr 21 00:50:45 2026 GMT
        Subject: C=US, ST=CA, O=BMIR, OU=CEDAR, CN=open.metadatacenter.orgx/emailAddress=metadatacenter@gmail.com
        Subject Public Key Info:
            Public Key Algorithm: rsaEncryption
                RSA Public-Key: (2048 bit)
                Modulus:
                    00:a9:51:7d:9c:ba:33:e9:21:3f:e9:23:ef:44:aa:
                    2d:bf:2f:2b:91:b2:02:5d:db:bd:02:30:ed:75:0f:
                    9b:ee:7f:db:ad:47:86:ac:cd:4f:54:3d:da:fc:ce:
                    e6:dc:b8:cd:3a:26:91:09:54:67:6c:09:a6:80:28:
                    02:32:9e:d2:ed:6d:40:1f:72:03:7f:f9:a7:97:87:
                    af:b3:64:16:61:5c:ab:63:ce:3b:a2:cc:e6:f8:db:
                    a9:36:f8:f2:91:0d:28:34:86:d1:62:c4:ba:c9:c8:
                    4d:50:01:56:d4:13:c2:01:5e:f7:c1:4d:24:15:6a:
                    5d:7f:1d:b6:67:24:ad:5a:1c:e7:16:4d:b9:ca:12:
                    8e:82:18:6b:75:b6:27:0a:00:46:8e:c6:d1:1a:2a:
                    42:b4:c4:8d:86:44:1a:a1:5e:f3:a9:df:f5:bc:bd:
                    72:ac:60:c9:a7:79:67:cd:3e:7c:79:23:64:ef:20:
                    56:9c:07:3a:0e:ae:f7:23:b4:26:41:dd:d0:23:05:
                    b1:9e:78:60:4b:31:7a:04:a2:16:ff:c8:09:fa:48:
                    ed:a0:3f:30:fa:09:fa:35:d3:29:0b:c7:bd:13:fb:
                    44:18:6f:5d:7c:2c:c2:2f:58:a0:d2:3f:f1:38:1b:
                    3c:fb:fb:1b:e5:9a:23:19:16:fe:5f:71:aa:b2:a5:
                    a2:01
                Exponent: 65537 (0x10001)
        X509v3 extensions:
            X509v3 Basic Constraints: 
                CA:FALSE
            X509v3 Key Usage: 
                Digital Signature, Non Repudiation, Key Encipherment
            X509v3 Subject Alternative Name: 
                DNS:open.metadatacenter.orgx
    Signature Algorithm: sha256WithRSAEncryption
         41:61:7b:a8:1f:7c:a5:ea:a7:b7:3d:94:94:b7:92:52:ba:e4:
         9e:77:0e:dd:10:3f:98:d9:d7:8e:c0:37:fc:13:68:75:ab:c0:
         3f:fa:e2:86:31:a1:ef:32:9b:7a:2e:2d:b9:9d:74:b9:08:b0:
         db:e0:a4:58:c9:6e:71:2b:d7:ff:c3:0f:ac:9a:ca:88:21:3f:
         c5:21:63:77:ae:3a:20:50:a5:d7:03:8d:08:93:1f:8c:4a:26:
         e3:7e:82:a8:2a:63:82:02:6f:94:f8:01:bf:75:d3:5c:1d:15:
         85:4f:54:6e:25:64:37:04:36:2f:4c:d2:8b:d4:4c:c0:6b:00:
         ae:c1:f0:4f:9f:d7:8b:a6:60:ca:42:8d:57:be:41:18:32:fd:
         51:60:92:b4:02:1f:c9:df:91:ec:54:80:cf:28:1b:05:e6:03:
         fb:bd:6b:90:f9:4a:ae:9b:41:f8:ff:a0:3c:0e:0f:99:3e:ec:
         6e:4e:24:b7:45:4e:d9:3d:81:89:c5:62:3e:aa:ae:ab:c4:dd:
         10:f8:37:35:18:0d:f3:e4:06:3a:a5:c8:2a:b2:89:59:47:72:
         86:59:53:24:90:1b:53:ec:3d:5d:2b:f4:1e:be:d2:3c:78:e2:
         b3:25:15:87:12:b0:2c:3c:bc:5c:a7:df:de:e4:f2:44:ea:3f:
         8b:db:5b:95:ae:e4:29:c2:57:92:17:64:e5:27:a1:36:39:15:
         69:e9:77:0d:f3:cb:74:d7:12:72:0f:8e:57:6b:9c:97:be:9f:
         fd:68:78:15:2d:84:48:65:82:b7:df:df:30:9a:d5:0b:e7:50:
         82:46:fd:c9:54:6e:a6:9f:42:03:34:07:40:39:9d:39:58:6a:
         a5:c5:b4:9f:5c:ff:04:ab:5d:e7:27:cf:34:f4:92:95:d3:33:
         29:61:0d:42:d9:a5:5b:89:f4:eb:4a:9c:de:e9:f4:24:ec:f0:
         82:18:80:69:c4:d0:75:fd:a6:8d:1c:2b:fa:a9:db:7c:c3:62:
         23:f5:6e:96:46:73:a5:90:d3:8d:01:6d:92:19:32:6f:56:bc:
         c1:f2:7e:35:7e:e3:ea:59:a8:14:cd:a8:7d:b6:4e:09:f9:3d:
         79:06:25:cf:ba:ec:01:94:90:34:bb:9d:14:9d:0a:c2:b8:e7:
         da:b3:37:1c:ad:54:41:06:c1:2d:83:d0:ef:14:44:e4:78:ba:
         67:08:d3:7b:be:49:27:f7:18:3e:13:23:80:bc:77:53:c4:17:
         86:fb:78:dd:2a:91:40:d6:4c:2e:77:48:48:fe:77:e0:c4:aa:
         dd:d0:68:4b:bb:0f:8a:ba:24:23:70:c3:7d:0e:0d:00:2e:cf:
         b8:ad:33:41:ff:52:a1:33
-----BEGIN CERTIFICATE-----
MIIE1DCCArygAwIBAgIBCDANBgkqhkiG9w0BAQsFADCBkzELMAkGA1UEBhMCVVMx
CzAJBgNVBAgMAkNBMREwDwYDVQQHDAhTdGFuZm9yZDENMAsGA1UECgwEQk1JUjEO
MAwGA1UECwwFQ0VEQVIxHDAaBgNVBAMME21ldGFkYXRhY2VudGVyLm9yZ3gxJzAl
BgkqhkiG9w0BCQEWGG1ldGFkYXRhY2VudGVyQGdtYWlsLmNvbTAeFw0yNDAxMTgw
MDUwNDVaFw0yNjA0MjEwMDUwNDVaMIGFMQswCQYDVQQGEwJVUzELMAkGA1UECAwC
Q0ExDTALBgNVBAoMBEJNSVIxDjAMBgNVBAsMBUNFREFSMSEwHwYDVQQDDBhvcGVu
Lm1ldGFkYXRhY2VudGVyLm9yZ3gxJzAlBgkqhkiG9w0BCQEWGG1ldGFkYXRhY2Vu
dGVyQGdtYWlsLmNvbTCCASIwDQYJKoZIhvcNAQEBBQADggEPADCCAQoCggEBAKlR
fZy6M+khP+kj70SqLb8vK5GyAl3bvQIw7XUPm+5/261HhqzNT1Q92vzO5ty4zTom
kQlUZ2wJpoAoAjKe0u1tQB9yA3/5p5eHr7NkFmFcq2POO6LM5vjbqTb48pENKDSG
0WLEusnITVABVtQTwgFe98FNJBVqXX8dtmckrVoc5xZNucoSjoIYa3W2JwoARo7G
0RoqQrTEjYZEGqFe86nf9by9cqxgyad5Z80+fHkjZO8gVpwHOg6u9yO0JkHd0CMF
sZ54YEsxegSiFv/ICfpI7aA/MPoJ+jXTKQvHvRP7RBhvXXwswi9YoNI/8TgbPPv7
G+WaIxkW/l9xqrKlogECAwEAAaM/MD0wCQYDVR0TBAIwADALBgNVHQ8EBAMCBeAw
IwYDVR0RBBwwGoIYb3Blbi5tZXRhZGF0YWNlbnRlci5vcmd4MA0GCSqGSIb3DQEB
CwUAA4ICAQBBYXuoH3yl6qe3PZSUt5JSuuSedw7dED+Y2deOwDf8E2h1q8A/+uKG
MaHvMpt6Li25nXS5CLDb4KRYyW5xK9f/ww+smsqIIT/FIWN3rjogUKXXA40Ikx+M
SibjfoKoKmOCAm+U+AG/ddNcHRWFT1RuJWQ3BDYvTNKL1EzAawCuwfBPn9eLpmDK
Qo1XvkEYMv1RYJK0Ah/J35HsVIDPKBsF5gP7vWuQ+Uqum0H4/6A8Dg+ZPuxuTiS3
RU7ZPYGJxWI+qq6rxN0Q+Dc1GA3z5AY6pcgqsolZR3KGWVMkkBtT7D1dK/QevtI8
eOKzJRWHErAsPLxcp9/e5PJE6j+L21uVruQpwleSF2TlJ6E2ORVp6XcN88t01xJy
D45Xa5yXvp/9aHgVLYRIZYK3398wmtUL51CCRv3JVG6mn0IDNAdAOZ05WGqlxbSf
XP8Eq13nJ8809JKV0zMpYQ1C2aVbifTrSpze6fQk7PCCGIBpxNB1/aaNHCv6qdt8
w2Ij9W6WRnOlkNONAW2SGTJvVrzB8n41fuPqWagUzah9tk4J+T15BiXPuuwBlJA0
u50UnQrCuOfaszccrVRBBsEtg9DvFETkeLpnCNN7vkkn9xg+EyOAvHdTxBeG+3jd
KpFA1kwud0hI/nfgxKrd0GhLuw+KuiQjcMN9Dg0ALs+4rTNB/1KhMw==
-----END CERTIFICATE-----
