Certificate:
    Data:
        Version: 3 (0x2)
        Serial Number: 17 (0x11)
        Signature Algorithm: sha256WithRSAEncryption
        Issuer: C=US, ST=CA, L=Stanford, O=BMIR, OU=CEDAR, CN=metadatacenter.orgx/emailAddress=metadatacenter@gmail.com
        Validity
            Not Before: Jan 17 21:50:44 2024 GMT
            Not After : Apr 20 21:50:44 2026 GMT
        Subject: C=US, ST=CA, O=BMIR, OU=CEDAR, CN=cedar.metadatacenter.orgx/emailAddress=metadatacenter@gmail.com
        Subject Public Key Info:
            Public Key Algorithm: rsaEncryption
                RSA Public-Key: (2048 bit)
                Modulus:
                    00:b9:98:51:be:8f:20:b0:65:58:ab:95:26:aa:65:
                    ed:c0:d7:4a:01:83:38:59:6a:9f:ef:f0:5d:ee:77:
                    e9:d7:f3:4e:c1:97:99:60:db:e8:f1:6a:b1:fe:91:
                    05:ab:b0:4f:3f:e3:06:7a:a9:6b:fa:0b:dd:89:d4:
                    e4:fc:89:d1:6c:6a:a0:b8:8c:4e:fc:6a:95:fa:51:
                    5a:d4:e6:13:bc:95:c5:7c:78:59:29:ab:e5:7a:6a:
                    42:7b:35:9e:b2:11:47:87:04:f0:de:d4:a0:7e:c0:
                    9f:ac:bc:28:20:22:7e:d3:0f:33:c7:09:f7:d6:8a:
                    1b:d9:4d:f5:b9:16:19:8d:6b:6e:87:e8:93:27:2e:
                    d9:49:3c:63:99:43:6d:4e:af:e8:fa:97:80:47:98:
                    70:c9:2a:d8:dd:df:cc:2d:49:ae:4c:9c:84:43:45:
                    59:74:97:b5:fa:de:de:af:90:df:90:08:f7:9f:60:
                    9f:94:ff:48:03:86:74:c5:17:0a:af:dc:f4:d5:85:
                    06:61:b5:5d:e2:a0:d3:05:df:c8:f6:bb:d1:a2:35:
                    d7:7e:f4:3b:bd:17:21:75:2b:24:8d:f2:e0:86:d7:
                    24:52:c2:8a:55:51:86:a5:35:69:7d:4c:27:b0:5f:
                    78:63:66:31:51:37:34:f8:f3:60:00:4f:87:1d:2b:
                    16:9f
                Exponent: 65537 (0x10001)
        X509v3 extensions:
            X509v3 Basic Constraints: 
                CA:FALSE
            X509v3 Key Usage: 
                Digital Signature, Non Repudiation, Key Encipherment
            X509v3 Subject Alternative Name: 
                DNS:cedar.metadatacenter.orgx
    Signature Algorithm: sha256WithRSAEncryption
         66:8a:a2:5c:e8:f0:39:a9:f2:2d:fd:5c:c7:97:d2:b3:11:1a:
         b9:35:7e:4f:7e:2f:b6:18:87:58:4c:a7:ad:c8:68:ab:e4:81:
         46:be:0c:c5:60:c5:1a:f8:08:a6:11:7f:29:d5:58:bc:c7:b8:
         be:35:91:c8:a2:cb:bf:d3:38:80:c0:e4:d8:d3:55:b8:0c:a0:
         ae:0b:87:3d:a9:68:54:a5:67:39:53:80:b9:f6:40:4c:75:cb:
         75:8d:6d:53:b5:7b:40:e0:d1:fb:8d:37:01:04:d3:07:c8:0a:
         fe:0a:4c:18:db:08:c1:e4:aa:04:dd:9b:e0:1f:4f:f6:66:0c:
         01:1f:ff:ae:cd:9e:db:f3:30:b3:6d:1f:20:f8:75:e3:7e:4c:
         45:3f:32:35:42:28:8e:eb:1e:e0:15:e5:4b:2e:d0:4b:fd:db:
         39:3c:99:4d:8d:d0:6d:26:64:72:ee:77:f8:60:53:54:41:9e:
         4d:c7:db:91:4b:59:24:f1:62:81:7c:b3:77:0e:38:f8:33:9e:
         8b:ec:59:25:12:45:a2:4b:b7:8c:0c:e9:51:61:1a:72:cb:37:
         11:5c:55:05:41:b0:3f:9e:d4:cc:cf:c7:52:78:7d:0d:45:5b:
         fe:8a:7e:d7:b0:64:c9:25:37:89:6c:c9:16:5c:ad:7c:91:ff:
         6a:93:d6:dd:24:ba:4c:c1:7b:ee:cf:b8:cf:0c:35:7a:88:60:
         19:9b:59:4d:17:c6:f6:76:21:f5:86:e3:84:25:5f:4a:39:a8:
         4b:49:1a:6d:25:21:32:62:34:c9:23:44:74:5c:26:79:55:bb:
         3d:9d:af:78:f7:22:60:a6:2f:53:a3:15:e7:7c:18:58:cf:ae:
         02:b5:83:54:3d:dd:5d:27:20:59:da:11:0a:b2:c0:99:35:f5:
         14:37:23:2c:1e:b7:3d:ba:56:41:49:52:9e:fd:70:22:4c:6e:
         82:8d:34:bd:de:d3:ca:20:a0:69:7f:82:77:a8:47:b1:b8:34:
         01:d8:a3:b5:d7:c2:3a:d5:d4:df:3e:2b:40:e6:95:8d:8f:70:
         2a:c4:f5:c7:ce:d8:72:25:0c:66:c6:55:96:0e:8e:d3:af:7c:
         ae:4b:a2:3c:33:5d:e9:0f:72:37:1a:53:7f:af:d9:14:f7:b6:
         70:89:4e:3f:2b:38:f0:2c:4e:e0:d7:bc:d0:d6:fb:7d:e5:83:
         2e:03:84:00:12:7d:e5:27:c2:fe:d5:17:8a:bf:d7:ea:c3:e8:
         76:c6:d6:60:a8:a2:2f:27:9c:ad:07:08:e8:60:d6:0a:c6:d2:
         d4:f8:b7:bc:30:ea:1d:24:09:00:dd:48:27:b2:11:47:4f:ed:
         b9:e5:49:e5:9b:d5:be:7c
-----BEGIN CERTIFICATE-----
MIIE1jCCAr6gAwIBAgIBETANBgkqhkiG9w0BAQsFADCBkzELMAkGA1UEBhMCVVMx
CzAJBgNVBAgMAkNBMREwDwYDVQQHDAhTdGFuZm9yZDENMAsGA1UECgwEQk1JUjEO
MAwGA1UECwwFQ0VEQVIxHDAaBgNVBAMME21ldGFkYXRhY2VudGVyLm9yZ3gxJzAl
BgkqhkiG9w0BCQEWGG1ldGFkYXRhY2VudGVyQGdtYWlsLmNvbTAeFw0yNDAxMTcy
MTUwNDRaFw0yNjA0MjAyMTUwNDRaMIGGMQswCQYDVQQGEwJVUzELMAkGA1UECAwC
Q0ExDTALBgNVBAoMBEJNSVIxDjAMBgNVBAsMBUNFREFSMSIwIAYDVQQDDBljZWRh
ci5tZXRhZGF0YWNlbnRlci5vcmd4MScwJQYJKoZIhvcNAQkBFhhtZXRhZGF0YWNl
bnRlckBnbWFpbC5jb20wggEiMA0GCSqGSIb3DQEBAQUAA4IBDwAwggEKAoIBAQC5
mFG+jyCwZVirlSaqZe3A10oBgzhZap/v8F3ud+nX807Bl5lg2+jxarH+kQWrsE8/
4wZ6qWv6C92J1OT8idFsaqC4jE78apX6UVrU5hO8lcV8eFkpq+V6akJ7NZ6yEUeH
BPDe1KB+wJ+svCggIn7TDzPHCffWihvZTfW5FhmNa26H6JMnLtlJPGOZQ21Or+j6
l4BHmHDJKtjd38wtSa5MnIRDRVl0l7X63t6vkN+QCPefYJ+U/0gDhnTFFwqv3PTV
hQZhtV3ioNMF38j2u9GiNdd+9Du9FyF1KySN8uCG1yRSwopVUYalNWl9TCewX3hj
ZjFRNzT482AAT4cdKxafAgMBAAGjQDA+MAkGA1UdEwQCMAAwCwYDVR0PBAQDAgXg
MCQGA1UdEQQdMBuCGWNlZGFyLm1ldGFkYXRhY2VudGVyLm9yZ3gwDQYJKoZIhvcN
AQELBQADggIBAGaKolzo8Dmp8i39XMeX0rMRGrk1fk9+L7YYh1hMp63IaKvkgUa+
DMVgxRr4CKYRfynVWLzHuL41kciiy7/TOIDA5NjTVbgMoK4Lhz2paFSlZzlTgLn2
QEx1y3WNbVO1e0Dg0fuNNwEE0wfICv4KTBjbCMHkqgTdm+AfT/ZmDAEf/67Nntvz
MLNtHyD4deN+TEU/MjVCKI7rHuAV5Usu0Ev92zk8mU2N0G0mZHLud/hgU1RBnk3H
25FLWSTxYoF8s3cOOPgznovsWSUSRaJLt4wM6VFhGnLLNxFcVQVBsD+e1MzPx1J4
fQ1FW/6KftewZMklN4lsyRZcrXyR/2qT1t0kukzBe+7PuM8MNXqIYBmbWU0XxvZ2
IfWG44QlX0o5qEtJGm0lITJiNMkjRHRcJnlVuz2dr3j3ImCmL1OjFed8GFjPrgK1
g1Q93V0nIFnaEQqywJk19RQ3Iywetz26VkFJUp79cCJMboKNNL3e08ogoGl/gneo
R7G4NAHYo7XXwjrV1N8+K0DmlY2PcCrE9cfO2HIlDGbGVZYOjtOvfK5LojwzXekP
cjcaU3+v2RT3tnCJTj8rOPAsTuDXvNDW+33lgy4DhAASfeUnwv7VF4q/1+rD6HbG
1mCooi8nnK0HCOhg1grG0tT4t7ww6h0kCQDdSCeyEUdP7bnlSeWb1b58
-----END CERTIFICATE-----
