Certificate:
    Data:
        Version: 3 (0x2)
        Serial Number: 22 (0x16)
        Signature Algorithm: sha256WithRSAEncryption
        Issuer: C=US, ST=CA, L=Stanford, O=BMIR, OU=CEDAR, CN=metadatacenter.orgx/emailAddress=metadatacenter@gmail.com
        Validity
            Not Before: Jan 18 00:50:46 2024 GMT
            Not After : Apr 21 00:50:46 2026 GMT
        Subject: C=US, ST=CA, O=BMIR, OU=CEDAR, CN=bridging.metadatacenter.orgx/emailAddress=metadatacenter@gmail.com
        Subject Public Key Info:
            Public Key Algorithm: rsaEncryption
                RSA Public-Key: (2048 bit)
                Modulus:
                    00:be:21:a4:1f:ff:1e:4c:90:71:2f:44:0c:e1:f0:
                    71:1b:30:b2:32:f0:a5:47:e5:54:10:14:aa:b9:ba:
                    ae:d1:ca:51:82:18:c6:cf:16:6c:f9:09:47:20:7e:
                    5a:5f:8e:8b:77:7b:27:54:bc:76:d6:2a:ef:74:60:
                    e2:c5:76:0c:74:5c:11:2d:70:82:af:1b:04:ac:4a:
                    da:d3:73:0d:42:5d:76:a8:f9:30:0d:fa:d5:61:f5:
                    60:d6:23:62:eb:ee:fd:e6:1d:8b:a8:f7:09:bf:87:
                    dd:56:25:3a:49:2a:fc:66:f7:f0:03:67:a4:88:17:
                    61:30:16:67:73:fe:90:c6:11:da:45:9a:24:e2:aa:
                    40:a3:27:44:24:7f:cf:de:f6:19:0f:11:ea:e7:b1:
                    c3:e9:92:dc:87:5e:bd:4c:af:ce:87:77:8a:5d:00:
                    1e:5e:b1:d2:1e:96:1d:3c:74:80:50:0f:d5:8d:58:
                    77:b4:d2:39:13:72:10:e6:85:05:46:22:18:49:2c:
                    57:1b:b1:ba:a2:f8:0d:1c:f5:94:47:79:7d:a2:59:
                    a0:1d:69:24:f9:7b:04:4b:b9:3d:55:91:3d:ba:aa:
                    98:9c:45:74:11:4c:12:a4:04:dc:19:4e:2e:fd:26:
                    06:07:ab:bf:46:54:1f:a8:d3:10:f3:50:03:f9:b8:
                    80:01
                Exponent: 65537 (0x10001)
        X509v3 extensions:
            X509v3 Basic Constraints: 
                CA:FALSE
            X509v3 Key Usage: 
                Digital Signature, Non Repudiation, Key Encipherment
            X509v3 Subject Alternative Name: 
                DNS:bridging.metadatacenter.orgx
    Signature Algorithm: sha256WithRSAEncryption
         a0:0f:42:6b:bb:5e:d7:53:cc:7f:1e:d3:e2:53:d2:4f:40:02:
         08:24:04:7a:ca:20:0f:19:60:99:aa:d8:3b:0f:0b:af:b0:4e:
         d6:4f:97:77:53:23:45:04:16:72:16:5f:54:b0:9b:79:bb:58:
         e2:be:00:97:c2:ae:77:a9:cb:c2:87:15:70:d8:7b:a6:1c:61:
         80:d0:03:47:0b:1a:29:94:de:c4:cd:cd:cd:ac:83:e0:ab:7e:
         d5:1c:71:5c:19:ac:bf:b6:15:47:bd:c2:df:84:dc:16:72:74:
         e6:1f:d2:47:dc:d6:1a:b8:13:ed:db:5b:a3:11:71:5a:fc:00:
         54:55:07:ab:c8:d5:d9:e9:14:cd:fc:a5:6e:a2:44:a6:4d:07:
         bd:76:93:db:20:f1:d1:e2:c3:2c:92:46:0b:01:6f:49:f3:be:
         99:8a:5f:10:35:dd:eb:46:b5:da:a1:6f:96:45:fe:75:20:4a:
         ad:fc:43:c8:8a:b7:11:ed:87:b0:60:7f:93:78:a9:9a:9a:7f:
         c8:15:d0:99:8e:f6:28:f5:6f:db:cf:b4:d9:22:e0:30:e8:3b:
         57:a4:8c:2e:e1:2c:e1:e5:2c:2b:ff:3d:44:01:5e:4e:40:c9:
         e7:5c:bc:4e:bf:6b:6a:04:93:99:a8:ec:f5:bf:bf:11:a8:10:
         31:ae:4f:12:e8:83:13:0b:ce:b4:e4:49:bb:b0:9f:1c:df:1f:
         eb:3e:e8:7f:d9:a8:f4:78:34:d3:8d:28:8e:6d:0f:5c:8d:f8:
         88:3a:a5:92:86:10:14:28:ee:cd:f8:8b:74:20:8f:12:64:81:
         61:e4:a0:e0:b9:39:08:d9:7f:23:15:6c:13:6c:c1:4f:0d:36:
         65:ff:f0:eb:61:2a:cf:f0:28:1c:75:9b:51:84:98:8d:a9:8d:
         b9:b2:92:30:9f:29:d5:f9:76:4e:0c:5f:b5:5a:66:f1:e6:a2:
         3a:86:b8:bd:37:45:37:db:3d:60:5b:0b:1d:eb:ec:dd:6e:6c:
         2e:36:93:70:ff:1b:33:f4:b9:3c:35:c6:5f:06:63:76:07:9c:
         7a:bf:a4:bb:7f:43:d0:a4:f4:73:06:08:d1:c0:1c:9b:3e:57:
         7e:d3:ea:a4:a9:a7:91:c8:ed:b6:96:2e:98:c7:c1:f7:2d:a4:
         7a:03:7d:2f:0c:23:7f:b2:58:eb:d4:1d:73:ec:9d:22:21:e6:
         2d:86:d6:df:47:db:e9:25:e3:b1:68:ab:c8:4c:d7:7e:5e:f5:
         36:8c:3d:1b:c1:42:54:4c:79:51:73:b0:11:7c:a1:f6:7b:8a:
         49:8e:25:68:d7:e4:e4:55:f3:af:f5:8a:9e:89:d0:f7:97:4c:
         ec:8d:6f:f7:70:6f:87:54
-----BEGIN CERTIFICATE-----
MIIE3DCCAsSgAwIBAgIBFjANBgkqhkiG9w0BAQsFADCBkzELMAkGA1UEBhMCVVMx
CzAJBgNVBAgMAkNBMREwDwYDVQQHDAhTdGFuZm9yZDENMAsGA1UECgwEQk1JUjEO
MAwGA1UECwwFQ0VEQVIxHDAaBgNVBAMME21ldGFkYXRhY2VudGVyLm9yZ3gxJzAl
BgkqhkiG9w0BCQEWGG1ldGFkYXRhY2VudGVyQGdtYWlsLmNvbTAeFw0yNDAxMTgw
MDUwNDZaFw0yNjA0MjEwMDUwNDZaMIGJMQswCQYDVQQGEwJVUzELMAkGA1UECAwC
Q0ExDTALBgNVBAoMBEJNSVIxDjAMBgNVBAsMBUNFREFSMSUwIwYDVQQDDBxicmlk
Z2luZy5tZXRhZGF0YWNlbnRlci5vcmd4MScwJQYJKoZIhvcNAQkBFhhtZXRhZGF0
YWNlbnRlckBnbWFpbC5jb20wggEiMA0GCSqGSIb3DQEBAQUAA4IBDwAwggEKAoIB
AQC+IaQf/x5MkHEvRAzh8HEbMLIy8KVH5VQQFKq5uq7RylGCGMbPFmz5CUcgflpf
jot3eydUvHbWKu90YOLFdgx0XBEtcIKvGwSsStrTcw1CXXao+TAN+tVh9WDWI2Lr
7v3mHYuo9wm/h91WJTpJKvxm9/ADZ6SIF2EwFmdz/pDGEdpFmiTiqkCjJ0Qkf8/e
9hkPEernscPpktyHXr1Mr86Hd4pdAB5esdIelh08dIBQD9WNWHe00jkTchDmhQVG
IhhJLFcbsbqi+A0c9ZRHeX2iWaAdaST5ewRLuT1VkT26qpicRXQRTBKkBNwZTi79
JgYHq79GVB+o0xDzUAP5uIABAgMBAAGjQzBBMAkGA1UdEwQCMAAwCwYDVR0PBAQD
AgXgMCcGA1UdEQQgMB6CHGJyaWRnaW5nLm1ldGFkYXRhY2VudGVyLm9yZ3gwDQYJ
KoZIhvcNAQELBQADggIBAKAPQmu7XtdTzH8e0+JT0k9AAggkBHrKIA8ZYJmq2DsP
C6+wTtZPl3dTI0UEFnIWX1Swm3m7WOK+AJfCrnepy8KHFXDYe6YcYYDQA0cLGimU
3sTNzc2sg+CrftUccVwZrL+2FUe9wt+E3BZydOYf0kfc1hq4E+3bW6MRcVr8AFRV
B6vI1dnpFM38pW6iRKZNB712k9sg8dHiwyySRgsBb0nzvpmKXxA13etGtdqhb5ZF
/nUgSq38Q8iKtxHth7Bgf5N4qZqaf8gV0JmO9ij1b9vPtNki4DDoO1ekjC7hLOHl
LCv/PUQBXk5AyedcvE6/a2oEk5mo7PW/vxGoEDGuTxLogxMLzrTkSbuwnxzfH+s+
6H/ZqPR4NNONKI5tD1yN+Ig6pZKGEBQo7s34i3QgjxJkgWHkoOC5OQjZfyMVbBNs
wU8NNmX/8OthKs/wKBx1m1GEmI2pjbmykjCfKdX5dk4MX7VaZvHmojqGuL03RTfb
PWBbCx3r7N1ubC42k3D/GzP0uTw1xl8GY3YHnHq/pLt/Q9Ck9HMGCNHAHJs+V37T
6qSpp5HI7baWLpjHwfctpHoDfS8MI3+yWOvUHXPsnSIh5i2G1t9H2+kl47Foq8hM
135e9TaMPRvBQlRMeVFzsBF8ofZ7ikmOJWjX5ORV86/1ip6J0PeXTOyNb/dwb4dU
-----END CERTIFICATE-----
