Certificate:
    Data:
        Version: 3 (0x2)
        Serial Number: 30 (0x1e)
        Signature Algorithm: sha256WithRSAEncryption
        Issuer: C=US, ST=CA, L=Stanford, O=BMIR, OU=CEDAR, CN=metadatacenter.orgx/emailAddress=metadatacenter@gmail.com
        Validity
            Not Before: Jun 13 22:12:54 2023 GMT
            Not After : Sep 14 22:12:54 2025 GMT
        Subject: C=US, ST=CA, O=BMIR, OU=CEDAR, CN=bridging.metadatacenter.orgx/emailAddress=metadatacenter@gmail.com
        Subject Public Key Info:
            Public Key Algorithm: rsaEncryption
                RSA Public-Key: (2048 bit)
                Modulus:
                    00:c6:73:9b:f6:a9:3d:39:4e:a3:40:bd:95:b4:e2:
                    1d:54:b0:a1:f1:93:1f:18:2c:ec:d4:2f:51:31:1b:
                    5f:27:a2:e3:99:fb:63:4b:c4:60:5a:fa:f6:f5:f9:
                    3c:46:cf:45:7a:f3:57:e9:cc:07:9a:28:98:78:91:
                    f0:d5:0f:59:a5:bd:e8:79:f7:64:12:ba:0d:dc:e1:
                    28:66:dc:17:72:ee:36:98:95:85:78:59:40:43:c4:
                    5d:5b:99:33:03:8b:22:ee:aa:db:c8:4e:81:c8:01:
                    3b:9d:65:db:17:f9:6a:31:95:0d:39:9b:e8:cc:d9:
                    f1:a7:23:92:43:e5:da:af:59:31:8d:46:e7:a9:dd:
                    ba:dc:90:c9:5c:71:7c:94:93:fc:ee:d0:cb:bb:48:
                    d4:ad:a5:07:12:ed:84:17:4f:6c:54:cb:d6:2f:62:
                    39:b7:86:21:36:09:04:12:9c:24:2d:4d:04:df:f0:
                    5f:47:0f:a1:f6:97:4d:40:cb:b5:80:69:8d:3b:6d:
                    45:49:57:94:27:de:0b:5e:06:6e:7e:4a:cf:b0:f5:
                    da:8a:cb:cf:54:0b:bf:5e:53:2e:b1:f2:1d:b1:c7:
                    6b:cc:e9:87:ff:80:8c:06:e2:30:66:61:15:d7:19:
                    a7:79:c2:17:61:f2:45:3e:f6:fd:72:4f:1f:f4:dc:
                    49:5d
                Exponent: 65537 (0x10001)
        X509v3 extensions:
            X509v3 Basic Constraints: 
                CA:FALSE
            X509v3 Key Usage: 
                Digital Signature, Non Repudiation, Key Encipherment
            X509v3 Subject Alternative Name: 
                DNS:bridging.metadatacenter.orgx
    Signature Algorithm: sha256WithRSAEncryption
         44:f4:80:2c:7a:91:fa:72:b3:35:dc:59:7a:58:ed:45:c6:df:
         fc:24:d8:31:3a:3b:f1:c9:ba:1f:6b:24:af:a2:cf:5f:05:9e:
         f8:f2:00:8e:fb:36:9f:74:fe:71:c6:08:61:70:33:cb:bc:b7:
         9f:6e:84:f8:2b:fe:6f:31:0b:27:fc:1e:dd:0b:8f:ad:6e:84:
         27:92:52:38:d2:c7:f2:aa:3b:0d:cb:6a:34:1e:9f:d5:50:f4:
         e5:43:43:84:41:08:18:d9:2a:64:d1:74:5b:75:d2:57:b8:66:
         a1:5a:d8:5a:26:07:fb:a6:2f:44:d4:9d:6e:88:e4:9e:33:37:
         99:df:21:97:26:bc:ae:19:42:a5:0c:ae:f3:ce:8a:fb:79:24:
         f6:92:53:56:43:32:21:e5:54:b8:02:a5:d5:14:49:39:1e:af:
         5d:12:c7:92:34:6a:6a:ca:7f:c2:d1:dc:1c:a9:81:5d:74:c8:
         14:18:6b:e9:4d:24:49:87:cf:44:f7:4d:93:02:d4:1d:a7:51:
         86:08:f6:bf:b3:f6:35:73:bf:4b:11:58:db:31:13:9b:6c:09:
         72:80:1c:62:15:2e:42:f7:ad:b7:d8:97:8a:7f:77:d9:9f:b7:
         af:59:ae:7c:3d:d8:3a:37:08:12:db:17:20:a1:19:f3:c5:d8:
         b4:1e:6c:8a:47:2c:07:9d:7c:5e:44:5b:d5:18:a9:5d:26:2d:
         1d:2a:15:1c:da:a9:dd:1e:fb:b2:b5:ad:a3:af:b1:f8:a8:b3:
         84:d9:73:a6:80:d5:39:51:62:dc:76:28:d4:c7:aa:cf:ad:5b:
         60:d8:ed:3c:09:87:77:01:a6:58:64:66:02:a0:dd:d7:f5:7f:
         dc:99:52:cc:43:01:5d:be:d5:92:db:9a:69:8c:f3:ae:49:d0:
         2f:09:23:cf:06:48:b1:9e:60:34:bf:5b:09:a7:16:b8:0e:57:
         3e:f6:b3:a0:b9:7f:7b:f4:ca:eb:2c:83:95:59:7d:55:0c:9f:
         4e:d6:c6:6e:e8:78:cc:11:d2:96:b8:38:13:04:a5:60:b2:c5:
         45:86:52:e8:96:d5:4b:62:e3:3b:9f:7f:96:10:24:db:06:d4:
         06:11:c7:bc:d3:1c:2c:c5:fd:03:1e:6f:fd:6e:54:8f:c3:8e:
         99:ac:3c:bd:32:41:29:cf:31:af:75:6f:5d:ae:64:e5:be:b7:
         d0:4a:0a:c1:04:74:c9:45:07:14:cf:d9:21:c0:17:90:3b:b2:
         26:50:a7:39:a5:4e:ad:77:1b:06:38:4e:21:6a:bc:fb:a3:e6:
         c7:e5:24:c1:8d:35:7d:12:f2:92:c9:51:84:01:f3:f3:ab:2f:
         05:59:d6:29:98:59:50:79
-----BEGIN CERTIFICATE-----
MIIE3DCCAsSgAwIBAgIBHjANBgkqhkiG9w0BAQsFADCBkzELMAkGA1UEBhMCVVMx
CzAJBgNVBAgMAkNBMREwDwYDVQQHDAhTdGFuZm9yZDENMAsGA1UECgwEQk1JUjEO
MAwGA1UECwwFQ0VEQVIxHDAaBgNVBAMME21ldGFkYXRhY2VudGVyLm9yZ3gxJzAl
BgkqhkiG9w0BCQEWGG1ldGFkYXRhY2VudGVyQGdtYWlsLmNvbTAeFw0yMzA2MTMy
MjEyNTRaFw0yNTA5MTQyMjEyNTRaMIGJMQswCQYDVQQGEwJVUzELMAkGA1UECAwC
Q0ExDTALBgNVBAoMBEJNSVIxDjAMBgNVBAsMBUNFREFSMSUwIwYDVQQDDBxicmlk
Z2luZy5tZXRhZGF0YWNlbnRlci5vcmd4MScwJQYJKoZIhvcNAQkBFhhtZXRhZGF0
YWNlbnRlckBnbWFpbC5jb20wggEiMA0GCSqGSIb3DQEBAQUAA4IBDwAwggEKAoIB
AQDGc5v2qT05TqNAvZW04h1UsKHxkx8YLOzUL1ExG18nouOZ+2NLxGBa+vb1+TxG
z0V681fpzAeaKJh4kfDVD1mlveh592QSug3c4Shm3Bdy7jaYlYV4WUBDxF1bmTMD
iyLuqtvIToHIATudZdsX+WoxlQ05m+jM2fGnI5JD5dqvWTGNRuep3brckMlccXyU
k/zu0Mu7SNStpQcS7YQXT2xUy9YvYjm3hiE2CQQSnCQtTQTf8F9HD6H2l01Ay7WA
aY07bUVJV5Qn3gteBm5+Ss+w9dqKy89UC79eUy6x8h2xx2vM6Yf/gIwG4jBmYRXX
Gad5whdh8kU+9v1yTx/03EldAgMBAAGjQzBBMAkGA1UdEwQCMAAwCwYDVR0PBAQD
AgXgMCcGA1UdEQQgMB6CHGJyaWRnaW5nLm1ldGFkYXRhY2VudGVyLm9yZ3gwDQYJ
KoZIhvcNAQELBQADggIBAET0gCx6kfpyszXcWXpY7UXG3/wk2DE6O/HJuh9rJK+i
z18FnvjyAI77Np90/nHGCGFwM8u8t59uhPgr/m8xCyf8Ht0Lj61uhCeSUjjSx/Kq
Ow3LajQen9VQ9OVDQ4RBCBjZKmTRdFt10le4ZqFa2FomB/umL0TUnW6I5J4zN5nf
IZcmvK4ZQqUMrvPOivt5JPaSU1ZDMiHlVLgCpdUUSTker10Sx5I0amrKf8LR3Byp
gV10yBQYa+lNJEmHz0T3TZMC1B2nUYYI9r+z9jVzv0sRWNsxE5tsCXKAHGIVLkL3
rbfYl4p/d9mft69Zrnw92Do3CBLbFyChGfPF2LQebIpHLAedfF5EW9UYqV0mLR0q
FRzaqd0e+7K1raOvsfios4TZc6aA1TlRYtx2KNTHqs+tW2DY7TwJh3cBplhkZgKg
3df1f9yZUsxDAV2+1ZLbmmmM865J0C8JI88GSLGeYDS/WwmnFrgOVz72s6C5f3v0
yussg5VZfVUMn07Wxm7oeMwR0pa4OBMEpWCyxUWGUuiW1Uti4zuff5YQJNsG1AYR
x7zTHCzF/QMeb/1uVI/DjpmsPL0yQSnPMa91b12uZOW+t9BKCsEEdMlFBxTP2SHA
F5A7siZQpzmlTq13GwY4TiFqvPuj5sflJMGNNX0S8pLJUYQB8/OrLwVZ1imYWVB5
-----END CERTIFICATE-----
