Certificate:
    Data:
        Version: 3 (0x2)
        Serial Number: 14 (0xe)
        Signature Algorithm: sha256WithRSAEncryption
        Issuer: C=US, ST=CA, L=Stanford, O=BMIR, OU=CEDAR, CN=metadatacenter.orgx/emailAddress=metadatacenter@gmail.com
        Validity
            Not Before: Jan 18 00:50:45 2024 GMT
            Not After : Apr 21 00:50:45 2026 GMT
        Subject: C=US, ST=CA, O=BMIR, OU=CEDAR, CN=user.metadatacenter.orgx/emailAddress=metadatacenter@gmail.com
        Subject Public Key Info:
            Public Key Algorithm: rsaEncryption
                RSA Public-Key: (2048 bit)
                Modulus:
                    00:c3:ce:49:c6:74:bd:d0:dc:ef:e2:ed:cd:c2:97:
                    3d:39:8b:83:cd:9e:6a:5a:bd:0e:10:76:9b:f6:2a:
                    88:cb:a7:17:ab:2a:30:3e:8e:b2:d9:93:3b:8f:eb:
                    1c:c9:b4:a7:ff:de:ef:d1:a3:94:33:ad:e7:d4:68:
                    70:07:a5:42:36:19:64:a4:b0:a0:d4:ac:b1:bb:55:
                    77:d5:60:e2:00:7b:7b:47:d8:0b:c0:09:8e:58:00:
                    59:9d:ea:8e:9f:16:2e:17:86:37:e4:5c:81:76:d7:
                    35:34:5b:b8:32:1d:5e:b4:64:36:4e:65:34:a0:dc:
                    85:a0:69:89:75:40:85:dd:e8:14:0e:b8:27:06:35:
                    ac:32:34:ca:e8:db:2b:b9:a0:c4:6b:5b:da:87:05:
                    cf:eb:6b:c6:2a:af:e1:7f:8e:8e:27:43:1f:04:9b:
                    15:3e:24:8c:3e:fe:6e:d2:5c:ad:7a:c7:17:45:ad:
                    ab:74:7a:c3:d0:9e:55:70:b1:ec:22:d1:45:d6:db:
                    a3:12:97:dd:c1:bd:8f:2c:e1:7b:0a:5d:27:51:aa:
                    b9:44:e7:b9:0c:21:37:6a:6e:14:0c:92:2c:fb:6f:
                    db:69:89:11:0f:45:4f:b3:bf:32:93:0d:a2:ad:a5:
                    dd:75:69:72:8f:d0:08:3d:ff:fe:16:c0:63:0f:f2:
                    7a:df
                Exponent: 65537 (0x10001)
        X509v3 extensions:
            X509v3 Basic Constraints: 
                CA:FALSE
            X509v3 Key Usage: 
                Digital Signature, Non Repudiation, Key Encipherment
            X509v3 Subject Alternative Name: 
                DNS:user.metadatacenter.orgx
    Signature Algorithm: sha256WithRSAEncryption
         37:89:ef:13:cf:81:90:91:30:e9:39:a2:45:5e:69:23:be:a4:
         10:b3:25:77:15:71:8a:bc:f2:d8:d3:7e:10:5a:05:96:e3:f7:
         da:77:60:b1:7a:25:d6:2a:aa:c1:5e:e6:b7:2f:be:9d:11:8f:
         1b:c1:13:75:56:2d:3f:2a:f5:3b:20:b2:e1:71:ed:66:95:22:
         ff:ca:28:17:0f:58:c7:bb:ef:49:d9:ac:60:0c:f2:fa:d4:cc:
         8e:e2:95:57:dc:8e:e2:af:85:a1:73:d8:e5:91:b1:45:c7:d3:
         75:6b:d3:a1:c9:43:38:f8:84:78:c7:4c:eb:b6:8b:b3:32:d1:
         d4:15:89:15:03:5e:bd:d5:88:09:32:3d:55:69:3e:d1:e4:f6:
         09:bb:4b:74:f5:11:91:85:bc:d6:22:e7:08:ea:75:27:42:c5:
         f7:eb:54:55:a9:16:71:53:91:74:b0:bb:0a:f4:64:e0:a8:28:
         57:80:f9:cf:bd:a1:5f:1c:ec:c8:00:42:88:64:16:69:e9:04:
         29:b1:e4:b6:32:ba:ec:e8:4d:5f:63:b7:85:73:56:a4:89:0d:
         43:cc:6c:c5:b7:29:35:90:9e:58:c0:a8:38:ad:43:19:b2:8a:
         a8:be:2c:74:1b:e0:f9:de:ee:f1:16:70:6b:05:f6:0d:b8:24:
         a2:fe:87:63:7c:a6:c3:6e:9a:75:7f:97:45:c2:2b:f5:d5:93:
         13:b6:78:13:c0:91:5b:a2:b9:a5:68:d7:e4:3f:8a:91:d6:f4:
         74:44:fa:e2:c5:77:c8:0f:98:c0:a5:5f:ab:c3:51:ba:15:b3:
         46:1f:12:88:2f:3d:5e:d2:31:33:36:a8:85:46:8a:5f:fe:88:
         a9:00:4d:ee:29:7f:a2:c4:0f:66:2a:51:3e:e3:91:b6:85:71:
         83:57:b7:7d:0d:97:8a:8a:a0:e3:80:26:e7:a4:04:81:de:b2:
         89:d2:13:e1:da:3c:df:16:ec:88:35:05:7f:95:23:78:19:44:
         ec:ed:fb:3a:50:e6:db:8a:1d:54:9c:70:c6:02:d6:41:74:b3:
         65:ea:73:43:c4:38:4b:94:ce:b8:2c:1e:fa:8d:34:ed:13:3c:
         0b:c4:10:a0:80:bc:12:17:70:64:73:4c:8c:56:c6:b4:3d:6b:
         fe:14:87:7f:ff:24:3c:80:a4:fe:65:3c:64:30:88:c5:b2:3f:
         fb:00:a8:58:46:ae:e5:50:ef:cb:10:2c:27:f5:3d:97:47:d8:
         29:73:0c:9d:89:d1:64:e8:88:fa:ff:74:e6:0f:9a:1d:11:60:
         b8:14:9e:e4:36:1f:0d:2b:77:41:8e:d0:c6:c6:b7:bc:ff:e6:
         0a:db:59:a9:97:17:b0:83
-----BEGIN CERTIFICATE-----
MIIE1DCCArygAwIBAgIBDjANBgkqhkiG9w0BAQsFADCBkzELMAkGA1UEBhMCVVMx
CzAJBgNVBAgMAkNBMREwDwYDVQQHDAhTdGFuZm9yZDENMAsGA1UECgwEQk1JUjEO
MAwGA1UECwwFQ0VEQVIxHDAaBgNVBAMME21ldGFkYXRhY2VudGVyLm9yZ3gxJzAl
BgkqhkiG9w0BCQEWGG1ldGFkYXRhY2VudGVyQGdtYWlsLmNvbTAeFw0yNDAxMTgw
MDUwNDVaFw0yNjA0MjEwMDUwNDVaMIGFMQswCQYDVQQGEwJVUzELMAkGA1UECAwC
Q0ExDTALBgNVBAoMBEJNSVIxDjAMBgNVBAsMBUNFREFSMSEwHwYDVQQDDBh1c2Vy
Lm1ldGFkYXRhY2VudGVyLm9yZ3gxJzAlBgkqhkiG9w0BCQEWGG1ldGFkYXRhY2Vu
dGVyQGdtYWlsLmNvbTCCASIwDQYJKoZIhvcNAQEBBQADggEPADCCAQoCggEBAMPO
ScZ0vdDc7+LtzcKXPTmLg82ealq9DhB2m/YqiMunF6sqMD6OstmTO4/rHMm0p//e
79GjlDOt59RocAelQjYZZKSwoNSssbtVd9Vg4gB7e0fYC8AJjlgAWZ3qjp8WLheG
N+RcgXbXNTRbuDIdXrRkNk5lNKDchaBpiXVAhd3oFA64JwY1rDI0yujbK7mgxGtb
2ocFz+trxiqv4X+OjidDHwSbFT4kjD7+btJcrXrHF0Wtq3R6w9CeVXCx7CLRRdbb
oxKX3cG9jyzhewpdJ1GquUTnuQwhN2puFAySLPtv22mJEQ9FT7O/MpMNoq2l3XVp
co/QCD3//hbAYw/yet8CAwEAAaM/MD0wCQYDVR0TBAIwADALBgNVHQ8EBAMCBeAw
IwYDVR0RBBwwGoIYdXNlci5tZXRhZGF0YWNlbnRlci5vcmd4MA0GCSqGSIb3DQEB
CwUAA4ICAQA3ie8Tz4GQkTDpOaJFXmkjvqQQsyV3FXGKvPLY034QWgWW4/fad2Cx
eiXWKqrBXua3L76dEY8bwRN1Vi0/KvU7ILLhce1mlSL/yigXD1jHu+9J2axgDPL6
1MyO4pVX3I7ir4Whc9jlkbFFx9N1a9OhyUM4+IR4x0zrtouzMtHUFYkVA1691YgJ
Mj1VaT7R5PYJu0t09RGRhbzWIucI6nUnQsX361RVqRZxU5F0sLsK9GTgqChXgPnP
vaFfHOzIAEKIZBZp6QQpseS2Mrrs6E1fY7eFc1akiQ1DzGzFtyk1kJ5YwKg4rUMZ
soqovix0G+D53u7xFnBrBfYNuCSi/odjfKbDbpp1f5dFwiv11ZMTtngTwJFborml
aNfkP4qR1vR0RPrixXfID5jApV+rw1G6FbNGHxKILz1e0jEzNqiFRopf/oipAE3u
KX+ixA9mKlE+45G2hXGDV7d9DZeKiqDjgCbnpASB3rKJ0hPh2jzfFuyINQV/lSN4
GUTs7fs6UObbih1UnHDGAtZBdLNl6nNDxDhLlM64LB76jTTtEzwLxBCggLwSF3Bk
c0yMVsa0PWv+FId//yQ8gKT+ZTxkMIjFsj/7AKhYRq7lUO/LECwn9T2XR9gpcwyd
idFk6Ij6/3TmD5odEWC4FJ7kNh8NK3dBjtDGxre8/+YK21mplxewgw==
-----END CERTIFICATE-----
