Certificate:
    Data:
        Version: 3 (0x2)
        Serial Number: 7 (0x7)
        Signature Algorithm: sha256WithRSAEncryption
        Issuer: C=US, ST=CA, L=Stanford, O=BMIR, OU=CEDAR, CN=metadatacenter.orgx/emailAddress=metadatacenter@gmail.com
        Validity
            Not Before: Jan 18 18:34:05 2023 GMT
            Not After : Apr 21 18:34:05 2025 GMT
        Subject: C=US, ST=CA, O=BMIR, OU=CEDAR, CN=internals.metadatacenter.orgx/emailAddress=metadatacenter@gmail.com
        Subject Public Key Info:
            Public Key Algorithm: rsaEncryption
                RSA Public-Key: (2048 bit)
                Modulus:
                    00:98:81:98:6f:79:87:3a:fb:1b:7d:f4:c6:47:74:
                    f2:7e:36:6b:c7:da:4c:60:c8:bc:5f:41:3a:6b:b6:
                    80:14:05:ba:d2:89:73:6e:ca:3c:ec:63:15:f3:4b:
                    49:7e:4b:35:7f:57:d7:6b:ed:90:2a:06:cc:fe:4b:
                    e4:f5:79:23:aa:a9:eb:d9:f3:5f:c5:05:02:35:7b:
                    b8:44:02:70:df:af:2e:ed:b7:61:75:9e:a8:2b:df:
                    9b:16:39:c0:65:b8:75:2a:ef:95:76:32:b6:01:f2:
                    13:a4:1c:ee:f1:e3:de:33:14:8f:13:fe:42:fc:ab:
                    dc:53:70:64:d3:ae:5c:76:4c:6a:3e:b3:0a:e8:4d:
                    45:61:50:09:29:3a:06:fa:cd:be:ee:72:26:9d:99:
                    b1:65:77:4d:cc:30:73:6b:a7:ef:18:1a:5f:cb:6c:
                    6f:f5:75:8b:02:a7:4f:25:97:78:51:61:cc:92:54:
                    77:ec:d6:7f:68:19:7f:c4:d6:14:f9:af:02:74:a5:
                    3d:cf:55:01:b1:70:b1:f3:9f:13:cb:aa:a8:a5:d8:
                    31:20:62:b0:a6:39:54:9b:ae:ee:d5:76:46:d2:c2:
                    3b:cc:71:6d:48:81:43:e4:b8:20:f6:a8:82:d1:ef:
                    44:e9:a1:80:c4:c1:7d:be:98:ba:5e:d2:3e:89:de:
                    af:4b
                Exponent: 65537 (0x10001)
        X509v3 extensions:
            X509v3 Basic Constraints: 
                CA:FALSE
            X509v3 Key Usage: 
                Digital Signature, Non Repudiation, Key Encipherment
            X509v3 Subject Alternative Name: 
                DNS:internals.metadatacenter.orgx
    Signature Algorithm: sha256WithRSAEncryption
         57:7d:42:11:99:c9:87:81:2c:fa:e0:63:21:44:aa:3d:1c:44:
         c5:a1:48:e4:18:a0:12:9d:c8:e4:e3:8a:6c:78:01:5f:f4:c7:
         c5:64:f8:6c:ae:57:0a:a8:62:e2:1b:0c:5f:ac:fd:1d:ea:bb:
         3c:b8:92:5a:2e:e9:7b:d1:57:33:62:4e:81:18:ce:8f:52:c3:
         2e:31:e5:7b:7e:a0:cc:6d:31:af:3f:12:90:38:c7:a6:72:e1:
         63:37:96:19:52:da:25:d0:81:05:55:eb:da:25:93:58:1c:7e:
         72:8e:a1:b5:2c:8b:1d:b6:ff:3e:ed:d9:69:5f:f6:d1:6f:c2:
         67:27:fa:12:a8:de:0a:e6:d3:95:59:7d:32:87:fb:c1:3d:42:
         f1:7f:30:07:1c:af:2a:dd:8c:6c:40:22:1b:92:48:29:e0:39:
         92:91:63:10:ff:59:88:b9:c4:c1:7c:72:2b:9d:34:be:c5:d1:
         77:2d:cc:a1:bb:15:9e:66:ab:3b:15:c4:b8:94:81:52:02:5c:
         fc:c4:0f:9a:3b:82:50:e1:fc:88:88:24:75:ee:ba:c6:8a:97:
         c9:eb:98:f9:6b:a2:f7:28:63:25:26:3e:7f:31:37:6a:5b:3b:
         0f:b9:2c:03:a2:ff:1d:a8:ed:23:0d:ab:25:37:14:97:dd:c8:
         1f:df:23:37:26:63:b3:d4:1c:92:81:3c:ed:e5:7e:78:0a:78:
         ae:2a:bf:2d:d2:2f:09:f8:17:bc:8e:6b:be:ab:f2:ec:a9:ea:
         0e:47:25:f8:64:2b:1c:3b:20:e6:a6:56:61:43:f9:fb:28:cc:
         d6:3c:5d:c8:37:62:ce:7b:38:1f:52:b5:c0:a3:d2:be:02:6a:
         b0:f1:75:28:b9:5a:a3:26:4e:0e:d0:ca:59:6c:d8:40:a2:0c:
         90:3b:f8:a9:cd:23:ac:3c:9d:4a:a4:79:80:f3:69:75:19:1c:
         91:2c:87:90:e5:e5:da:c8:b3:a1:94:60:8b:ba:d1:91:09:2c:
         49:33:0f:97:eb:9c:ef:9c:d7:66:d2:2d:86:3e:fe:ce:d0:d4:
         3c:c1:62:8d:85:16:6d:b6:25:be:6e:31:16:02:f4:7f:cd:93:
         88:fe:0c:a7:ec:14:d0:f4:f9:7e:66:f4:06:fb:79:e9:d9:64:
         b8:e1:db:84:b5:18:d9:1d:51:83:60:81:26:97:59:12:81:60:
         f7:e5:f5:1d:b3:b1:e2:74:c8:90:54:4e:17:56:1f:9e:27:80:
         60:9d:af:86:b1:4c:08:71:e2:3e:86:4e:03:59:87:bc:5b:a3:
         70:74:cc:ba:98:14:1c:1e:bb:d2:19:e5:45:78:ce:95:fe:bb:
         f2:5e:2a:39:bc:31:0f:3c
-----BEGIN CERTIFICATE-----
MIIE3jCCAsagAwIBAgIBBzANBgkqhkiG9w0BAQsFADCBkzELMAkGA1UEBhMCVVMx
CzAJBgNVBAgMAkNBMREwDwYDVQQHDAhTdGFuZm9yZDENMAsGA1UECgwEQk1JUjEO
MAwGA1UECwwFQ0VEQVIxHDAaBgNVBAMME21ldGFkYXRhY2VudGVyLm9yZ3gxJzAl
BgkqhkiG9w0BCQEWGG1ldGFkYXRhY2VudGVyQGdtYWlsLmNvbTAeFw0yMzAxMTgx
ODM0MDVaFw0yNTA0MjExODM0MDVaMIGKMQswCQYDVQQGEwJVUzELMAkGA1UECAwC
Q0ExDTALBgNVBAoMBEJNSVIxDjAMBgNVBAsMBUNFREFSMSYwJAYDVQQDDB1pbnRl
cm5hbHMubWV0YWRhdGFjZW50ZXIub3JneDEnMCUGCSqGSIb3DQEJARYYbWV0YWRh
dGFjZW50ZXJAZ21haWwuY29tMIIBIjANBgkqhkiG9w0BAQEFAAOCAQ8AMIIBCgKC
AQEAmIGYb3mHOvsbffTGR3TyfjZrx9pMYMi8X0E6a7aAFAW60olzbso87GMV80tJ
fks1f1fXa+2QKgbM/kvk9Xkjqqnr2fNfxQUCNXu4RAJw368u7bdhdZ6oK9+bFjnA
Zbh1Ku+VdjK2AfITpBzu8ePeMxSPE/5C/KvcU3Bk065cdkxqPrMK6E1FYVAJKToG
+s2+7nImnZmxZXdNzDBza6fvGBpfy2xv9XWLAqdPJZd4UWHMklR37NZ/aBl/xNYU
+a8CdKU9z1UBsXCx858Ty6qopdgxIGKwpjlUm67u1XZG0sI7zHFtSIFD5Lgg9qiC
0e9E6aGAxMF9vpi6XtI+id6vSwIDAQABo0QwQjAJBgNVHRMEAjAAMAsGA1UdDwQE
AwIF4DAoBgNVHREEITAfgh1pbnRlcm5hbHMubWV0YWRhdGFjZW50ZXIub3JneDAN
BgkqhkiG9w0BAQsFAAOCAgEAV31CEZnJh4Es+uBjIUSqPRxExaFI5BigEp3I5OOK
bHgBX/THxWT4bK5XCqhi4hsMX6z9Heq7PLiSWi7pe9FXM2JOgRjOj1LDLjHle36g
zG0xrz8SkDjHpnLhYzeWGVLaJdCBBVXr2iWTWBx+co6htSyLHbb/Pu3ZaV/20W/C
Zyf6EqjeCubTlVl9Mof7wT1C8X8wBxyvKt2MbEAiG5JIKeA5kpFjEP9ZiLnEwXxy
K500vsXRdy3MobsVnmarOxXEuJSBUgJc/MQPmjuCUOH8iIgkde66xoqXyeuY+Wui
9yhjJSY+fzE3als7D7ksA6L/HajtIw2rJTcUl93IH98jNyZjs9QckoE87eV+eAp4
riq/LdIvCfgXvI5rvqvy7KnqDkcl+GQrHDsg5qZWYUP5+yjM1jxdyDdizns4H1K1
wKPSvgJqsPF1KLlaoyZODtDKWWzYQKIMkDv4qc0jrDydSqR5gPNpdRkckSyHkOXl
2sizoZRgi7rRkQksSTMPl+uc75zXZtIthj7+ztDUPMFijYUWbbYlvm4xFgL0f82T
iP4Mp+wU0PT5fmb0Bvt56dlkuOHbhLUY2R1Rg2CBJpdZEoFg9+X1HbOx4nTIkFRO
F1YfnieAYJ2vhrFMCHHiPoZOA1mHvFujcHTMupgUHB670hnlRXjOlf678l4qObwx
Dzw=
-----END CERTIFICATE-----
