Certificate:
    Data:
        Version: 3 (0x2)
        Serial Number: 14 (0xe)
        Signature Algorithm: sha256WithRSAEncryption
        Issuer: C=US, ST=CA, L=Stanford, O=BMIR, OU=CEDAR, CN=metadatacenter.orgx/emailAddress=metadatacenter@gmail.com
        Validity
            Not Before: Jan 17 21:50:44 2024 GMT
            Not After : Apr 20 21:50:44 2026 GMT
        Subject: C=US, ST=CA, O=BMIR, OU=CEDAR, CN=user.metadatacenter.orgx/emailAddress=metadatacenter@gmail.com
        Subject Public Key Info:
            Public Key Algorithm: rsaEncryption
                RSA Public-Key: (2048 bit)
                Modulus:
                    00:d6:0d:54:35:e4:d7:2f:f0:2d:a0:0a:99:5c:7c:
                    ee:27:4c:fa:c4:09:7d:27:d2:46:48:db:61:e6:83:
                    64:81:08:75:8a:1e:5f:e2:54:97:97:89:5a:e4:4d:
                    8a:56:47:5f:db:f0:f8:bf:6e:de:10:41:0f:fe:9d:
                    d5:5c:12:af:bd:d3:fe:47:a9:e2:d8:9d:d9:68:27:
                    ec:03:5c:fe:c3:68:15:ac:f2:af:2e:eb:bf:a9:d5:
                    3b:b4:95:9c:7c:cf:97:f1:87:bb:d3:c3:5a:b1:35:
                    91:fb:63:86:05:af:85:49:a8:3b:90:3a:63:34:da:
                    53:7a:59:c5:ee:41:7e:74:ec:05:c1:54:12:c0:45:
                    24:5e:5e:77:27:b2:0a:41:42:27:01:7f:62:59:83:
                    79:9e:b5:74:cb:5a:e6:11:a6:b2:50:8f:2b:2d:76:
                    94:44:cd:02:17:bd:7a:0f:c7:04:fe:ab:29:41:39:
                    81:ea:82:12:f5:cd:a8:7a:2d:85:dc:ad:3a:17:63:
                    c9:32:dd:8d:bd:be:08:98:61:d9:72:b7:ba:bf:68:
                    4f:ef:db:41:8d:62:02:b2:2f:6b:fb:10:21:73:e5:
                    b7:79:a5:55:35:97:97:c7:4f:37:a5:5b:54:bd:af:
                    1d:d1:6a:ab:56:43:c9:df:18:92:62:00:80:8c:49:
                    71:ad
                Exponent: 65537 (0x10001)
        X509v3 extensions:
            X509v3 Basic Constraints: 
                CA:FALSE
            X509v3 Key Usage: 
                Digital Signature, Non Repudiation, Key Encipherment
            X509v3 Subject Alternative Name: 
                DNS:user.metadatacenter.orgx
    Signature Algorithm: sha256WithRSAEncryption
         bb:2d:ab:64:b7:f1:8a:ff:18:a9:93:3a:f5:a4:02:94:e9:85:
         3e:f7:84:01:e8:e9:3f:e9:02:e8:0f:56:00:10:9f:b9:1b:41:
         3f:8f:c0:fb:f6:6c:59:15:b3:5a:9f:d5:41:76:cc:ca:ea:50:
         0a:db:71:d8:8f:80:6f:ee:8b:32:d0:ac:76:75:3e:c6:9c:be:
         ea:a7:6d:ad:48:20:82:27:5c:f2:15:b1:ac:23:df:06:ff:d9:
         c9:82:89:49:43:ab:59:7f:f7:31:a6:02:86:b2:1c:a7:5d:60:
         0a:98:fa:89:a4:da:2d:b0:23:82:16:a7:8c:5d:d6:42:b9:bb:
         dd:be:50:10:4b:98:7c:b5:d5:80:ea:31:ce:e0:a7:97:0d:ab:
         88:ec:5d:90:c4:c4:90:b5:c9:f4:1e:4c:71:00:81:ba:96:97:
         4a:8b:ce:81:49:ac:a6:e6:16:ff:05:af:28:cb:3a:71:b6:75:
         1a:9d:64:8b:ae:92:a1:c2:8a:85:6d:f7:57:b6:08:18:3c:8d:
         61:65:da:5d:6d:2d:83:8f:0d:9a:96:2d:2d:38:68:ac:95:50:
         17:1d:92:d9:2a:07:77:59:61:93:0a:2a:03:20:d9:ca:70:1c:
         f5:fe:32:d9:38:00:25:5b:c1:ad:43:25:c2:1d:d9:59:bc:b0:
         16:f0:de:88:a5:f6:71:3a:58:32:b4:7e:03:15:b4:f9:04:72:
         6f:17:9c:67:b3:dd:45:75:cd:b9:5f:14:9d:1e:7f:94:97:7a:
         cd:45:a8:36:3a:f2:34:ee:6d:2e:3a:f8:19:35:b8:f8:cd:57:
         9a:86:80:8d:16:78:50:e4:d8:95:30:c8:bb:16:93:23:bb:f4:
         4c:19:1e:92:6f:cb:cf:6f:d9:de:e9:1a:c3:a6:20:6f:38:24:
         f0:3a:f5:4c:47:6e:b0:62:03:18:63:62:b7:6c:08:ca:7f:59:
         d9:80:79:bd:9d:1c:5f:2d:1b:34:c0:2a:e6:76:12:ae:45:7a:
         73:57:8b:45:c9:7d:c1:da:fe:eb:8f:10:f3:8a:a1:43:19:5e:
         20:b5:d8:cd:12:8b:32:54:d0:d3:af:7c:8c:fa:21:6f:3b:ef:
         b0:a2:fe:8f:88:5f:36:69:da:11:2d:50:76:97:e3:cd:19:9a:
         ea:27:9a:9f:93:a2:98:01:d9:25:ba:14:84:17:99:68:5b:5c:
         42:3f:32:b0:da:ed:0b:ed:a8:3f:f7:11:f1:80:8b:ab:1c:a6:
         52:b1:3b:ee:53:46:b1:61:aa:16:dd:38:27:b2:8c:37:8e:e1:
         60:59:ec:17:ef:be:dc:cd:76:c1:ff:d6:5d:82:e9:61:f6:6a:
         59:c5:87:02:0b:a2:f3:f2
-----BEGIN CERTIFICATE-----
MIIE1DCCArygAwIBAgIBDjANBgkqhkiG9w0BAQsFADCBkzELMAkGA1UEBhMCVVMx
CzAJBgNVBAgMAkNBMREwDwYDVQQHDAhTdGFuZm9yZDENMAsGA1UECgwEQk1JUjEO
MAwGA1UECwwFQ0VEQVIxHDAaBgNVBAMME21ldGFkYXRhY2VudGVyLm9yZ3gxJzAl
BgkqhkiG9w0BCQEWGG1ldGFkYXRhY2VudGVyQGdtYWlsLmNvbTAeFw0yNDAxMTcy
MTUwNDRaFw0yNjA0MjAyMTUwNDRaMIGFMQswCQYDVQQGEwJVUzELMAkGA1UECAwC
Q0ExDTALBgNVBAoMBEJNSVIxDjAMBgNVBAsMBUNFREFSMSEwHwYDVQQDDBh1c2Vy
Lm1ldGFkYXRhY2VudGVyLm9yZ3gxJzAlBgkqhkiG9w0BCQEWGG1ldGFkYXRhY2Vu
dGVyQGdtYWlsLmNvbTCCASIwDQYJKoZIhvcNAQEBBQADggEPADCCAQoCggEBANYN
VDXk1y/wLaAKmVx87idM+sQJfSfSRkjbYeaDZIEIdYoeX+JUl5eJWuRNilZHX9vw
+L9u3hBBD/6d1VwSr73T/kep4tid2Wgn7ANc/sNoFazyry7rv6nVO7SVnHzPl/GH
u9PDWrE1kftjhgWvhUmoO5A6YzTaU3pZxe5BfnTsBcFUEsBFJF5edyeyCkFCJwF/
YlmDeZ61dMta5hGmslCPKy12lETNAhe9eg/HBP6rKUE5geqCEvXNqHothdytOhdj
yTLdjb2+CJhh2XK3ur9oT+/bQY1iArIva/sQIXPlt3mlVTWXl8dPN6VbVL2vHdFq
q1ZDyd8YkmIAgIxJca0CAwEAAaM/MD0wCQYDVR0TBAIwADALBgNVHQ8EBAMCBeAw
IwYDVR0RBBwwGoIYdXNlci5tZXRhZGF0YWNlbnRlci5vcmd4MA0GCSqGSIb3DQEB
CwUAA4ICAQC7Latkt/GK/xipkzr1pAKU6YU+94QB6Ok/6QLoD1YAEJ+5G0E/j8D7
9mxZFbNan9VBdszK6lAK23HYj4Bv7osy0Kx2dT7GnL7qp22tSCCCJ1zyFbGsI98G
/9nJgolJQ6tZf/cxpgKGshynXWAKmPqJpNotsCOCFqeMXdZCubvdvlAQS5h8tdWA
6jHO4KeXDauI7F2QxMSQtcn0HkxxAIG6lpdKi86BSaym5hb/Ba8oyzpxtnUanWSL
rpKhwoqFbfdXtggYPI1hZdpdbS2Djw2ali0tOGislVAXHZLZKgd3WWGTCioDINnK
cBz1/jLZOAAlW8GtQyXCHdlZvLAW8N6IpfZxOlgytH4DFbT5BHJvF5xns91Fdc25
XxSdHn+Ul3rNRag2OvI07m0uOvgZNbj4zVeahoCNFnhQ5NiVMMi7FpMju/RMGR6S
b8vPb9ne6RrDpiBvOCTwOvVMR26wYgMYY2K3bAjKf1nZgHm9nRxfLRs0wCrmdhKu
RXpzV4tFyX3B2v7rjxDziqFDGV4gtdjNEosyVNDTr3yM+iFvO++wov6PiF82adoR
LVB2l+PNGZrqJ5qfk6KYAdkluhSEF5loW1xCPzKw2u0L7ag/9xHxgIurHKZSsTvu
U0axYaoW3Tgnsow3juFgWewX777czXbB/9Zdgulh9mpZxYcCC6Lz8g==
-----END CERTIFICATE-----
