Certificate:
    Data:
        Version: 3 (0x2)
        Serial Number: 27 (0x1b)
        Signature Algorithm: sha256WithRSAEncryption
        Issuer: C=US, ST=CA, L=Stanford, O=BMIR, OU=CEDAR, CN=metadatacenter.orgx/emailAddress=metadatacenter@gmail.com
        Validity
            Not Before: Dec  7 17:46:55 2020 GMT
            Not After : Mar 11 17:46:55 2023 GMT
        Subject: C=US, ST=CA, O=BMIR, OU=CEDAR, CN=auth.metadatacenter.orgx/emailAddress=metadatacenter@gmail.com
        Subject Public Key Info:
            Public Key Algorithm: rsaEncryption
                RSA Public-Key: (2048 bit)
                Modulus:
                    00:96:50:7b:7e:3b:2b:f9:35:38:03:16:16:e7:dc:
                    21:f0:16:a1:3f:f7:4a:88:5a:a5:d0:e8:59:f6:2a:
                    3e:0f:1e:33:d7:eb:c6:87:66:01:6a:ee:9c:35:cc:
                    c6:bc:14:c5:02:bc:f2:bc:76:46:b5:8c:f0:60:cb:
                    80:61:27:af:86:2c:db:8a:7e:d1:d9:c0:7c:d1:33:
                    3a:bf:dd:1b:42:15:c0:4a:42:77:db:d0:2f:42:db:
                    6f:c8:ec:5d:b4:52:c2:a8:bf:94:89:81:f2:b4:08:
                    01:70:04:51:e7:56:c6:50:12:e1:b5:57:19:2d:b8:
                    5e:a0:bf:83:e2:73:86:5d:f8:ee:4f:a2:9d:ff:ec:
                    10:50:6b:2d:eb:53:45:b5:d7:1e:3c:28:58:44:34:
                    1e:6c:64:67:e5:47:82:21:f5:32:be:dd:02:f0:a5:
                    25:c8:9f:ae:a7:ad:cb:c5:19:82:cd:8b:08:23:3d:
                    60:de:87:0c:6f:98:6b:c0:ad:6b:e5:0a:24:ca:32:
                    a0:57:db:54:b1:8f:10:6e:10:18:21:47:5c:ed:d9:
                    46:e1:d8:f9:3a:ad:8f:05:34:89:79:37:48:46:60:
                    01:f5:f4:eb:31:ff:e4:f6:7c:2d:0d:fa:be:98:a2:
                    c5:12:36:a6:be:ab:13:4c:33:60:ad:c5:73:ae:a8:
                    b8:a9
                Exponent: 65537 (0x10001)
        X509v3 extensions:
            X509v3 Basic Constraints: 
                CA:FALSE
            X509v3 Key Usage: 
                Digital Signature, Non Repudiation, Key Encipherment
            X509v3 Subject Alternative Name: 
                DNS:artifact.metadatacenter.orgx, DNS:auth.metadatacenter.orgx, DNS:cedar.metadatacenter.orgx, DNS:component.metadatacenter.orgx, DNS:group.metadatacenter.orgx, DNS:impex.metadatacenter.orgx, DNS:internals.metadatacenter.orgx, DNS:messaging.metadatacenter.orgx, DNS:open.metadatacenter.orgx, DNS:openview.metadatacenter.orgx, DNS:repo.metadatacenter.orgx, DNS:resource.metadatacenter.orgx, DNS:schema.metadatacenter.orgx, DNS:submission.metadatacenter.orgx, DNS:terminology.metadatacenter.orgx, DNS:user.metadatacenter.orgx, DNS:valuerecommender.metadatacenter.orgx, DNS:worker.metadatacenter.orgx, DNS:demo.cee.metadatacenter.orgx, DNS:demo-dist.cee.metadatacenter.orgx, DNS:api.cee.metadatacenter.orgx, DNS:api-php.cee.metadatacenter.orgx
    Signature Algorithm: sha256WithRSAEncryption
         30:e7:a3:ba:cd:b5:11:05:1b:4e:43:a9:81:e4:9c:86:03:5e:
         64:5c:97:0d:84:b2:7f:b3:6f:50:cf:11:85:2a:ba:66:3c:75:
         10:b7:18:a8:19:16:28:50:56:59:79:e2:4f:6a:65:8e:30:4a:
         8d:60:f4:d2:32:29:2f:3e:d2:27:6d:04:c9:c5:03:1a:cf:e0:
         ec:08:1d:d2:f6:b0:32:43:e6:02:3c:f4:ec:e6:2b:8b:1e:61:
         56:57:db:9b:8f:a8:77:f1:f9:1e:e7:84:20:09:12:2a:a2:8c:
         c9:64:d8:e0:2c:46:38:1f:74:53:c1:0c:3a:dc:37:f7:c3:c3:
         72:27:99:30:03:62:99:41:c7:29:81:96:e9:22:78:3a:0f:b9:
         7e:f1:69:37:62:ab:9c:9e:67:53:df:67:e7:dd:7c:89:60:4f:
         9b:ba:40:e9:ff:70:81:cc:89:a2:90:d5:26:20:7a:0a:87:a2:
         1d:d5:17:00:15:45:ee:25:44:31:29:59:17:f8:1f:6b:14:a4:
         92:94:4a:e9:64:8d:d8:ed:1b:82:55:45:7a:32:25:a7:ca:83:
         3e:fd:7a:54:5f:09:e8:7c:7a:b9:8d:52:18:4a:7f:6e:39:ef:
         a1:fd:74:f4:ac:1a:52:09:79:04:08:2e:1d:6d:9f:e1:0e:94:
         23:e1:1b:03:17:64:48:60:99:31:c1:ad:85:87:e0:da:3c:08:
         de:cd:7f:4a:90:a5:b1:aa:ed:05:7d:98:06:37:68:65:2b:b5:
         d4:b0:ee:d3:70:c1:be:e5:df:f5:b6:18:2f:1a:ef:78:6f:f7:
         21:de:6a:e3:5e:35:df:da:a9:90:f8:45:af:79:36:75:65:57:
         74:b8:60:52:1e:dc:97:2f:3c:ef:76:a5:95:42:b4:a2:22:54:
         64:32:fb:c9:a8:03:65:5a:46:7b:20:87:49:5d:ef:4e:90:ad:
         15:52:d7:c9:81:e4:2f:c7:8e:48:98:b6:0a:5d:68:cd:52:40:
         34:9d:99:23:0b:cf:58:c8:ac:a1:90:f4:5d:20:21:3d:c6:b8:
         99:34:08:b7:c3:0e:f5:70:ac:5e:cd:a1:2b:4a:d1:a7:90:44:
         31:90:4e:c0:60:59:2a:6c:67:90:e1:cc:5d:8c:d2:38:d1:70:
         c5:6d:a8:c3:1a:cf:76:62:88:ed:91:10:31:f0:5c:df:70:6d:
         1a:46:2f:72:b8:3c:b2:70:18:03:eb:eb:22:da:5f:80:25:10:
         4f:24:6e:f4:9a:df:87:a1:c7:41:d5:d7:51:38:42:5c:61:23:
         a9:4c:bf:90:e9:51:76:f3:b8:10:2d:07:6d:bf:00:5f:49:f0:
         88:eb:4e:d2:e6:50:08:15
-----BEGIN CERTIFICATE-----
MIIHUjCCBTqgAwIBAgIBGzANBgkqhkiG9w0BAQsFADCBkzELMAkGA1UEBhMCVVMx
CzAJBgNVBAgMAkNBMREwDwYDVQQHDAhTdGFuZm9yZDENMAsGA1UECgwEQk1JUjEO
MAwGA1UECwwFQ0VEQVIxHDAaBgNVBAMME21ldGFkYXRhY2VudGVyLm9yZ3gxJzAl
BgkqhkiG9w0BCQEWGG1ldGFkYXRhY2VudGVyQGdtYWlsLmNvbTAeFw0yMDEyMDcx
NzQ2NTVaFw0yMzAzMTExNzQ2NTVaMIGFMQswCQYDVQQGEwJVUzELMAkGA1UECAwC
Q0ExDTALBgNVBAoMBEJNSVIxDjAMBgNVBAsMBUNFREFSMSEwHwYDVQQDDBhhdXRo
Lm1ldGFkYXRhY2VudGVyLm9yZ3gxJzAlBgkqhkiG9w0BCQEWGG1ldGFkYXRhY2Vu
dGVyQGdtYWlsLmNvbTCCASIwDQYJKoZIhvcNAQEBBQADggEPADCCAQoCggEBAJZQ
e347K/k1OAMWFufcIfAWoT/3SohapdDoWfYqPg8eM9frxodmAWrunDXMxrwUxQK8
8rx2RrWM8GDLgGEnr4Ys24p+0dnAfNEzOr/dG0IVwEpCd9vQL0Lbb8jsXbRSwqi/
lImB8rQIAXAEUedWxlAS4bVXGS24XqC/g+Jzhl347k+inf/sEFBrLetTRbXXHjwo
WEQ0HmxkZ+VHgiH1Mr7dAvClJcifrqety8UZgs2LCCM9YN6HDG+Ya8Cta+UKJMoy
oFfbVLGPEG4QGCFHXO3ZRuHY+TqtjwU0iXk3SEZgAfX06zH/5PZ8LQ36vpiixRI2
pr6rE0wzYK3Fc66ouKkCAwEAAaOCArswggK3MAkGA1UdEwQCMAAwCwYDVR0PBAQD
AgXgMIICmwYDVR0RBIICkjCCAo6CHGFydGlmYWN0Lm1ldGFkYXRhY2VudGVyLm9y
Z3iCGGF1dGgubWV0YWRhdGFjZW50ZXIub3JneIIZY2VkYXIubWV0YWRhdGFjZW50
ZXIub3JneIIdY29tcG9uZW50Lm1ldGFkYXRhY2VudGVyLm9yZ3iCGWdyb3VwLm1l
dGFkYXRhY2VudGVyLm9yZ3iCGWltcGV4Lm1ldGFkYXRhY2VudGVyLm9yZ3iCHWlu
dGVybmFscy5tZXRhZGF0YWNlbnRlci5vcmd4gh1tZXNzYWdpbmcubWV0YWRhdGFj
ZW50ZXIub3JneIIYb3Blbi5tZXRhZGF0YWNlbnRlci5vcmd4ghxvcGVudmlldy5t
ZXRhZGF0YWNlbnRlci5vcmd4ghhyZXBvLm1ldGFkYXRhY2VudGVyLm9yZ3iCHHJl
c291cmNlLm1ldGFkYXRhY2VudGVyLm9yZ3iCGnNjaGVtYS5tZXRhZGF0YWNlbnRl
ci5vcmd4gh5zdWJtaXNzaW9uLm1ldGFkYXRhY2VudGVyLm9yZ3iCH3Rlcm1pbm9s
b2d5Lm1ldGFkYXRhY2VudGVyLm9yZ3iCGHVzZXIubWV0YWRhdGFjZW50ZXIub3Jn
eIIkdmFsdWVyZWNvbW1lbmRlci5tZXRhZGF0YWNlbnRlci5vcmd4ghp3b3JrZXIu
bWV0YWRhdGFjZW50ZXIub3JneIIcZGVtby5jZWUubWV0YWRhdGFjZW50ZXIub3Jn
eIIhZGVtby1kaXN0LmNlZS5tZXRhZGF0YWNlbnRlci5vcmd4ghthcGkuY2VlLm1l
dGFkYXRhY2VudGVyLm9yZ3iCH2FwaS1waHAuY2VlLm1ldGFkYXRhY2VudGVyLm9y
Z3gwDQYJKoZIhvcNAQELBQADggIBADDno7rNtREFG05DqYHknIYDXmRclw2Esn+z
b1DPEYUqumY8dRC3GKgZFihQVll54k9qZY4wSo1g9NIyKS8+0idtBMnFAxrP4OwI
HdL2sDJD5gI89OzmK4seYVZX25uPqHfx+R7nhCAJEiqijMlk2OAsRjgfdFPBDDrc
N/fDw3InmTADYplBxymBlukieDoPuX7xaTdiq5yeZ1PfZ+fdfIlgT5u6QOn/cIHM
iaKQ1SYgegqHoh3VFwAVRe4lRDEpWRf4H2sUpJKUSulkjdjtG4JVRXoyJafKgz79
elRfCeh8ermNUhhKf24576H9dPSsGlIJeQQILh1tn+EOlCPhGwMXZEhgmTHBrYWH
4No8CN7Nf0qQpbGq7QV9mAY3aGUrtdSw7tNwwb7l3/W2GC8a73hv9yHeauNeNd/a
qZD4Ra95NnVlV3S4YFIe3JcvPO92pZVCtKIiVGQy+8moA2VaRnsgh0ld706QrRVS
18mB5C/HjkiYtgpdaM1SQDSdmSMLz1jIrKGQ9F0gIT3GuJk0CLfDDvVwrF7NoStK
0aeQRDGQTsBgWSpsZ5DhzF2M0jjRcMVtqMMaz3ZiiO2REDHwXN9wbRpGL3K4PLJw
GAPr6yLaX4AlEE8kbvSa34ehx0HV11E4QlxhI6lMv5DpUXbzuBAtB22/AF9J8Ijr
TtLmUAgV
-----END CERTIFICATE-----
