Certificate:
    Data:
        Version: 3 (0x2)
        Serial Number: 26 (0x1a)
        Signature Algorithm: sha256WithRSAEncryption
        Issuer: C=US, ST=CA, L=Stanford, O=BMIR, OU=CEDAR, CN=metadatacenter.orgx/emailAddress=metadatacenter@gmail.com
        Validity
            Not Before: Jan 18 00:50:46 2024 GMT
            Not After : Apr 21 00:50:46 2026 GMT
        Subject: C=US, ST=CA, O=BMIR, OU=CEDAR, CN=docs-dist.cee.metadatacenter.orgx/emailAddress=metadatacenter@gmail.com
        Subject Public Key Info:
            Public Key Algorithm: rsaEncryption
                RSA Public-Key: (2048 bit)
                Modulus:
                    00:9d:b9:0c:85:61:90:02:f9:cf:86:55:81:41:85:
                    bc:1c:12:fc:1c:94:cd:5f:61:c3:2a:2b:cf:bd:22:
                    92:d0:45:93:6a:70:0a:06:fa:bb:07:60:e5:9a:41:
                    6f:f7:26:64:cb:16:38:2b:95:d0:e8:9d:b6:6a:5f:
                    40:6d:fd:53:0e:17:55:d8:6c:f5:43:98:a4:24:eb:
                    35:4c:14:94:96:ad:67:f5:c7:d9:52:9e:b4:cf:df:
                    cd:e2:1a:6a:0f:b0:ea:c4:4c:66:47:5c:7e:54:19:
                    63:ab:2d:7e:2b:49:57:65:f1:fe:7d:b2:2e:89:71:
                    c4:48:c5:12:c1:9a:6e:d5:57:b0:50:14:c6:b7:e7:
                    6c:88:06:47:2c:2f:21:ee:41:3f:c2:20:7a:8f:10:
                    92:29:f4:1d:44:de:d0:08:5f:a3:e3:7d:87:75:4e:
                    bc:1d:83:fb:ea:a1:ca:9e:5b:32:04:e3:6b:ea:27:
                    18:f9:18:9c:a6:e1:1b:3f:b8:fa:53:0f:be:d5:70:
                    59:f7:15:f9:f2:57:4f:5c:cf:f5:62:28:37:13:ae:
                    de:0b:05:cd:5b:b1:89:c0:cf:0f:8c:10:d2:09:7c:
                    3b:ec:ed:92:3a:5f:47:98:93:d3:40:6f:22:8f:13:
                    f8:34:83:65:f0:29:ee:59:d4:8b:26:37:8e:84:ef:
                    ee:85
                Exponent: 65537 (0x10001)
        X509v3 extensions:
            X509v3 Basic Constraints: 
                CA:FALSE
            X509v3 Key Usage: 
                Digital Signature, Non Repudiation, Key Encipherment
            X509v3 Subject Alternative Name: 
                DNS:docs-dist.cee.metadatacenter.orgx
    Signature Algorithm: sha256WithRSAEncryption
         49:50:4e:ef:75:1a:49:57:59:70:f9:15:58:bd:25:e4:ef:09:
         c7:6f:37:f6:6c:aa:3e:db:ce:0a:50:14:ce:85:a7:d4:52:f5:
         8c:a1:3b:8c:d6:9c:ec:f7:fe:96:fb:98:e2:4a:6a:e1:d0:3a:
         cc:15:db:66:c0:37:30:11:e1:65:e7:a7:57:08:e4:75:19:db:
         23:27:6d:ed:7e:2a:57:83:6c:e1:7f:c9:9b:1f:4f:09:9e:3a:
         2e:33:5c:32:bd:e8:62:7b:b5:7a:29:2c:ea:cb:02:d4:47:00:
         25:c0:95:c2:d0:28:9f:13:4a:ec:5b:13:da:ee:32:26:21:67:
         de:c3:90:95:7b:eb:52:d6:cd:75:a6:fd:d0:78:1f:28:08:d3:
         81:00:b6:2e:6a:06:98:6d:da:15:0d:06:06:43:0c:ad:78:9f:
         a1:a4:67:82:97:40:73:7e:d5:c7:c4:69:85:cf:e6:7a:1e:b4:
         ae:bc:7c:f0:6e:31:1b:cf:00:f8:f0:21:b1:be:84:92:14:3b:
         95:41:d8:12:30:9c:9d:fb:23:35:35:b3:ca:ea:51:4b:a5:d6:
         ba:a6:16:8f:4d:8a:f0:1e:ba:6e:cc:d3:28:5b:f0:0c:c3:7d:
         3c:c6:fe:f2:9d:67:8d:be:0e:22:71:45:a4:d7:e1:d9:5d:80:
         c3:fa:64:69:7b:f2:f8:a5:86:f0:c3:fb:12:43:bb:0e:b5:12:
         49:84:f8:f6:3e:72:a5:cf:28:93:6e:02:79:81:66:cf:00:20:
         7e:11:a7:45:ab:0e:47:1a:0c:30:81:bd:bd:1c:34:4b:22:e0:
         ad:df:ed:1a:aa:75:05:03:60:a3:63:a3:7b:4c:50:02:c4:16:
         8d:cc:9b:a4:51:c7:65:c5:10:b7:08:0e:5f:f3:de:8b:cc:06:
         32:7f:fe:42:a6:a7:6f:48:89:c7:75:d1:e3:10:ac:4e:4a:40:
         50:a2:c7:d2:03:7b:c3:7d:f8:46:dd:7b:8c:08:0a:9a:70:cc:
         33:f8:08:74:7b:a6:8e:e5:40:78:23:58:59:39:4b:e5:8c:d2:
         53:ff:b0:d7:d8:4e:77:e7:f2:23:e2:58:05:1f:30:c5:8f:ed:
         be:12:62:54:63:bd:62:ef:b1:22:44:d7:dd:74:24:40:1a:df:
         ed:d2:e4:85:23:f3:53:1b:85:eb:18:29:e9:47:42:16:41:9a:
         c3:31:cb:a6:9d:d4:d9:9a:e7:28:14:05:4c:9f:88:fd:d4:83:
         0d:ef:d8:f0:03:77:b2:e5:1f:3a:1f:8a:2f:d7:4a:ac:a3:a9:
         5b:74:de:1d:58:7f:44:78:94:21:e5:93:9c:c2:51:f0:d1:a2:
         f1:b1:20:17:d6:9d:26:c2
-----BEGIN CERTIFICATE-----
MIIE5jCCAs6gAwIBAgIBGjANBgkqhkiG9w0BAQsFADCBkzELMAkGA1UEBhMCVVMx
CzAJBgNVBAgMAkNBMREwDwYDVQQHDAhTdGFuZm9yZDENMAsGA1UECgwEQk1JUjEO
MAwGA1UECwwFQ0VEQVIxHDAaBgNVBAMME21ldGFkYXRhY2VudGVyLm9yZ3gxJzAl
BgkqhkiG9w0BCQEWGG1ldGFkYXRhY2VudGVyQGdtYWlsLmNvbTAeFw0yNDAxMTgw
MDUwNDZaFw0yNjA0MjEwMDUwNDZaMIGOMQswCQYDVQQGEwJVUzELMAkGA1UECAwC
Q0ExDTALBgNVBAoMBEJNSVIxDjAMBgNVBAsMBUNFREFSMSowKAYDVQQDDCFkb2Nz
LWRpc3QuY2VlLm1ldGFkYXRhY2VudGVyLm9yZ3gxJzAlBgkqhkiG9w0BCQEWGG1l
dGFkYXRhY2VudGVyQGdtYWlsLmNvbTCCASIwDQYJKoZIhvcNAQEBBQADggEPADCC
AQoCggEBAJ25DIVhkAL5z4ZVgUGFvBwS/ByUzV9hwyorz70iktBFk2pwCgb6uwdg
5ZpBb/cmZMsWOCuV0OidtmpfQG39Uw4XVdhs9UOYpCTrNUwUlJatZ/XH2VKetM/f
zeIaag+w6sRMZkdcflQZY6stfitJV2Xx/n2yLolxxEjFEsGabtVXsFAUxrfnbIgG
RywvIe5BP8Igeo8Qkin0HUTe0Ahfo+N9h3VOvB2D++qhyp5bMgTja+onGPkYnKbh
Gz+4+lMPvtVwWfcV+fJXT1zP9WIoNxOu3gsFzVuxicDPD4wQ0gl8O+ztkjpfR5iT
00BvIo8T+DSDZfAp7lnUiyY3joTv7oUCAwEAAaNIMEYwCQYDVR0TBAIwADALBgNV
HQ8EBAMCBeAwLAYDVR0RBCUwI4IhZG9jcy1kaXN0LmNlZS5tZXRhZGF0YWNlbnRl
ci5vcmd4MA0GCSqGSIb3DQEBCwUAA4ICAQBJUE7vdRpJV1lw+RVYvSXk7wnHbzf2
bKo+284KUBTOhafUUvWMoTuM1pzs9/6W+5jiSmrh0DrMFdtmwDcwEeFl56dXCOR1
GdsjJ23tfipXg2zhf8mbH08JnjouM1wyvehie7V6KSzqywLURwAlwJXC0CifE0rs
WxPa7jImIWfew5CVe+tS1s11pv3QeB8oCNOBALYuagaYbdoVDQYGQwyteJ+hpGeC
l0BzftXHxGmFz+Z6HrSuvHzwbjEbzwD48CGxvoSSFDuVQdgSMJyd+yM1NbPK6lFL
pda6phaPTYrwHrpuzNMoW/AMw308xv7ynWeNvg4icUWk1+HZXYDD+mRpe/L4pYbw
w/sSQ7sOtRJJhPj2PnKlzyiTbgJ5gWbPACB+EadFqw5HGgwwgb29HDRLIuCt3+0a
qnUFA2CjY6N7TFACxBaNzJukUcdlxRC3CA5f896LzAYyf/5CpqdvSInHddHjEKxO
SkBQosfSA3vDffhG3XuMCAqacMwz+Ah0e6aO5UB4I1hZOUvljNJT/7DX2E535/Ij
4lgFHzDFj+2+EmJUY71i77EiRNfddCRAGt/t0uSFI/NTG4XrGCnpR0IWQZrDMcum
ndTZmucoFAVMn4j91IMN79jwA3ey5R86H4ov10qso6lbdN4dWH9EeJQh5ZOcwlHw
0aLxsSAX1p0mwg==
-----END CERTIFICATE-----
