Certificate:
    Data:
        Version: 3 (0x2)
        Serial Number: 11 (0xb)
        Signature Algorithm: sha256WithRSAEncryption
        Issuer: C=US, ST=CA, L=Stanford, O=BMIR, OU=CEDAR, CN=metadatacenter.orgx/emailAddress=metadatacenter@gmail.com
        Validity
            Not Before: Jan 18 18:45:18 2023 GMT
            Not After : Apr 21 18:45:18 2025 GMT
        Subject: C=US, ST=CA, O=BMIR, OU=CEDAR, CN=openview.metadatacenter.orgx/emailAddress=metadatacenter@gmail.com
        Subject Public Key Info:
            Public Key Algorithm: rsaEncryption
                RSA Public-Key: (2048 bit)
                Modulus:
                    00:c3:71:0a:95:54:45:f1:0b:0f:9a:36:09:b8:c7:
                    38:20:40:f8:54:c5:b1:67:55:89:27:3c:4e:03:0e:
                    ec:c3:7f:5c:68:6a:1c:7b:5a:62:d4:49:61:e2:a6:
                    76:18:3c:b8:5d:0b:83:07:0f:e2:f0:1f:4d:63:67:
                    4d:b2:85:8e:fd:2d:8c:0b:76:a0:17:b6:c9:3e:0b:
                    7c:9d:17:8f:48:5d:b6:e4:4a:1a:73:66:03:57:c0:
                    55:a1:9a:53:b7:9e:87:cc:dc:9c:58:01:b5:94:b7:
                    62:b3:bd:e5:51:63:cd:a7:98:57:42:4c:9b:3b:45:
                    b2:45:17:a2:7b:14:45:3f:72:8f:7d:7e:2c:c4:d8:
                    58:21:2b:19:78:dd:5a:a9:19:c2:09:e7:e2:21:4f:
                    9b:f4:56:37:88:b1:b1:ff:06:40:a1:3d:2f:9b:64:
                    4d:1c:6a:f2:8f:28:76:25:2c:33:6c:72:c4:c2:28:
                    6f:63:f4:b1:a8:4d:6f:be:df:6a:03:3c:96:81:e7:
                    d1:f1:43:b5:7c:7f:8f:47:64:32:ce:6f:51:85:42:
                    b5:e0:21:be:3d:00:77:03:4f:fd:25:bb:39:cf:02:
                    8b:2b:c1:20:b9:95:af:3a:65:9c:87:01:1f:2a:e2:
                    5e:17:db:b4:2e:bc:0d:25:28:b5:b1:e8:54:ff:94:
                    a2:7b
                Exponent: 65537 (0x10001)
        X509v3 extensions:
            X509v3 Basic Constraints: 
                CA:FALSE
            X509v3 Key Usage: 
                Digital Signature, Non Repudiation, Key Encipherment
            X509v3 Subject Alternative Name: 
                DNS:openview.metadatacenter.orgx
    Signature Algorithm: sha256WithRSAEncryption
         07:4a:79:43:7a:04:6d:9e:91:92:c1:ff:aa:da:52:0e:74:72:
         6f:2d:6d:39:7b:ee:6a:a2:0d:b8:6c:6e:4e:b6:74:53:21:79:
         01:50:45:d1:26:32:eb:c6:42:1c:35:0f:c6:03:65:8e:94:47:
         5f:af:68:60:04:74:53:7e:5e:29:e3:19:26:d8:5b:11:d8:75:
         a9:37:49:cf:8b:4e:26:56:35:b0:96:90:df:5d:38:bc:f5:ae:
         c6:66:86:f3:21:bc:38:f4:3c:d0:76:9b:0d:e0:1c:9f:5a:02:
         ad:d9:dd:ea:58:b4:ee:89:3c:16:03:89:d6:22:b1:17:a9:6f:
         80:11:94:5a:a8:53:74:35:9c:71:dc:77:16:77:b0:ee:a1:56:
         84:81:fe:2e:e4:9d:c4:6b:ca:df:9d:d1:4c:ba:d8:79:e8:97:
         3b:fd:50:69:c7:13:dd:e3:35:ac:ac:8f:e8:34:24:76:e6:4d:
         e9:a0:61:03:0b:1f:42:8b:b6:1b:6d:80:7f:eb:65:a7:31:11:
         46:6d:f5:18:7f:7d:d8:c2:58:64:6d:e8:21:3f:ac:ab:27:08:
         d9:3d:1d:13:74:35:9c:d3:8c:8b:f5:41:55:14:af:ee:ac:4b:
         19:8e:f8:39:94:39:5a:f9:54:82:ee:90:ec:6d:fa:8c:99:3d:
         be:9a:fb:45:1b:05:bc:26:76:b6:9e:fd:62:ef:9c:a1:f7:c8:
         6b:44:2b:b5:6d:aa:8d:e5:56:d8:e1:f3:2c:3a:da:0d:fa:2c:
         da:4b:ec:b4:a9:9a:04:b1:06:db:60:24:4b:c0:52:99:1e:78:
         ec:14:14:6f:c5:0f:08:d9:91:13:b7:b1:33:a0:a8:8c:f4:d1:
         02:e0:2b:55:dc:25:ef:02:83:4b:d7:ea:50:8f:0e:2c:d3:b9:
         0a:1e:40:7d:fc:5f:e3:4d:a5:ec:02:af:93:08:bd:16:44:a4:
         d4:44:16:d8:f7:de:33:56:cc:dd:71:00:a0:66:fa:d2:bd:6b:
         3e:b7:7c:ef:6a:19:01:31:07:a0:4a:df:fe:1b:02:43:be:36:
         92:d1:95:54:9c:47:5d:6d:ea:d7:e1:24:83:3b:a4:16:5f:04:
         2c:fc:c3:ac:95:f5:64:d8:ce:e9:b4:c1:f7:59:ef:f4:b3:b7:
         a8:80:17:5c:d3:17:8e:29:5a:d9:04:15:16:ca:9a:35:08:b4:
         1c:8d:e6:ca:c9:1f:d5:05:9e:99:ef:4c:01:73:62:9e:4e:48:
         c3:c5:08:e6:b6:cc:0c:c6:c3:ad:fb:56:7c:ee:3a:04:a4:b4:
         55:e3:a6:6a:52:6f:e6:d8:91:d5:cd:44:a8:17:1c:8f:69:f0:
         4b:87:3f:4e:a7:78:9c:95
-----BEGIN CERTIFICATE-----
MIIE3DCCAsSgAwIBAgIBCzANBgkqhkiG9w0BAQsFADCBkzELMAkGA1UEBhMCVVMx
CzAJBgNVBAgMAkNBMREwDwYDVQQHDAhTdGFuZm9yZDENMAsGA1UECgwEQk1JUjEO
MAwGA1UECwwFQ0VEQVIxHDAaBgNVBAMME21ldGFkYXRhY2VudGVyLm9yZ3gxJzAl
BgkqhkiG9w0BCQEWGG1ldGFkYXRhY2VudGVyQGdtYWlsLmNvbTAeFw0yMzAxMTgx
ODQ1MThaFw0yNTA0MjExODQ1MThaMIGJMQswCQYDVQQGEwJVUzELMAkGA1UECAwC
Q0ExDTALBgNVBAoMBEJNSVIxDjAMBgNVBAsMBUNFREFSMSUwIwYDVQQDDBxvcGVu
dmlldy5tZXRhZGF0YWNlbnRlci5vcmd4MScwJQYJKoZIhvcNAQkBFhhtZXRhZGF0
YWNlbnRlckBnbWFpbC5jb20wggEiMA0GCSqGSIb3DQEBAQUAA4IBDwAwggEKAoIB
AQDDcQqVVEXxCw+aNgm4xzggQPhUxbFnVYknPE4DDuzDf1xoahx7WmLUSWHipnYY
PLhdC4MHD+LwH01jZ02yhY79LYwLdqAXtsk+C3ydF49IXbbkShpzZgNXwFWhmlO3
nofM3JxYAbWUt2KzveVRY82nmFdCTJs7RbJFF6J7FEU/co99fizE2FghKxl43Vqp
GcIJ5+IhT5v0VjeIsbH/BkChPS+bZE0cavKPKHYlLDNscsTCKG9j9LGoTW++32oD
PJaB59HxQ7V8f49HZDLOb1GFQrXgIb49AHcDT/0luznPAosrwSC5la86ZZyHAR8q
4l4X27QuvA0lKLWx6FT/lKJ7AgMBAAGjQzBBMAkGA1UdEwQCMAAwCwYDVR0PBAQD
AgXgMCcGA1UdEQQgMB6CHG9wZW52aWV3Lm1ldGFkYXRhY2VudGVyLm9yZ3gwDQYJ
KoZIhvcNAQELBQADggIBAAdKeUN6BG2ekZLB/6raUg50cm8tbTl77mqiDbhsbk62
dFMheQFQRdEmMuvGQhw1D8YDZY6UR1+vaGAEdFN+XinjGSbYWxHYdak3Sc+LTiZW
NbCWkN9dOLz1rsZmhvMhvDj0PNB2mw3gHJ9aAq3Z3epYtO6JPBYDidYisRepb4AR
lFqoU3Q1nHHcdxZ3sO6hVoSB/i7kncRryt+d0Uy62Hnolzv9UGnHE93jNaysj+g0
JHbmTemgYQMLH0KLthttgH/rZacxEUZt9Rh/fdjCWGRt6CE/rKsnCNk9HRN0NZzT
jIv1QVUUr+6sSxmO+DmUOVr5VILukOxt+oyZPb6a+0UbBbwmdrae/WLvnKH3yGtE
K7Vtqo3lVtjh8yw62g36LNpL7LSpmgSxBttgJEvAUpkeeOwUFG/FDwjZkRO3sTOg
qIz00QLgK1XcJe8Cg0vX6lCPDizTuQoeQH38X+NNpewCr5MIvRZEpNREFtj33jNW
zN1xAKBm+tK9az63fO9qGQExB6BK3/4bAkO+NpLRlVScR11t6tfhJIM7pBZfBCz8
w6yV9WTYzum0wfdZ7/Szt6iAF1zTF44pWtkEFRbKmjUItByN5srJH9UFnpnvTAFz
Yp5OSMPFCOa2zAzGw637VnzuOgSktFXjpmpSb+bYkdXNRKgXHI9p8EuHP06neJyV
-----END CERTIFICATE-----
