Certificate:
    Data:
        Version: 3 (0x2)
        Serial Number: 10 (0xa)
        Signature Algorithm: sha256WithRSAEncryption
        Issuer: C=US, ST=CA, L=Stanford, O=BMIR, OU=CEDAR, CN=metadatacenter.orgx/emailAddress=metadatacenter@gmail.com
        Validity
            Not Before: Jan 17 21:50:43 2024 GMT
            Not After : Apr 20 21:50:43 2026 GMT
        Subject: C=US, ST=CA, O=BMIR, OU=CEDAR, CN=resource.metadatacenter.orgx/emailAddress=metadatacenter@gmail.com
        Subject Public Key Info:
            Public Key Algorithm: rsaEncryption
                RSA Public-Key: (2048 bit)
                Modulus:
                    00:c1:fa:a0:4d:18:c3:78:96:e0:75:0d:e6:0b:3e:
                    37:e6:1c:42:de:90:fe:69:8a:4b:64:ec:41:db:f6:
                    7c:7f:6c:dd:f1:2b:81:4d:9c:31:3e:0e:c5:d4:c4:
                    dc:74:20:89:f8:57:89:b2:8c:2a:bf:9c:51:f0:75:
                    a6:79:6c:8e:ed:13:c4:1b:16:57:1f:6b:02:be:01:
                    82:80:21:23:20:cb:f5:7b:3d:14:08:42:b3:8b:64:
                    f7:55:26:5f:73:d3:8f:d4:46:44:22:60:0e:13:c4:
                    1a:8e:14:bb:80:51:9b:e9:3d:2a:b8:8b:c4:b6:f0:
                    42:1a:82:a5:b7:69:39:99:5c:a2:0c:f8:f3:1e:c9:
                    b9:d4:5c:42:5d:6d:6d:a2:2e:97:73:21:18:e5:67:
                    fd:2c:43:1a:8f:f0:bf:53:b1:80:97:32:70:56:34:
                    bb:6f:4f:9c:39:b6:19:64:f6:94:34:ad:12:c4:09:
                    a9:2e:29:38:0a:08:3f:86:00:6f:a8:6d:8d:45:36:
                    26:6d:54:2c:3e:d9:8a:79:72:41:45:ed:dc:3a:84:
                    83:3b:d6:77:9b:62:be:f1:17:56:05:3b:66:58:70:
                    80:5b:ef:c0:ee:df:bf:07:dd:33:dd:f8:5b:d6:dd:
                    6c:25:35:c6:83:00:81:84:7b:82:71:78:1a:ae:31:
                    04:a9
                Exponent: 65537 (0x10001)
        X509v3 extensions:
            X509v3 Basic Constraints: 
                CA:FALSE
            X509v3 Key Usage: 
                Digital Signature, Non Repudiation, Key Encipherment
            X509v3 Subject Alternative Name: 
                DNS:resource.metadatacenter.orgx
    Signature Algorithm: sha256WithRSAEncryption
         3d:a4:c8:f4:e8:57:e5:a7:30:ab:d5:b4:2e:ba:bb:1c:d2:e1:
         24:ea:4a:5b:ec:34:82:bd:b6:33:93:33:38:4f:5a:4f:44:39:
         24:50:3d:3e:75:6e:99:2b:86:d1:e3:de:ee:a8:a2:17:16:03:
         1a:42:29:51:4a:a5:20:3d:59:9d:fb:d1:88:22:70:74:30:fa:
         84:26:11:ea:ea:b5:a8:b7:49:d8:b9:3e:64:da:8f:69:ff:ab:
         10:e6:07:63:8a:2b:d2:58:aa:58:1b:7b:74:da:2e:c2:31:0e:
         2e:03:ce:da:39:d2:c4:88:65:eb:6e:c1:81:5b:b3:05:aa:d8:
         91:f1:21:08:23:1c:d8:49:3c:6b:48:d0:03:a6:d6:5f:7b:8c:
         6b:53:d4:a0:95:3b:54:fd:b8:e0:b3:7c:0b:e6:78:4c:b5:16:
         f3:e8:b0:a9:1b:5b:e0:60:6c:a6:be:53:8c:a2:e8:44:48:a7:
         8f:41:b6:c8:4d:0e:ae:cf:21:47:df:32:d0:08:d7:5d:86:d3:
         48:15:e0:68:f5:83:48:09:58:97:b2:70:11:be:63:24:1a:18:
         6f:b1:83:3f:90:e1:12:3e:91:69:56:74:73:b6:ad:94:d2:7a:
         d0:ac:6c:13:f4:82:cc:bb:2f:f2:3c:8c:fa:31:b5:70:38:e8:
         a1:b3:ae:f0:d4:ea:38:ab:8e:d6:8a:a8:96:96:5f:1c:91:e5:
         90:71:d3:2b:da:70:ef:d5:a6:b4:5a:0f:64:32:38:cf:8b:1c:
         c7:fc:6b:1e:96:90:8b:87:7a:11:94:d9:a1:06:5b:77:18:d1:
         e0:a7:b3:5f:e6:c7:57:54:b9:10:29:3b:8d:f7:77:5f:53:a3:
         42:ff:29:05:67:b1:7f:52:b3:a5:4c:7c:0a:d1:cc:58:21:54:
         1d:33:e6:1e:e6:04:35:ab:e7:5a:a3:1f:ea:11:23:3d:0d:f2:
         4b:6f:36:64:86:a5:4e:9f:e6:c2:59:28:82:44:45:32:3e:1f:
         ce:79:bc:76:89:c8:87:9c:d4:a6:fb:5a:3c:27:2d:d6:23:c6:
         16:44:b9:6d:22:74:55:47:83:cc:6d:29:cc:a5:9a:75:6b:25:
         02:13:c9:10:0f:f1:b3:ae:bd:8b:f7:61:f7:cf:f5:cd:2c:4c:
         a0:bb:87:ec:36:5f:31:2b:d6:a5:09:c2:3b:bc:e6:a2:68:a6:
         15:40:47:21:f9:d4:07:b0:e6:c1:78:35:d4:09:19:48:fa:09:
         4e:c4:11:c5:7d:25:fd:f1:60:ac:f3:4a:13:f5:9c:b6:6d:f2:
         dd:d7:74:26:cf:6e:ce:37:ff:66:16:db:13:b7:82:66:ff:e3:
         69:04:f3:75:73:72:56:0d
-----BEGIN CERTIFICATE-----
MIIE3DCCAsSgAwIBAgIBCjANBgkqhkiG9w0BAQsFADCBkzELMAkGA1UEBhMCVVMx
CzAJBgNVBAgMAkNBMREwDwYDVQQHDAhTdGFuZm9yZDENMAsGA1UECgwEQk1JUjEO
MAwGA1UECwwFQ0VEQVIxHDAaBgNVBAMME21ldGFkYXRhY2VudGVyLm9yZ3gxJzAl
BgkqhkiG9w0BCQEWGG1ldGFkYXRhY2VudGVyQGdtYWlsLmNvbTAeFw0yNDAxMTcy
MTUwNDNaFw0yNjA0MjAyMTUwNDNaMIGJMQswCQYDVQQGEwJVUzELMAkGA1UECAwC
Q0ExDTALBgNVBAoMBEJNSVIxDjAMBgNVBAsMBUNFREFSMSUwIwYDVQQDDBxyZXNv
dXJjZS5tZXRhZGF0YWNlbnRlci5vcmd4MScwJQYJKoZIhvcNAQkBFhhtZXRhZGF0
YWNlbnRlckBnbWFpbC5jb20wggEiMA0GCSqGSIb3DQEBAQUAA4IBDwAwggEKAoIB
AQDB+qBNGMN4luB1DeYLPjfmHELekP5piktk7EHb9nx/bN3xK4FNnDE+DsXUxNx0
IIn4V4myjCq/nFHwdaZ5bI7tE8QbFlcfawK+AYKAISMgy/V7PRQIQrOLZPdVJl9z
04/URkQiYA4TxBqOFLuAUZvpPSq4i8S28EIagqW3aTmZXKIM+PMeybnUXEJdbW2i
LpdzIRjlZ/0sQxqP8L9TsYCXMnBWNLtvT5w5thlk9pQ0rRLECakuKTgKCD+GAG+o
bY1FNiZtVCw+2Yp5ckFF7dw6hIM71nebYr7xF1YFO2ZYcIBb78Du378H3TPd+FvW
3WwlNcaDAIGEe4JxeBquMQSpAgMBAAGjQzBBMAkGA1UdEwQCMAAwCwYDVR0PBAQD
AgXgMCcGA1UdEQQgMB6CHHJlc291cmNlLm1ldGFkYXRhY2VudGVyLm9yZ3gwDQYJ
KoZIhvcNAQELBQADggIBAD2kyPToV+WnMKvVtC66uxzS4STqSlvsNIK9tjOTMzhP
Wk9EOSRQPT51bpkrhtHj3u6oohcWAxpCKVFKpSA9WZ370YgicHQw+oQmEerqtai3
Sdi5PmTaj2n/qxDmB2OKK9JYqlgbe3TaLsIxDi4Dzto50sSIZetuwYFbswWq2JHx
IQgjHNhJPGtI0AOm1l97jGtT1KCVO1T9uOCzfAvmeEy1FvPosKkbW+BgbKa+U4yi
6ERIp49BtshNDq7PIUffMtAI112G00gV4Gj1g0gJWJeycBG+YyQaGG+xgz+Q4RI+
kWlWdHO2rZTSetCsbBP0gsy7L/I8jPoxtXA46KGzrvDU6jirjtaKqJaWXxyR5ZBx
0yvacO/VprRaD2QyOM+LHMf8ax6WkIuHehGU2aEGW3cY0eCns1/mx1dUuRApO433
d19To0L/KQVnsX9Ss6VMfArRzFghVB0z5h7mBDWr51qjH+oRIz0N8ktvNmSGpU6f
5sJZKIJERTI+H855vHaJyIec1Kb7WjwnLdYjxhZEuW0idFVHg8xtKcylmnVrJQIT
yRAP8bOuvYv3YffP9c0sTKC7h+w2XzEr1qUJwju85qJophVARyH51Aew5sF4NdQJ
GUj6CU7EEcV9Jf3xYKzzShP1nLZt8t3XdCbPbs43/2YW2xO3gmb/42kE83VzclYN
-----END CERTIFICATE-----
