Certificate:
    Data:
        Version: 3 (0x2)
        Serial Number: 12 (0xc)
        Signature Algorithm: sha256WithRSAEncryption
        Issuer: C=US, ST=CA, L=Stanford, O=BMIR, OU=CEDAR, CN=metadatacenter.orgx/emailAddress=metadatacenter@gmail.com
        Validity
            Not Before: Jan 18 18:46:51 2023 GMT
            Not After : Apr 21 18:46:51 2025 GMT
        Subject: C=US, ST=CA, O=BMIR, OU=CEDAR, CN=repo.metadatacenter.orgx/emailAddress=metadatacenter@gmail.com
        Subject Public Key Info:
            Public Key Algorithm: rsaEncryption
                RSA Public-Key: (2048 bit)
                Modulus:
                    00:aa:2e:a8:62:2a:9b:25:a5:59:5f:e6:7c:3f:02:
                    15:e3:fc:34:93:68:83:d3:6c:0d:c9:03:1c:1c:08:
                    6d:86:d5:b1:6e:6a:22:38:68:1a:36:9b:b4:ae:df:
                    5e:3c:28:8d:03:03:a0:c6:3a:0b:ca:85:d2:e1:0a:
                    3b:fe:e3:1b:49:1d:a1:81:86:fa:8f:b0:94:ff:fd:
                    b4:fa:47:59:61:28:f2:23:a3:1d:1e:01:82:7d:e2:
                    47:d5:69:ac:95:d4:bd:fb:02:f1:21:d5:1f:d7:78:
                    f9:b0:f8:d7:a8:58:35:de:80:7e:f9:c6:cc:06:0d:
                    3d:45:c6:a5:93:a2:1a:8a:a6:23:33:e5:ff:4d:65:
                    b5:80:09:96:cc:ac:6b:7c:3b:96:ed:67:ce:24:a8:
                    e5:85:5c:93:39:f4:08:91:6c:8a:49:27:26:23:ad:
                    b9:cb:5d:c1:de:8f:85:b3:5f:01:81:10:0d:ae:58:
                    8c:74:5e:1a:67:61:36:6c:57:59:72:40:bb:df:ea:
                    80:c3:d2:bc:e6:c5:ac:c0:aa:1c:50:ca:b7:66:31:
                    53:f6:f5:ef:c1:b1:72:2a:53:2e:3a:07:bb:46:0c:
                    72:b4:92:1e:b5:8c:d4:3c:53:24:69:02:73:e9:a0:
                    74:76:36:6d:ef:41:7a:20:b0:7c:7e:9a:4e:05:d8:
                    2d:b5
                Exponent: 65537 (0x10001)
        X509v3 extensions:
            X509v3 Basic Constraints: 
                CA:FALSE
            X509v3 Key Usage: 
                Digital Signature, Non Repudiation, Key Encipherment
            X509v3 Subject Alternative Name: 
                DNS:repo.metadatacenter.orgx
    Signature Algorithm: sha256WithRSAEncryption
         9d:eb:3a:68:21:52:76:2f:41:9a:e6:ab:b9:6a:e9:d1:c8:f1:
         aa:e6:7a:7e:cb:e1:24:df:a9:85:aa:bd:1f:45:17:e7:4c:8f:
         b1:48:8e:1d:1a:91:72:04:f3:9d:a4:14:81:f7:18:f3:fd:ac:
         76:b6:42:b4:94:a3:23:7e:23:ed:21:6b:65:9f:d2:9f:09:26:
         59:6f:f2:13:48:49:5d:d1:b6:d3:db:79:02:ce:53:5c:2c:bb:
         f2:50:19:96:b7:64:b4:0b:bc:98:aa:2a:ec:37:e9:cd:15:61:
         ec:f1:42:21:05:ab:5c:c2:86:69:af:3c:eb:dd:e9:9a:23:0e:
         0c:44:0d:5b:37:a8:94:8c:d8:22:5f:fa:cc:03:91:dd:e3:2c:
         d0:91:3f:cc:50:22:a5:02:5a:2d:a0:59:6a:8d:2d:88:9a:54:
         16:b3:0e:41:8b:73:69:18:1b:8c:1e:c0:cf:4d:3b:2a:d1:e3:
         b6:28:b6:68:eb:d2:39:b2:72:9b:24:14:56:d0:8a:9d:a6:2a:
         df:2c:b4:aa:4d:af:a6:ee:be:78:fb:8f:b0:a3:81:6a:a7:7d:
         1b:81:1a:82:72:b9:bc:d5:6e:b7:7d:cb:f4:61:68:8c:77:69:
         0b:95:43:3a:fe:cd:de:d5:46:a2:92:87:1d:e9:e9:18:a6:1d:
         a2:58:f7:03:f8:0d:f5:5f:e7:08:9b:31:b2:9d:4f:34:77:3a:
         8a:42:3b:ad:f9:a7:4b:d2:7e:29:c3:d5:ff:ce:45:f4:1f:95:
         fa:05:20:5c:50:fb:aa:dd:21:d1:05:e8:44:4f:25:ad:19:34:
         58:ee:2d:0e:4a:21:f9:db:e8:29:ae:d5:f0:14:22:be:6c:8b:
         fc:6b:2a:17:72:0d:fa:ff:a9:a9:a5:cf:f8:a0:48:b0:82:4c:
         d9:61:87:b8:6f:c9:ff:c6:ed:65:1d:f3:fc:b7:18:cb:05:03:
         20:98:02:82:2b:1a:86:9e:14:90:f5:c0:6a:44:e6:6f:e6:33:
         1d:af:44:71:4b:e6:ee:9e:6b:d9:e7:40:3c:64:d7:37:af:51:
         65:9d:3f:21:dd:a4:66:73:9e:ad:01:ad:31:97:1d:7c:37:aa:
         00:10:92:54:3e:96:c0:27:4b:9b:cb:99:49:fe:64:44:04:f9:
         a6:e5:d3:b3:4b:30:db:0a:20:e2:ae:11:58:21:b5:00:e9:7b:
         76:43:a7:f0:84:c5:90:18:e2:27:ff:60:17:17:8f:dc:a7:0d:
         b5:69:5a:af:f9:65:13:39:4d:9c:d3:2a:96:96:b9:dd:96:cf:
         0e:13:a4:64:70:ba:d8:4f:47:93:84:40:33:b0:d6:b8:bb:7b:
         ad:fb:4a:48:6e:14:5a:63
-----BEGIN CERTIFICATE-----
MIIE1DCCArygAwIBAgIBDDANBgkqhkiG9w0BAQsFADCBkzELMAkGA1UEBhMCVVMx
CzAJBgNVBAgMAkNBMREwDwYDVQQHDAhTdGFuZm9yZDENMAsGA1UECgwEQk1JUjEO
MAwGA1UECwwFQ0VEQVIxHDAaBgNVBAMME21ldGFkYXRhY2VudGVyLm9yZ3gxJzAl
BgkqhkiG9w0BCQEWGG1ldGFkYXRhY2VudGVyQGdtYWlsLmNvbTAeFw0yMzAxMTgx
ODQ2NTFaFw0yNTA0MjExODQ2NTFaMIGFMQswCQYDVQQGEwJVUzELMAkGA1UECAwC
Q0ExDTALBgNVBAoMBEJNSVIxDjAMBgNVBAsMBUNFREFSMSEwHwYDVQQDDBhyZXBv
Lm1ldGFkYXRhY2VudGVyLm9yZ3gxJzAlBgkqhkiG9w0BCQEWGG1ldGFkYXRhY2Vu
dGVyQGdtYWlsLmNvbTCCASIwDQYJKoZIhvcNAQEBBQADggEPADCCAQoCggEBAKou
qGIqmyWlWV/mfD8CFeP8NJNog9NsDckDHBwIbYbVsW5qIjhoGjabtK7fXjwojQMD
oMY6C8qF0uEKO/7jG0kdoYGG+o+wlP/9tPpHWWEo8iOjHR4Bgn3iR9VprJXUvfsC
8SHVH9d4+bD416hYNd6AfvnGzAYNPUXGpZOiGoqmIzPl/01ltYAJlsysa3w7lu1n
ziSo5YVckzn0CJFsikknJiOtuctdwd6PhbNfAYEQDa5YjHReGmdhNmxXWXJAu9/q
gMPSvObFrMCqHFDKt2YxU/b178GxcipTLjoHu0YMcrSSHrWM1DxTJGkCc+mgdHY2
be9BeiCwfH6aTgXYLbUCAwEAAaM/MD0wCQYDVR0TBAIwADALBgNVHQ8EBAMCBeAw
IwYDVR0RBBwwGoIYcmVwby5tZXRhZGF0YWNlbnRlci5vcmd4MA0GCSqGSIb3DQEB
CwUAA4ICAQCd6zpoIVJ2L0Ga5qu5aunRyPGq5np+y+Ek36mFqr0fRRfnTI+xSI4d
GpFyBPOdpBSB9xjz/ax2tkK0lKMjfiPtIWtln9KfCSZZb/ITSEld0bbT23kCzlNc
LLvyUBmWt2S0C7yYqirsN+nNFWHs8UIhBatcwoZprzzr3emaIw4MRA1bN6iUjNgi
X/rMA5Hd4yzQkT/MUCKlAlotoFlqjS2ImlQWsw5Bi3NpGBuMHsDPTTsq0eO2KLZo
69I5snKbJBRW0IqdpirfLLSqTa+m7r54+4+wo4Fqp30bgRqCcrm81W63fcv0YWiM
d2kLlUM6/s3e1Uaikocd6ekYph2iWPcD+A31X+cImzGynU80dzqKQjut+adL0n4p
w9X/zkX0H5X6BSBcUPuq3SHRBehETyWtGTRY7i0OSiH52+gprtXwFCK+bIv8ayoX
cg36/6mppc/4oEiwgkzZYYe4b8n/xu1lHfP8txjLBQMgmAKCKxqGnhSQ9cBqROZv
5jMdr0RxS+bunmvZ50A8ZNc3r1FlnT8h3aRmc56tAa0xlx18N6oAEJJUPpbAJ0ub
y5lJ/mREBPmm5dOzSzDbCiDirhFYIbUA6Xt2Q6fwhMWQGOIn/2AXF4/cpw21aVqv
+WUTOU2c0yqWlrndls8OE6RkcLrYT0eThEAzsNa4u3ut+0pIbhRaYw==
-----END CERTIFICATE-----
