Certificate:
    Data:
        Version: 3 (0x2)
        Serial Number: 9 (0x9)
        Signature Algorithm: sha256WithRSAEncryption
        Issuer: C=US, ST=CA, L=Stanford, O=BMIR, OU=CEDAR, CN=metadatacenter.orgx/emailAddress=metadatacenter@gmail.com
        Validity
            Not Before: Jan 17 21:50:43 2024 GMT
            Not After : Apr 20 21:50:43 2026 GMT
        Subject: C=US, ST=CA, O=BMIR, OU=CEDAR, CN=repo.metadatacenter.orgx/emailAddress=metadatacenter@gmail.com
        Subject Public Key Info:
            Public Key Algorithm: rsaEncryption
                RSA Public-Key: (2048 bit)
                Modulus:
                    00:c9:df:2b:78:64:78:1a:50:4e:bb:df:19:75:30:
                    39:91:f3:cb:e4:2d:6a:8c:45:32:08:92:d9:d3:77:
                    10:05:a2:89:74:5b:31:13:32:59:cb:18:35:d2:74:
                    28:f6:6b:9e:17:34:3c:9f:e3:dd:c5:73:e7:1e:ee:
                    15:15:f4:08:00:1d:0f:0b:38:06:ee:dd:85:5b:cc:
                    21:49:30:89:c1:7a:82:37:93:bc:61:b2:dd:7d:6b:
                    76:21:60:eb:b2:89:ea:68:ed:6c:ea:d2:63:f4:13:
                    74:57:f7:09:6b:7c:fd:ff:a6:87:d7:0b:a8:fc:8c:
                    80:58:a5:32:38:bf:e9:b3:a8:9b:b2:fc:51:f0:73:
                    e8:1d:7a:d8:75:39:92:eb:07:97:b7:27:7a:ed:32:
                    83:2e:5d:50:0c:4b:3e:0a:7d:8a:1f:24:b5:f1:9e:
                    29:70:6f:e9:62:b7:be:b8:7b:0e:f0:4a:9c:6d:64:
                    11:41:44:db:c6:57:29:f2:23:80:3c:ce:f1:e8:e4:
                    63:b4:7a:5e:b6:52:cc:d0:00:8c:7f:af:fe:46:55:
                    76:6d:2d:95:dd:32:9c:1e:28:20:ec:d2:7a:58:74:
                    4e:1e:34:2b:05:a5:af:7c:74:f1:f2:95:91:e2:72:
                    97:c9:30:14:a1:7f:15:c6:e2:d0:7c:72:4b:4f:a0:
                    d6:1f
                Exponent: 65537 (0x10001)
        X509v3 extensions:
            X509v3 Basic Constraints: 
                CA:FALSE
            X509v3 Key Usage: 
                Digital Signature, Non Repudiation, Key Encipherment
            X509v3 Subject Alternative Name: 
                DNS:repo.metadatacenter.orgx
    Signature Algorithm: sha256WithRSAEncryption
         b6:d4:af:ab:71:fa:97:d3:92:b1:19:a7:45:8a:1e:6d:bd:6d:
         ad:33:c7:9f:2a:10:a8:54:75:a9:dd:ea:8c:ca:a4:fd:4f:ec:
         d3:c4:31:6c:c3:11:f5:66:e8:11:26:4b:b2:0b:95:0d:0c:51:
         37:63:11:6f:7f:c0:e7:59:50:17:d5:be:ad:1e:80:bc:40:22:
         5c:24:34:81:f8:67:7d:de:d8:c9:98:2e:f7:3b:30:42:54:a4:
         a9:89:21:07:8b:9e:1b:14:28:37:0c:b1:c8:0c:a3:68:dc:29:
         f8:17:81:ca:d1:e7:dd:d3:36:31:63:eb:d5:c9:67:88:45:ec:
         ec:7d:00:04:ee:0b:1a:1d:fd:b7:e4:55:11:0c:4f:da:06:c6:
         a6:c6:21:7d:c4:d3:de:37:05:ce:cb:e8:57:e9:ae:ef:ca:f7:
         6f:8e:49:02:6d:bf:6a:52:51:52:a9:c7:43:6f:cf:32:2c:af:
         4f:ef:10:dc:2c:d3:3d:ac:a2:8d:88:e3:3b:24:1f:15:7e:50:
         28:30:ad:71:04:4d:5d:b2:44:ea:fd:a6:45:fc:06:47:02:93:
         d4:58:60:3a:0b:3d:0c:32:43:f4:41:77:e3:cc:07:b5:c6:3e:
         4c:0d:fa:d7:27:9c:5c:c4:f0:44:b0:39:fe:dc:17:3a:53:23:
         03:cf:ed:d4:db:41:8b:27:08:95:8a:12:fa:ab:3b:9c:07:a6:
         5d:a6:94:9d:19:4b:94:7c:09:64:d2:32:c9:a3:3b:55:7f:dd:
         80:9c:c2:c4:85:04:4e:a6:4f:ab:3d:e9:45:2a:ad:b7:0b:e3:
         69:04:2b:02:de:1c:b7:d4:66:8d:ea:b6:a5:af:22:46:c8:a6:
         f6:72:ff:eb:fc:35:84:63:0d:92:63:33:b9:e9:66:8b:53:c1:
         75:8d:c5:39:0f:8d:85:53:49:3a:51:a2:01:b6:31:51:67:d3:
         57:4c:3d:d9:7d:76:7d:79:4c:e7:51:db:73:b2:76:8f:e8:08:
         16:cb:3f:0b:88:a9:c2:f8:53:f0:cc:94:f9:93:3d:e8:d4:93:
         36:59:f4:c7:4f:b0:9a:d6:80:19:62:e6:f2:75:70:c8:bf:ae:
         c8:fb:a3:1b:80:dc:22:e9:b1:52:6a:b3:96:c7:55:c9:39:1f:
         88:ec:57:f8:b7:27:95:09:49:b6:f2:4a:ab:90:65:0e:eb:0f:
         ee:25:51:ff:8f:f6:7a:92:62:a4:92:df:c5:73:88:4c:51:06:
         06:c7:17:15:3b:0d:72:6f:f5:86:b1:b2:cf:01:ab:bb:40:ac:
         3d:2a:fe:eb:03:75:9b:92:12:49:3d:71:d6:94:d3:e8:a8:58:
         0f:9f:dd:dc:83:1a:6f:29
-----BEGIN CERTIFICATE-----
MIIE1DCCArygAwIBAgIBCTANBgkqhkiG9w0BAQsFADCBkzELMAkGA1UEBhMCVVMx
CzAJBgNVBAgMAkNBMREwDwYDVQQHDAhTdGFuZm9yZDENMAsGA1UECgwEQk1JUjEO
MAwGA1UECwwFQ0VEQVIxHDAaBgNVBAMME21ldGFkYXRhY2VudGVyLm9yZ3gxJzAl
BgkqhkiG9w0BCQEWGG1ldGFkYXRhY2VudGVyQGdtYWlsLmNvbTAeFw0yNDAxMTcy
MTUwNDNaFw0yNjA0MjAyMTUwNDNaMIGFMQswCQYDVQQGEwJVUzELMAkGA1UECAwC
Q0ExDTALBgNVBAoMBEJNSVIxDjAMBgNVBAsMBUNFREFSMSEwHwYDVQQDDBhyZXBv
Lm1ldGFkYXRhY2VudGVyLm9yZ3gxJzAlBgkqhkiG9w0BCQEWGG1ldGFkYXRhY2Vu
dGVyQGdtYWlsLmNvbTCCASIwDQYJKoZIhvcNAQEBBQADggEPADCCAQoCggEBAMnf
K3hkeBpQTrvfGXUwOZHzy+QtaoxFMgiS2dN3EAWiiXRbMRMyWcsYNdJ0KPZrnhc0
PJ/j3cVz5x7uFRX0CAAdDws4Bu7dhVvMIUkwicF6gjeTvGGy3X1rdiFg67KJ6mjt
bOrSY/QTdFf3CWt8/f+mh9cLqPyMgFilMji/6bOom7L8UfBz6B162HU5kusHl7cn
eu0ygy5dUAxLPgp9ih8ktfGeKXBv6WK3vrh7DvBKnG1kEUFE28ZXKfIjgDzO8ejk
Y7R6XrZSzNAAjH+v/kZVdm0tld0ynB4oIOzSelh0Th40KwWlr3x08fKVkeJyl8kw
FKF/Fcbi0HxyS0+g1h8CAwEAAaM/MD0wCQYDVR0TBAIwADALBgNVHQ8EBAMCBeAw
IwYDVR0RBBwwGoIYcmVwby5tZXRhZGF0YWNlbnRlci5vcmd4MA0GCSqGSIb3DQEB
CwUAA4ICAQC21K+rcfqX05KxGadFih5tvW2tM8efKhCoVHWp3eqMyqT9T+zTxDFs
wxH1ZugRJkuyC5UNDFE3YxFvf8DnWVAX1b6tHoC8QCJcJDSB+Gd93tjJmC73OzBC
VKSpiSEHi54bFCg3DLHIDKNo3Cn4F4HK0efd0zYxY+vVyWeIRezsfQAE7gsaHf23
5FURDE/aBsamxiF9xNPeNwXOy+hX6a7vyvdvjkkCbb9qUlFSqcdDb88yLK9P7xDc
LNM9rKKNiOM7JB8VflAoMK1xBE1dskTq/aZF/AZHApPUWGA6Cz0MMkP0QXfjzAe1
xj5MDfrXJ5xcxPBEsDn+3Bc6UyMDz+3U20GLJwiVihL6qzucB6ZdppSdGUuUfAlk
0jLJoztVf92AnMLEhQROpk+rPelFKq23C+NpBCsC3hy31GaN6ralryJGyKb2cv/r
/DWEYw2SYzO56WaLU8F1jcU5D42FU0k6UaIBtjFRZ9NXTD3ZfXZ9eUznUdtzsnaP
6AgWyz8LiKnC+FPwzJT5kz3o1JM2WfTHT7Ca1oAZYubydXDIv67I+6MbgNwi6bFS
arOWx1XJOR+I7Ff4tyeVCUm28kqrkGUO6w/uJVH/j/Z6kmKkkt/Fc4hMUQYGxxcV
Ow1yb/WGsbLPAau7QKw9Kv7rA3WbkhJJPXHWlNPoqFgPn93cgxpvKQ==
-----END CERTIFICATE-----
