Certificate:
    Data:
        Version: 3 (0x2)
        Serial Number: 17 (0x11)
        Signature Algorithm: sha256WithRSAEncryption
        Issuer: C=US, ST=CA, L=Stanford, O=BMIR, OU=CEDAR, CN=metadatacenter.orgx/emailAddress=metadatacenter@gmail.com
        Validity
            Not Before: Jan 18 19:31:58 2023 GMT
            Not After : Apr 21 19:31:58 2025 GMT
        Subject: C=US, ST=CA, O=BMIR, OU=CEDAR, CN=user.metadatacenter.orgx/emailAddress=metadatacenter@gmail.com
        Subject Public Key Info:
            Public Key Algorithm: rsaEncryption
                RSA Public-Key: (2048 bit)
                Modulus:
                    00:ba:7a:ff:7b:53:5a:72:d5:83:58:59:98:da:85:
                    16:f4:d4:0e:14:df:6e:a8:61:d2:d3:3a:34:67:99:
                    52:9a:8d:53:3f:bf:63:8d:07:eb:3f:6f:99:75:95:
                    85:58:ec:08:27:df:34:3f:9b:db:71:a8:50:4a:44:
                    7d:f0:3a:ab:da:06:24:5f:a5:08:35:3f:0a:b5:1a:
                    23:05:fa:7c:9c:db:3f:2c:eb:45:6a:08:b4:86:61:
                    ca:ad:85:7d:31:82:8a:c1:0f:b7:4c:8e:60:c6:e5:
                    71:16:7f:76:ac:d4:5f:66:ba:37:1f:0d:ec:02:ea:
                    9c:07:f6:58:26:6a:25:e7:24:f7:1c:31:2b:97:70:
                    c7:db:4b:f0:e4:69:87:c9:eb:b8:1a:b3:02:59:0b:
                    79:5e:a8:fe:83:7b:05:f8:0b:06:19:5e:57:fb:03:
                    6b:f7:95:8c:71:2d:18:2a:ad:ae:e6:1a:b3:62:e5:
                    4c:54:65:64:ab:f9:e8:28:89:f2:e2:d5:09:49:d9:
                    f7:f4:5a:c4:54:07:a3:cf:77:a0:cf:7e:36:8e:5e:
                    d0:33:d3:d0:57:8d:e6:b8:3c:11:02:ba:48:e1:1f:
                    d0:81:cf:75:ea:29:c0:15:76:f6:b9:16:7d:48:fa:
                    60:8c:1e:5c:3b:70:52:5b:b7:46:13:d4:7b:ab:61:
                    1e:ed
                Exponent: 65537 (0x10001)
        X509v3 extensions:
            X509v3 Basic Constraints: 
                CA:FALSE
            X509v3 Key Usage: 
                Digital Signature, Non Repudiation, Key Encipherment
            X509v3 Subject Alternative Name: 
                DNS:user.metadatacenter.orgx
    Signature Algorithm: sha256WithRSAEncryption
         3e:94:10:36:04:7a:9c:a8:d4:0e:24:6c:c4:f4:4b:a2:5d:f7:
         14:95:b8:a5:66:fd:46:f3:5e:d0:84:92:66:93:8c:81:a5:3b:
         97:27:11:a1:0b:f3:24:ea:3f:9d:cd:09:4d:01:b9:8c:5f:2f:
         bf:62:8f:82:e0:e4:fe:49:03:ca:ed:b3:78:b7:ab:d9:2f:33:
         63:81:57:9d:a2:ae:73:da:4d:79:56:d2:2c:2b:9a:a1:d1:7a:
         22:f7:77:48:86:79:e9:16:9b:c9:75:05:95:c0:25:bc:e0:31:
         c6:a8:4c:dc:dd:39:b2:c1:fa:09:36:3e:de:08:74:1e:e5:aa:
         73:c8:19:1b:e8:00:37:74:b1:9e:53:d6:f9:2c:56:58:7e:93:
         7d:28:6e:db:b7:6b:1e:8c:16:dc:64:97:f6:46:44:bb:f4:ea:
         65:e6:b7:ca:9a:47:24:95:b2:d9:a2:67:42:fa:c0:cc:6f:1f:
         d7:75:bf:c6:bb:19:dd:9b:76:95:a6:4d:87:b2:b2:b8:14:c7:
         de:b5:e8:77:92:8d:87:92:e3:94:43:c6:02:a5:6d:56:f4:e0:
         e6:02:27:f9:f0:48:17:81:bc:ae:e9:98:a5:1b:b7:6a:42:f7:
         7a:f7:e6:74:63:b0:22:ad:64:d3:c3:6d:56:d7:fa:3a:e5:0d:
         17:38:89:fe:b2:ee:19:e6:cc:76:29:97:68:3b:2c:e6:f2:0c:
         f5:d8:6d:d5:79:c0:4a:0e:a0:91:a6:9f:22:41:ba:fc:d8:5c:
         05:23:2b:8e:7e:65:2b:73:4e:7b:72:e5:18:4e:8d:5c:69:2e:
         a9:e5:cf:d4:0f:91:57:89:60:19:1c:e9:25:04:28:ff:82:4f:
         70:45:0e:66:1c:e1:3a:f7:ee:7e:50:fc:8b:40:b2:6f:07:2e:
         c3:f3:ff:79:3c:79:07:59:ad:72:fc:fd:51:7c:2b:99:ac:b0:
         0d:cd:b8:cf:1c:a7:10:d8:82:fe:e6:b5:ef:be:ac:27:a7:8b:
         61:85:bb:bd:4b:f0:bd:e1:f6:d8:95:71:80:63:75:1a:5f:ab:
         35:8c:2c:7d:af:ba:dd:29:2d:4d:db:5f:1e:13:8a:c3:f2:a4:
         c4:ff:bf:a9:1e:cd:ea:ab:5e:06:73:ac:87:bd:57:d2:38:55:
         4e:aa:75:90:a0:58:1b:c6:cd:44:9f:49:69:ef:d6:cd:3d:61:
         ee:14:53:9d:e1:e4:78:0b:06:b7:dc:08:40:ba:7c:f0:d4:7f:
         fe:77:c5:66:38:8d:95:33:0f:dd:56:8f:02:5f:9b:6e:0f:92:
         1c:55:af:3f:d4:00:36:49:93:ac:22:55:00:7f:8e:ea:64:80:
         5e:7c:be:e2:ef:00:2b:39
-----BEGIN CERTIFICATE-----
MIIE1DCCArygAwIBAgIBETANBgkqhkiG9w0BAQsFADCBkzELMAkGA1UEBhMCVVMx
CzAJBgNVBAgMAkNBMREwDwYDVQQHDAhTdGFuZm9yZDENMAsGA1UECgwEQk1JUjEO
MAwGA1UECwwFQ0VEQVIxHDAaBgNVBAMME21ldGFkYXRhY2VudGVyLm9yZ3gxJzAl
BgkqhkiG9w0BCQEWGG1ldGFkYXRhY2VudGVyQGdtYWlsLmNvbTAeFw0yMzAxMTgx
OTMxNThaFw0yNTA0MjExOTMxNThaMIGFMQswCQYDVQQGEwJVUzELMAkGA1UECAwC
Q0ExDTALBgNVBAoMBEJNSVIxDjAMBgNVBAsMBUNFREFSMSEwHwYDVQQDDBh1c2Vy
Lm1ldGFkYXRhY2VudGVyLm9yZ3gxJzAlBgkqhkiG9w0BCQEWGG1ldGFkYXRhY2Vu
dGVyQGdtYWlsLmNvbTCCASIwDQYJKoZIhvcNAQEBBQADggEPADCCAQoCggEBALp6
/3tTWnLVg1hZmNqFFvTUDhTfbqhh0tM6NGeZUpqNUz+/Y40H6z9vmXWVhVjsCCff
ND+b23GoUEpEffA6q9oGJF+lCDU/CrUaIwX6fJzbPyzrRWoItIZhyq2FfTGCisEP
t0yOYMblcRZ/dqzUX2a6Nx8N7ALqnAf2WCZqJeck9xwxK5dwx9tL8ORph8nruBqz
AlkLeV6o/oN7BfgLBhleV/sDa/eVjHEtGCqtruYas2LlTFRlZKv56CiJ8uLVCUnZ
9/RaxFQHo893oM9+No5e0DPT0FeN5rg8EQK6SOEf0IHPdeopwBV29rkWfUj6YIwe
XDtwUlu3RhPUe6thHu0CAwEAAaM/MD0wCQYDVR0TBAIwADALBgNVHQ8EBAMCBeAw
IwYDVR0RBBwwGoIYdXNlci5tZXRhZGF0YWNlbnRlci5vcmd4MA0GCSqGSIb3DQEB
CwUAA4ICAQA+lBA2BHqcqNQOJGzE9EuiXfcUlbilZv1G817QhJJmk4yBpTuXJxGh
C/Mk6j+dzQlNAbmMXy+/Yo+C4OT+SQPK7bN4t6vZLzNjgVedoq5z2k15VtIsK5qh
0Xoi93dIhnnpFpvJdQWVwCW84DHGqEzc3TmywfoJNj7eCHQe5apzyBkb6AA3dLGe
U9b5LFZYfpN9KG7bt2sejBbcZJf2RkS79Opl5rfKmkcklbLZomdC+sDMbx/Xdb/G
uxndm3aVpk2HsrK4FMfeteh3ko2HkuOUQ8YCpW1W9ODmAif58EgXgbyu6ZilG7dq
Qvd69+Z0Y7AirWTTw21W1/o65Q0XOIn+su4Z5sx2KZdoOyzm8gz12G3VecBKDqCR
pp8iQbr82FwFIyuOfmUrc057cuUYTo1caS6p5c/UD5FXiWAZHOklBCj/gk9wRQ5m
HOE69+5+UPyLQLJvBy7D8/95PHkHWa1y/P1RfCuZrLANzbjPHKcQ2IL+5rXvvqwn
p4thhbu9S/C94fbYlXGAY3UaX6s1jCx9r7rdKS1N218eE4rD8qTE/7+pHs3qq14G
c6yHvVfSOFVOqnWQoFgbxs1En0lp79bNPWHuFFOd4eR4Cwa33AhAunzw1H/+d8Vm
OI2VMw/dVo8CX5tuD5IcVa8/1AA2SZOsIlUAf47qZIBefL7i7wArOQ==
-----END CERTIFICATE-----
