Certificate:
    Data:
        Version: 3 (0x2)
        Serial Number: 4 (0x4)
        Signature Algorithm: sha256WithRSAEncryption
        Issuer: C=US, ST=CA, L=Stanford, O=BMIR, OU=CEDAR, CN=metadatacenter.orgx/emailAddress=metadatacenter@gmail.com
        Validity
            Not Before: Jan 18 17:59:45 2023 GMT
            Not After : Apr 21 17:59:45 2025 GMT
        Subject: C=US, ST=CA, O=BMIR, OU=CEDAR, CN=component.metadatacenter.orgx/emailAddress=metadatacenter@gmail.com
        Subject Public Key Info:
            Public Key Algorithm: rsaEncryption
                RSA Public-Key: (2048 bit)
                Modulus:
                    00:97:dc:af:68:bd:42:44:2f:b6:90:5c:d4:a5:31:
                    8a:40:2c:0b:51:ba:23:a8:d5:c4:1b:23:23:ef:52:
                    70:cb:d9:35:72:d3:5a:33:f8:30:aa:34:11:33:60:
                    f6:1b:49:a4:90:53:d9:29:31:d0:57:8b:27:a5:0d:
                    3f:b4:51:2c:10:8b:0b:d5:22:9a:67:43:7b:0d:fa:
                    f3:1d:68:27:ce:b4:49:99:ee:36:84:c9:a9:e8:c6:
                    e6:dd:39:47:51:36:eb:33:3f:69:30:d4:03:de:c2:
                    81:a2:ec:b2:f4:51:57:ea:5c:eb:69:d4:98:97:56:
                    1f:e2:e1:8d:1a:f7:59:9f:3b:d2:e2:db:35:41:63:
                    4c:1d:47:f0:9f:d8:62:03:aa:87:9d:97:d3:22:8c:
                    31:71:00:02:75:67:55:4f:89:ed:28:2f:b0:c8:1a:
                    25:d4:9b:47:05:fc:dd:37:10:c9:fa:26:f0:9e:d3:
                    44:7a:77:e4:66:cd:92:f7:a7:ef:51:1c:b0:66:f9:
                    f3:96:bd:1e:ee:9f:6d:b7:0d:7b:50:b0:30:04:59:
                    15:40:e8:91:d6:ef:da:ce:54:84:30:bc:50:79:3f:
                    6b:35:17:a0:93:2e:4a:b5:a7:18:ff:59:a0:46:f9:
                    b0:ba:52:22:ee:55:83:83:e3:28:69:ea:65:e1:d0:
                    12:55
                Exponent: 65537 (0x10001)
        X509v3 extensions:
            X509v3 Basic Constraints: 
                CA:FALSE
            X509v3 Key Usage: 
                Digital Signature, Non Repudiation, Key Encipherment
            X509v3 Subject Alternative Name: 
                DNS:component.metadatacenter.orgx
    Signature Algorithm: sha256WithRSAEncryption
         1b:6b:ea:ce:6f:a0:6a:db:fb:a9:b8:b8:c6:19:5d:ad:8b:22:
         4b:63:1b:fb:e0:ed:54:d0:fe:71:25:3b:ca:56:0b:b2:c9:01:
         da:7b:50:5b:72:2c:e7:2e:9e:c2:f8:bd:0d:57:f9:98:bd:2e:
         6d:a2:6b:69:32:b0:3a:3c:34:6a:ff:04:88:74:ec:06:9e:db:
         0c:7d:cb:05:4b:e1:6b:55:e2:07:14:3f:7b:89:8a:3c:11:6b:
         c1:55:90:d2:e3:ff:a0:4e:8f:ed:33:f2:65:4b:57:94:88:05:
         6e:4c:28:d9:e5:7f:48:f5:ac:f5:59:52:16:71:36:c2:e2:37:
         17:fd:de:0d:26:a7:16:b2:c6:51:ad:f7:e6:8e:f5:fe:ad:23:
         b1:82:1e:8f:95:40:b5:79:67:82:9e:e8:18:2f:c9:b9:75:e2:
         88:5d:96:64:fc:87:28:e1:b5:61:f1:94:b3:8e:78:85:be:c8:
         87:59:7c:aa:f8:14:5e:76:e6:4c:ec:af:d1:f4:6f:c6:11:cf:
         40:0e:c7:2a:5c:f9:ad:52:87:de:c2:1b:90:47:3a:f1:2e:84:
         4e:04:bc:98:b8:32:2e:3b:41:64:d9:89:f1:cd:da:9d:85:2a:
         bf:91:20:3a:e4:d1:8e:34:07:63:de:41:5a:b2:f7:47:d0:19:
         c7:d7:5b:e4:38:f2:fc:04:b3:69:5e:47:f7:6e:f4:be:06:c2:
         86:c2:d1:d4:5a:5d:32:a7:7c:1a:8a:d3:8c:ee:6c:26:1c:f1:
         06:30:29:58:b7:9f:00:98:9c:2b:70:cb:fa:c0:94:8c:e3:3c:
         11:af:ae:28:8d:b1:9e:36:0b:d6:63:af:86:9b:95:8c:af:70:
         7f:09:9d:9c:3c:55:d3:d9:39:7b:12:77:b3:4d:07:e0:3f:c3:
         45:3a:3f:1f:6d:93:bb:e5:8c:33:7f:33:39:a4:cb:cb:9c:ae:
         51:95:fc:57:cf:dd:9f:64:39:fe:c7:6a:03:90:80:ec:db:13:
         8a:b0:2c:d3:bb:09:bd:04:8d:6a:02:f9:7c:81:eb:28:c4:e4:
         a0:d6:2a:5b:d7:fd:c8:73:7b:9e:6c:df:fc:97:b4:2f:fc:d2:
         33:04:92:67:3e:35:71:98:57:23:43:8b:2e:ab:41:ad:bc:4a:
         bf:62:db:3d:db:ac:6a:4e:8e:2f:7a:56:53:07:c7:f6:87:02:
         4f:ad:68:c3:e5:26:e6:cb:1e:75:fd:e0:00:9d:e6:ca:51:94:
         c5:82:35:14:54:5b:e9:24:ac:1d:d0:38:c0:77:10:80:90:eb:
         00:63:0b:5a:fd:97:bd:60:b5:2c:b0:fc:eb:03:2b:83:0a:10:
         eb:fc:1a:50:42:19:77:a0
-----BEGIN CERTIFICATE-----
MIIE3jCCAsagAwIBAgIBBDANBgkqhkiG9w0BAQsFADCBkzELMAkGA1UEBhMCVVMx
CzAJBgNVBAgMAkNBMREwDwYDVQQHDAhTdGFuZm9yZDENMAsGA1UECgwEQk1JUjEO
MAwGA1UECwwFQ0VEQVIxHDAaBgNVBAMME21ldGFkYXRhY2VudGVyLm9yZ3gxJzAl
BgkqhkiG9w0BCQEWGG1ldGFkYXRhY2VudGVyQGdtYWlsLmNvbTAeFw0yMzAxMTgx
NzU5NDVaFw0yNTA0MjExNzU5NDVaMIGKMQswCQYDVQQGEwJVUzELMAkGA1UECAwC
Q0ExDTALBgNVBAoMBEJNSVIxDjAMBgNVBAsMBUNFREFSMSYwJAYDVQQDDB1jb21w
b25lbnQubWV0YWRhdGFjZW50ZXIub3JneDEnMCUGCSqGSIb3DQEJARYYbWV0YWRh
dGFjZW50ZXJAZ21haWwuY29tMIIBIjANBgkqhkiG9w0BAQEFAAOCAQ8AMIIBCgKC
AQEAl9yvaL1CRC+2kFzUpTGKQCwLUbojqNXEGyMj71Jwy9k1ctNaM/gwqjQRM2D2
G0mkkFPZKTHQV4snpQ0/tFEsEIsL1SKaZ0N7DfrzHWgnzrRJme42hMmp6Mbm3TlH
UTbrMz9pMNQD3sKBouyy9FFX6lzradSYl1Yf4uGNGvdZnzvS4ts1QWNMHUfwn9hi
A6qHnZfTIowxcQACdWdVT4ntKC+wyBol1JtHBfzdNxDJ+ibwntNEenfkZs2S96fv
URywZvnzlr0e7p9ttw17ULAwBFkVQOiR1u/azlSEMLxQeT9rNRegky5KtacY/1mg
RvmwulIi7lWDg+Moaepl4dASVQIDAQABo0QwQjAJBgNVHRMEAjAAMAsGA1UdDwQE
AwIF4DAoBgNVHREEITAfgh1jb21wb25lbnQubWV0YWRhdGFjZW50ZXIub3JneDAN
BgkqhkiG9w0BAQsFAAOCAgEAG2vqzm+gatv7qbi4xhldrYsiS2Mb++DtVND+cSU7
ylYLsskB2ntQW3Is5y6ewvi9DVf5mL0ubaJraTKwOjw0av8EiHTsBp7bDH3LBUvh
a1XiBxQ/e4mKPBFrwVWQ0uP/oE6P7TPyZUtXlIgFbkwo2eV/SPWs9VlSFnE2wuI3
F/3eDSanFrLGUa335o71/q0jsYIej5VAtXlngp7oGC/JuXXiiF2WZPyHKOG1YfGU
s454hb7Ih1l8qvgUXnbmTOyv0fRvxhHPQA7HKlz5rVKH3sIbkEc68S6ETgS8mLgy
LjtBZNmJ8c3anYUqv5EgOuTRjjQHY95BWrL3R9AZx9db5Djy/ASzaV5H9270vgbC
hsLR1FpdMqd8GorTjO5sJhzxBjApWLefAJicK3DL+sCUjOM8Ea+uKI2xnjYL1mOv
hpuVjK9wfwmdnDxV09k5exJ3s00H4D/DRTo/H22Tu+WMM38zOaTLy5yuUZX8V8/d
n2Q5/sdqA5CA7NsTirAs07sJvQSNagL5fIHrKMTkoNYqW9f9yHN7nmzf/Je0L/zS
MwSSZz41cZhXI0OLLqtBrbxKv2LbPdusak6OL3pWUwfH9ocCT61ow+Um5ssedf3g
AJ3mylGUxYI1FFRb6SSsHdA4wHcQgJDrAGMLWv2XvWC1LLD86wMrgwoQ6/waUEIZ
d6A=
-----END CERTIFICATE-----
