Certificate:
    Data:
        Version: 3 (0x2)
        Serial Number: 25 (0x19)
        Signature Algorithm: sha256WithRSAEncryption
        Issuer: C=US, ST=CA, L=Stanford, O=BMIR, OU=CEDAR, CN=metadatacenter.orgx/emailAddress=metadatacenter@gmail.com
        Validity
            Not Before: Jan 18 00:50:46 2024 GMT
            Not After : Apr 21 00:50:46 2026 GMT
        Subject: C=US, ST=CA, O=BMIR, OU=CEDAR, CN=demo-dist.cee.metadatacenter.orgx/emailAddress=metadatacenter@gmail.com
        Subject Public Key Info:
            Public Key Algorithm: rsaEncryption
                RSA Public-Key: (2048 bit)
                Modulus:
                    00:bd:b1:db:ef:95:e0:70:3a:a4:d4:98:ef:eb:c6:
                    98:f1:19:5a:2d:d9:52:98:ca:cb:30:f7:e3:98:f1:
                    50:9d:1f:3f:3d:30:3d:15:38:61:8c:90:0f:fd:1c:
                    ff:fa:29:f9:fc:71:2a:7a:c9:42:c0:4b:4e:9a:35:
                    9e:b0:77:97:d7:71:82:a4:af:f7:a0:d9:a6:fa:d3:
                    04:0a:57:c5:ae:82:32:ce:dc:ef:5d:a9:f7:2c:f0:
                    a2:7b:ee:0f:6c:e7:e6:29:39:cf:ac:9e:cd:9d:fb:
                    6c:b9:fd:1e:15:b3:3e:c5:1a:fc:96:5f:9d:35:82:
                    25:5b:81:9c:3d:e1:ff:eb:5c:a6:77:c2:8f:fd:18:
                    9e:6c:cd:74:cf:15:b3:16:c7:a2:8b:76:6e:05:74:
                    ca:85:d1:68:25:71:8d:49:06:37:13:2a:7f:28:15:
                    77:ee:8a:bf:ea:a3:ef:10:43:9d:1b:4b:0c:80:ea:
                    c3:4a:8a:c4:50:46:75:47:e7:76:29:f3:e3:9a:54:
                    e2:66:6a:a2:3d:b7:2d:33:39:c8:c9:e2:3c:fd:0c:
                    2e:3f:25:05:72:ba:82:c1:42:56:d0:11:57:bc:1c:
                    70:19:7d:a1:4d:f0:f4:9f:2e:96:45:d1:9a:96:02:
                    8b:80:57:d8:b5:a2:fd:b8:32:76:0a:65:47:e3:5f:
                    f7:a3
                Exponent: 65537 (0x10001)
        X509v3 extensions:
            X509v3 Basic Constraints: 
                CA:FALSE
            X509v3 Key Usage: 
                Digital Signature, Non Repudiation, Key Encipherment
            X509v3 Subject Alternative Name: 
                DNS:demo-dist.cee.metadatacenter.orgx
    Signature Algorithm: sha256WithRSAEncryption
         83:36:ea:a7:54:22:53:eb:5c:08:9b:1c:e6:15:44:ff:f0:11:
         19:8e:89:9c:48:c9:1c:6c:7b:73:5b:ce:29:94:02:d9:ff:35:
         04:60:a5:d8:da:96:69:4b:1f:7f:74:2f:59:d6:49:a4:86:cc:
         fe:2e:01:cb:2c:40:0d:39:42:ed:a8:cd:ae:ba:38:62:92:0c:
         f9:dd:9a:1c:c1:ef:c0:11:f4:db:5d:dd:39:81:23:20:e0:ae:
         ae:f3:db:69:10:d6:f1:b6:1d:bc:bc:a6:d6:cd:8a:6b:c3:5b:
         3a:1a:7a:53:07:74:23:4e:b4:41:95:11:ba:92:dd:d6:f7:85:
         46:fd:5e:50:3f:47:b4:18:83:86:9d:f7:1e:1d:4e:34:c1:68:
         f6:9d:3a:b0:05:21:32:a6:e8:c8:72:5c:75:05:4d:a4:1d:49:
         3c:1e:de:b5:16:20:bd:4f:14:91:ec:3a:37:5e:47:d4:a5:a5:
         5e:7e:e1:98:3b:e0:28:f0:a3:f9:a0:84:0d:af:af:6b:f6:8a:
         f4:83:f4:92:02:86:42:b7:90:be:10:20:7d:bc:c9:69:fd:76:
         d7:d1:4d:8f:de:38:fc:fd:35:83:91:be:9a:d7:8a:31:c7:eb:
         d6:c4:6f:2f:a5:a5:7f:59:41:e6:a5:fa:d7:d6:49:5c:bb:ed:
         e6:f5:cc:d7:77:89:b4:38:d0:7d:1e:42:07:e4:67:07:67:82:
         8f:65:6c:51:2e:84:8f:66:fd:61:2a:e9:3d:2e:2a:ac:13:ee:
         97:4e:e7:d4:cf:ed:18:40:3a:77:bc:d1:60:09:e6:c6:14:0d:
         91:8f:3b:82:cb:45:b3:21:67:df:3f:e4:29:d1:9f:df:1b:6e:
         2f:f9:b0:23:41:e1:c6:6e:6d:0b:5d:8b:4f:b1:1f:72:32:ca:
         dd:72:e2:97:e5:7d:47:51:b7:33:df:e4:32:b7:9d:0a:b1:22:
         8f:2c:03:0b:10:bb:2a:20:ea:59:5a:79:26:d6:15:21:c9:22:
         96:6a:42:d3:f6:7b:ac:31:82:d6:8e:e4:05:19:c7:dc:6c:ce:
         3b:15:a5:cb:ef:11:3d:10:34:12:0e:5b:75:f5:28:db:7e:f0:
         61:d5:c5:72:7b:54:87:6a:ca:c8:cd:58:7c:c5:e0:8a:72:22:
         02:8f:cb:55:a1:40:99:84:7d:6c:e3:e9:80:8a:85:8b:06:d3:
         50:29:8b:ad:d7:7e:9a:7d:71:bf:5b:aa:51:f3:00:b4:e8:7d:
         4e:57:e7:ff:40:29:cc:80:ec:3b:20:43:86:58:36:d3:97:c6:
         56:d1:2e:d5:58:7c:fd:ac:43:cf:cc:2c:85:a8:45:10:d3:d4:
         0f:da:22:a6:84:ad:d4:9c
-----BEGIN CERTIFICATE-----
MIIE5jCCAs6gAwIBAgIBGTANBgkqhkiG9w0BAQsFADCBkzELMAkGA1UEBhMCVVMx
CzAJBgNVBAgMAkNBMREwDwYDVQQHDAhTdGFuZm9yZDENMAsGA1UECgwEQk1JUjEO
MAwGA1UECwwFQ0VEQVIxHDAaBgNVBAMME21ldGFkYXRhY2VudGVyLm9yZ3gxJzAl
BgkqhkiG9w0BCQEWGG1ldGFkYXRhY2VudGVyQGdtYWlsLmNvbTAeFw0yNDAxMTgw
MDUwNDZaFw0yNjA0MjEwMDUwNDZaMIGOMQswCQYDVQQGEwJVUzELMAkGA1UECAwC
Q0ExDTALBgNVBAoMBEJNSVIxDjAMBgNVBAsMBUNFREFSMSowKAYDVQQDDCFkZW1v
LWRpc3QuY2VlLm1ldGFkYXRhY2VudGVyLm9yZ3gxJzAlBgkqhkiG9w0BCQEWGG1l
dGFkYXRhY2VudGVyQGdtYWlsLmNvbTCCASIwDQYJKoZIhvcNAQEBBQADggEPADCC
AQoCggEBAL2x2++V4HA6pNSY7+vGmPEZWi3ZUpjKyzD345jxUJ0fPz0wPRU4YYyQ
D/0c//op+fxxKnrJQsBLTpo1nrB3l9dxgqSv96DZpvrTBApXxa6CMs7c712p9yzw
onvuD2zn5ik5z6yezZ37bLn9HhWzPsUa/JZfnTWCJVuBnD3h/+tcpnfCj/0YnmzN
dM8VsxbHoot2bgV0yoXRaCVxjUkGNxMqfygVd+6Kv+qj7xBDnRtLDIDqw0qKxFBG
dUfndinz45pU4mZqoj23LTM5yMniPP0MLj8lBXK6gsFCVtARV7wccBl9oU3w9J8u
lkXRmpYCi4BX2LWi/bgydgplR+Nf96MCAwEAAaNIMEYwCQYDVR0TBAIwADALBgNV
HQ8EBAMCBeAwLAYDVR0RBCUwI4IhZGVtby1kaXN0LmNlZS5tZXRhZGF0YWNlbnRl
ci5vcmd4MA0GCSqGSIb3DQEBCwUAA4ICAQCDNuqnVCJT61wImxzmFUT/8BEZjomc
SMkcbHtzW84plALZ/zUEYKXY2pZpSx9/dC9Z1kmkhsz+LgHLLEANOULtqM2uujhi
kgz53Zocwe/AEfTbXd05gSMg4K6u89tpENbxth28vKbWzYprw1s6GnpTB3QjTrRB
lRG6kt3W94VG/V5QP0e0GIOGnfceHU40wWj2nTqwBSEypujIclx1BU2kHUk8Ht61
FiC9TxSR7Do3XkfUpaVefuGYO+Ao8KP5oIQNr69r9or0g/SSAoZCt5C+ECB9vMlp
/XbX0U2P3jj8/TWDkb6a14oxx+vWxG8vpaV/WUHmpfrX1klcu+3m9czXd4m0ONB9
HkIH5GcHZ4KPZWxRLoSPZv1hKuk9LiqsE+6XTufUz+0YQDp3vNFgCebGFA2RjzuC
y0WzIWffP+Qp0Z/fG24v+bAjQeHGbm0LXYtPsR9yMsrdcuKX5X1HUbcz3+Qyt50K
sSKPLAMLELsqIOpZWnkm1hUhySKWakLT9nusMYLWjuQFGcfcbM47FaXL7xE9EDQS
Dlt19SjbfvBh1cVye1SHasrIzVh8xeCKciICj8tVoUCZhH1s4+mAioWLBtNQKYut
136afXG/W6pR8wC06H1OV+f/QCnMgOw7IEOGWDbTl8ZW0S7VWHz9rEPPzCyFqEUQ
09QP2iKmhK3UnA==
-----END CERTIFICATE-----
