Certificate:
    Data:
        Version: 3 (0x2)
        Serial Number: 25 (0x19)
        Signature Algorithm: sha256WithRSAEncryption
        Issuer: C=US, ST=CA, L=Stanford, O=BMIR, OU=CEDAR, CN=metadatacenter.orgx/emailAddress=metadatacenter@gmail.com
        Validity
            Not Before: Mar 10 01:29:05 2023 GMT
            Not After : Jun 11 01:29:05 2025 GMT
        Subject: C=US, ST=CA, O=BMIR, OU=CEDAR, CN=demo-dist.cee.metadatacenter.orgx/emailAddress=metadatacenter@gmail.com
        Subject Public Key Info:
            Public Key Algorithm: rsaEncryption
                RSA Public-Key: (2048 bit)
                Modulus:
                    00:b0:54:43:c0:2a:8d:8e:15:22:a9:11:74:f4:46:
                    2d:aa:bb:61:9b:06:8b:82:85:dd:49:9d:60:72:59:
                    7f:74:14:88:08:5b:93:55:be:27:3c:57:05:ea:b7:
                    54:99:27:8c:1d:62:22:d2:42:a7:49:c3:74:40:44:
                    2b:5b:b7:84:98:2d:24:fb:ed:0b:ea:51:29:02:5b:
                    02:4a:81:91:2d:c2:30:62:57:3a:9e:ca:a5:e2:b6:
                    85:ea:b3:da:38:36:6a:12:a3:94:f9:fa:4e:31:e1:
                    8d:31:07:d2:cd:95:d2:5f:35:17:3b:6e:fc:70:94:
                    70:72:7a:d5:b9:fe:dc:74:d7:6b:e5:11:c9:b0:6e:
                    21:4d:f9:85:1c:43:af:de:98:32:6e:f9:52:a2:7f:
                    f0:34:a3:46:07:6b:5e:e5:ef:62:78:e0:47:bd:a6:
                    fc:01:3c:3b:36:4b:b1:aa:00:cc:53:32:8a:d8:ae:
                    0e:82:38:37:2b:de:9c:f7:0c:79:33:97:59:e0:d9:
                    c1:d5:1b:36:33:21:63:6d:5a:9a:73:26:5b:16:e4:
                    09:09:4e:97:84:da:95:9d:5f:35:f8:f7:ad:ed:40:
                    87:ee:63:00:30:38:9d:1d:d1:b1:82:2f:86:ab:22:
                    09:90:63:c2:5c:e1:2b:9b:34:19:29:6a:9f:4e:5a:
                    0c:bd
                Exponent: 65537 (0x10001)
        X509v3 extensions:
            X509v3 Basic Constraints: 
                CA:FALSE
            X509v3 Key Usage: 
                Digital Signature, Non Repudiation, Key Encipherment
            X509v3 Subject Alternative Name: 
                DNS:demo-dist.cee.metadatacenter.orgx
    Signature Algorithm: sha256WithRSAEncryption
         b0:fe:ec:3e:7b:2b:23:f5:22:b3:e0:9d:6a:67:f5:97:22:4d:
         ec:21:78:47:bb:86:0b:51:6c:5b:50:62:18:91:19:87:03:07:
         0c:f9:5e:ba:d9:c3:7e:02:eb:d4:8c:28:eb:2a:63:14:3d:8a:
         1a:f4:d8:7f:8d:34:5b:de:a0:b5:ef:41:e6:36:8e:64:24:d3:
         3a:2b:59:33:c2:65:f7:ce:71:c4:7e:34:a3:3d:92:85:b9:04:
         9b:ae:39:9d:72:c3:7f:c2:df:d7:0e:21:b1:e1:f9:5a:1b:36:
         74:bd:7d:0d:87:f0:95:ce:a6:b6:0d:aa:dc:7d:d8:a4:5a:0e:
         2e:d8:1e:3a:74:dc:30:e1:2c:71:68:ad:d5:7a:74:97:99:57:
         23:2f:8a:1a:15:e6:0c:b2:03:32:1e:9c:d9:ce:14:4f:3c:5b:
         0a:7f:00:a1:f8:5f:5a:b5:6e:4f:48:e4:e0:1c:92:5d:65:82:
         89:e7:11:03:49:82:f3:4c:b0:63:9f:98:52:be:65:bc:5b:0c:
         14:41:4e:08:86:07:a8:11:1c:c1:24:70:05:5a:0f:96:30:8d:
         87:ad:76:dd:cc:4c:10:0a:8c:4d:04:b9:9c:7c:cc:d8:3f:5c:
         09:11:40:32:81:e9:ee:1f:54:d8:6c:05:c0:b2:41:22:ea:68:
         51:0e:72:89:2d:05:df:63:5a:25:00:ea:cd:2c:5d:2e:f0:ef:
         ae:c3:57:3a:2c:1b:a6:5a:81:38:63:ea:2a:25:63:6a:d1:0e:
         5d:02:83:1c:dd:78:dc:44:ca:80:ee:dc:79:b4:3a:d3:67:bc:
         23:e9:09:7c:8b:d0:c9:55:65:33:a3:90:0e:00:f0:2e:87:27:
         85:4f:d1:45:a2:ce:49:2e:4b:7f:d6:4b:fd:c8:4c:01:49:35:
         c7:59:22:69:5a:1f:2d:c8:92:1c:41:7e:d3:73:65:be:6e:71:
         03:26:f6:9e:e1:e9:ae:33:b7:23:2d:2c:27:d6:8e:32:3a:d7:
         d5:ef:be:c7:11:9a:8f:02:28:03:8f:e5:ca:81:77:68:12:82:
         a4:91:a9:dc:65:86:9a:86:31:1b:79:78:54:26:d1:7e:9a:0b:
         fd:12:90:66:d4:3c:f3:cf:99:1c:d7:32:3f:e3:b5:7b:55:9e:
         2c:31:e8:fb:1b:ec:8c:28:df:a9:fa:2a:41:f9:ec:80:41:ab:
         26:ed:d2:6c:1d:08:b8:57:09:d8:03:41:f8:c8:a9:4c:38:ed:
         59:6e:a0:9f:d1:0c:6d:5a:b4:26:8b:d3:43:45:74:d4:18:31:
         ee:eb:f3:ed:f0:a1:75:c4:99:6c:d1:92:27:82:3a:03:38:ac:
         20:8d:53:86:7d:3d:96:66
-----BEGIN CERTIFICATE-----
MIIE5jCCAs6gAwIBAgIBGTANBgkqhkiG9w0BAQsFADCBkzELMAkGA1UEBhMCVVMx
CzAJBgNVBAgMAkNBMREwDwYDVQQHDAhTdGFuZm9yZDENMAsGA1UECgwEQk1JUjEO
MAwGA1UECwwFQ0VEQVIxHDAaBgNVBAMME21ldGFkYXRhY2VudGVyLm9yZ3gxJzAl
BgkqhkiG9w0BCQEWGG1ldGFkYXRhY2VudGVyQGdtYWlsLmNvbTAeFw0yMzAzMTAw
MTI5MDVaFw0yNTA2MTEwMTI5MDVaMIGOMQswCQYDVQQGEwJVUzELMAkGA1UECAwC
Q0ExDTALBgNVBAoMBEJNSVIxDjAMBgNVBAsMBUNFREFSMSowKAYDVQQDDCFkZW1v
LWRpc3QuY2VlLm1ldGFkYXRhY2VudGVyLm9yZ3gxJzAlBgkqhkiG9w0BCQEWGG1l
dGFkYXRhY2VudGVyQGdtYWlsLmNvbTCCASIwDQYJKoZIhvcNAQEBBQADggEPADCC
AQoCggEBALBUQ8AqjY4VIqkRdPRGLaq7YZsGi4KF3UmdYHJZf3QUiAhbk1W+JzxX
Beq3VJknjB1iItJCp0nDdEBEK1u3hJgtJPvtC+pRKQJbAkqBkS3CMGJXOp7KpeK2
heqz2jg2ahKjlPn6TjHhjTEH0s2V0l81Fztu/HCUcHJ61bn+3HTXa+URybBuIU35
hRxDr96YMm75UqJ/8DSjRgdrXuXvYnjgR72m/AE8OzZLsaoAzFMyitiuDoI4Nyve
nPcMeTOXWeDZwdUbNjMhY21amnMmWxbkCQlOl4TalZ1fNfj3re1Ah+5jADA4nR3R
sYIvhqsiCZBjwlzhK5s0GSlqn05aDL0CAwEAAaNIMEYwCQYDVR0TBAIwADALBgNV
HQ8EBAMCBeAwLAYDVR0RBCUwI4IhZGVtby1kaXN0LmNlZS5tZXRhZGF0YWNlbnRl
ci5vcmd4MA0GCSqGSIb3DQEBCwUAA4ICAQCw/uw+eysj9SKz4J1qZ/WXIk3sIXhH
u4YLUWxbUGIYkRmHAwcM+V662cN+AuvUjCjrKmMUPYoa9Nh/jTRb3qC170HmNo5k
JNM6K1kzwmX3znHEfjSjPZKFuQSbrjmdcsN/wt/XDiGx4flaGzZ0vX0Nh/CVzqa2
DarcfdikWg4u2B46dNww4SxxaK3VenSXmVcjL4oaFeYMsgMyHpzZzhRPPFsKfwCh
+F9atW5PSOTgHJJdZYKJ5xEDSYLzTLBjn5hSvmW8WwwUQU4IhgeoERzBJHAFWg+W
MI2HrXbdzEwQCoxNBLmcfMzYP1wJEUAygenuH1TYbAXAskEi6mhRDnKJLQXfY1ol
AOrNLF0u8O+uw1c6LBumWoE4Y+oqJWNq0Q5dAoMc3XjcRMqA7tx5tDrTZ7wj6Ql8
i9DJVWUzo5AOAPAuhyeFT9FFos5JLkt/1kv9yEwBSTXHWSJpWh8tyJIcQX7Tc2W+
bnEDJvae4emuM7cjLSwn1o4yOtfV777HEZqPAigDj+XKgXdoEoKkkancZYaahjEb
eXhUJtF+mgv9EpBm1Dzzz5kc1zI/47V7VZ4sMej7G+yMKN+p+ipB+eyAQasm7dJs
HQi4VwnYA0H4yKlMOO1ZbqCf0QxtWrQmi9NDRXTUGDHu6/Pt8KF1xJls0ZIngjoD
OKwgjVOGfT2WZg==
-----END CERTIFICATE-----
