Certificate:
    Data:
        Version: 3 (0x2)
        Serial Number: 28 (0x1c)
        Signature Algorithm: sha256WithRSAEncryption
        Issuer: C=US, ST=CA, L=Stanford, O=BMIR, OU=CEDAR, CN=metadatacenter.orgx/emailAddress=metadatacenter@gmail.com
        Validity
            Not Before: Dec 11 21:59:24 2020 GMT
            Not After : Mar 15 21:59:24 2023 GMT
        Subject: C=US, ST=CA, O=BMIR, OU=CEDAR, CN=auth.metadatacenter.orgx/emailAddress=metadatacenter@gmail.com
        Subject Public Key Info:
            Public Key Algorithm: rsaEncryption
                RSA Public-Key: (2048 bit)
                Modulus:
                    00:96:50:7b:7e:3b:2b:f9:35:38:03:16:16:e7:dc:
                    21:f0:16:a1:3f:f7:4a:88:5a:a5:d0:e8:59:f6:2a:
                    3e:0f:1e:33:d7:eb:c6:87:66:01:6a:ee:9c:35:cc:
                    c6:bc:14:c5:02:bc:f2:bc:76:46:b5:8c:f0:60:cb:
                    80:61:27:af:86:2c:db:8a:7e:d1:d9:c0:7c:d1:33:
                    3a:bf:dd:1b:42:15:c0:4a:42:77:db:d0:2f:42:db:
                    6f:c8:ec:5d:b4:52:c2:a8:bf:94:89:81:f2:b4:08:
                    01:70:04:51:e7:56:c6:50:12:e1:b5:57:19:2d:b8:
                    5e:a0:bf:83:e2:73:86:5d:f8:ee:4f:a2:9d:ff:ec:
                    10:50:6b:2d:eb:53:45:b5:d7:1e:3c:28:58:44:34:
                    1e:6c:64:67:e5:47:82:21:f5:32:be:dd:02:f0:a5:
                    25:c8:9f:ae:a7:ad:cb:c5:19:82:cd:8b:08:23:3d:
                    60:de:87:0c:6f:98:6b:c0:ad:6b:e5:0a:24:ca:32:
                    a0:57:db:54:b1:8f:10:6e:10:18:21:47:5c:ed:d9:
                    46:e1:d8:f9:3a:ad:8f:05:34:89:79:37:48:46:60:
                    01:f5:f4:eb:31:ff:e4:f6:7c:2d:0d:fa:be:98:a2:
                    c5:12:36:a6:be:ab:13:4c:33:60:ad:c5:73:ae:a8:
                    b8:a9
                Exponent: 65537 (0x10001)
        X509v3 extensions:
            X509v3 Basic Constraints: 
                CA:FALSE
            X509v3 Key Usage: 
                Digital Signature, Non Repudiation, Key Encipherment
            X509v3 Subject Alternative Name: 
                DNS:artifact.metadatacenter.orgx, DNS:auth.metadatacenter.orgx, DNS:cedar.metadatacenter.orgx, DNS:component.metadatacenter.orgx, DNS:group.metadatacenter.orgx, DNS:impex.metadatacenter.orgx, DNS:internals.metadatacenter.orgx, DNS:messaging.metadatacenter.orgx, DNS:open.metadatacenter.orgx, DNS:openview.metadatacenter.orgx, DNS:repo.metadatacenter.orgx, DNS:resource.metadatacenter.orgx, DNS:schema.metadatacenter.orgx, DNS:submission.metadatacenter.orgx, DNS:terminology.metadatacenter.orgx, DNS:user.metadatacenter.orgx, DNS:valuerecommender.metadatacenter.orgx, DNS:worker.metadatacenter.orgx, DNS:demo.cee.metadatacenter.orgx, DNS:demo-dist.cee.metadatacenter.orgx, DNS:docs.cee.metadatacenter.orgx, DNS:docs-dist.cee.metadatacenter.orgx, DNS:api-php.cee.metadatacenter.orgx
    Signature Algorithm: sha256WithRSAEncryption
         14:b9:cd:4b:28:3e:dc:3f:36:32:34:72:5e:ea:e9:46:7e:6b:
         51:35:e8:e8:62:d8:6f:8f:9e:84:59:df:c9:5c:84:bc:e4:63:
         26:11:90:88:a5:dd:8a:60:91:da:6c:76:1f:0d:f9:f1:ec:3a:
         37:a9:e7:01:d3:ce:63:dd:ad:6f:a3:2d:e8:da:9b:3b:c6:eb:
         35:2b:73:91:d5:6d:5b:d9:7c:b2:5a:cd:cd:9b:85:93:73:11:
         8a:25:70:45:d3:bd:6d:7a:7b:ac:2d:91:1e:be:ff:8b:7b:47:
         d1:37:5b:af:89:d8:b1:0c:ca:1b:c4:88:6f:8e:f8:09:55:3a:
         f4:d4:2f:98:80:df:4d:5c:fe:c1:7e:40:b2:a3:3f:b3:4e:32:
         50:f6:8b:11:96:ef:12:5f:94:b8:59:ea:f0:a1:59:07:54:41:
         c7:f2:a8:d7:a2:1d:c9:a2:ff:d1:cd:aa:5c:60:ce:82:37:bc:
         26:36:6d:5b:c4:ad:c1:23:1e:9a:a9:e5:3a:71:5f:ff:14:c9:
         a9:68:f9:2d:1a:b7:60:76:d0:b4:fe:68:b1:8a:47:09:46:27:
         25:2d:91:6a:d2:d9:01:9c:81:1c:b4:c0:bb:27:48:4a:72:ed:
         67:df:bc:18:cd:56:98:0d:3b:93:e1:0c:c5:42:4c:9a:b8:16:
         9b:d2:68:78:e1:c6:11:74:3c:ba:18:db:36:c8:e0:e9:b5:93:
         34:52:ce:7f:31:1d:ff:bc:19:46:cd:ab:b3:89:7b:bb:f8:51:
         1b:ab:6f:e1:8c:c8:78:3e:b3:06:2b:ce:77:06:7d:9f:b4:2c:
         53:1b:d8:a9:c9:3d:59:1e:d5:d7:c7:5e:4e:39:f2:4e:94:ac:
         ff:d4:bc:59:7e:71:8b:a1:aa:76:a0:94:8d:fc:e6:e5:93:15:
         f3:4e:e2:ec:71:3a:7c:c5:24:af:47:b0:44:df:af:e1:09:e7:
         c6:a3:e8:79:83:49:f0:02:1c:b6:64:a7:32:06:fe:dc:b3:ed:
         80:58:bf:d4:31:96:e2:20:70:6c:17:4f:98:b7:77:ee:92:40:
         b6:c0:0b:e6:b8:40:6a:b1:94:80:dc:98:5a:f5:13:ba:4f:fb:
         4d:be:e5:44:57:1c:2c:8f:8d:27:3d:91:89:2f:ce:fd:c8:21:
         f2:3f:db:74:f4:26:6a:f6:cd:e0:d3:05:de:4a:4f:88:e7:85:
         8a:33:ad:0f:d7:4e:db:3a:6f:60:b3:9c:e6:8f:98:5d:62:af:
         b9:7c:a6:e8:f2:8c:c3:ae:12:5d:74:c9:cf:dc:68:4e:b8:ed:
         7a:24:ea:47:b3:3f:58:77:4f:75:67:95:a9:b6:5b:ab:7e:c9:
         26:90:34:43:a3:57:3c:8a
-----BEGIN CERTIFICATE-----
MIIHdjCCBV6gAwIBAgIBHDANBgkqhkiG9w0BAQsFADCBkzELMAkGA1UEBhMCVVMx
CzAJBgNVBAgMAkNBMREwDwYDVQQHDAhTdGFuZm9yZDENMAsGA1UECgwEQk1JUjEO
MAwGA1UECwwFQ0VEQVIxHDAaBgNVBAMME21ldGFkYXRhY2VudGVyLm9yZ3gxJzAl
BgkqhkiG9w0BCQEWGG1ldGFkYXRhY2VudGVyQGdtYWlsLmNvbTAeFw0yMDEyMTEy
MTU5MjRaFw0yMzAzMTUyMTU5MjRaMIGFMQswCQYDVQQGEwJVUzELMAkGA1UECAwC
Q0ExDTALBgNVBAoMBEJNSVIxDjAMBgNVBAsMBUNFREFSMSEwHwYDVQQDDBhhdXRo
Lm1ldGFkYXRhY2VudGVyLm9yZ3gxJzAlBgkqhkiG9w0BCQEWGG1ldGFkYXRhY2Vu
dGVyQGdtYWlsLmNvbTCCASIwDQYJKoZIhvcNAQEBBQADggEPADCCAQoCggEBAJZQ
e347K/k1OAMWFufcIfAWoT/3SohapdDoWfYqPg8eM9frxodmAWrunDXMxrwUxQK8
8rx2RrWM8GDLgGEnr4Ys24p+0dnAfNEzOr/dG0IVwEpCd9vQL0Lbb8jsXbRSwqi/
lImB8rQIAXAEUedWxlAS4bVXGS24XqC/g+Jzhl347k+inf/sEFBrLetTRbXXHjwo
WEQ0HmxkZ+VHgiH1Mr7dAvClJcifrqety8UZgs2LCCM9YN6HDG+Ya8Cta+UKJMoy
oFfbVLGPEG4QGCFHXO3ZRuHY+TqtjwU0iXk3SEZgAfX06zH/5PZ8LQ36vpiixRI2
pr6rE0wzYK3Fc66ouKkCAwEAAaOCAt8wggLbMAkGA1UdEwQCMAAwCwYDVR0PBAQD
AgXgMIICvwYDVR0RBIICtjCCArKCHGFydGlmYWN0Lm1ldGFkYXRhY2VudGVyLm9y
Z3iCGGF1dGgubWV0YWRhdGFjZW50ZXIub3JneIIZY2VkYXIubWV0YWRhdGFjZW50
ZXIub3JneIIdY29tcG9uZW50Lm1ldGFkYXRhY2VudGVyLm9yZ3iCGWdyb3VwLm1l
dGFkYXRhY2VudGVyLm9yZ3iCGWltcGV4Lm1ldGFkYXRhY2VudGVyLm9yZ3iCHWlu
dGVybmFscy5tZXRhZGF0YWNlbnRlci5vcmd4gh1tZXNzYWdpbmcubWV0YWRhdGFj
ZW50ZXIub3JneIIYb3Blbi5tZXRhZGF0YWNlbnRlci5vcmd4ghxvcGVudmlldy5t
ZXRhZGF0YWNlbnRlci5vcmd4ghhyZXBvLm1ldGFkYXRhY2VudGVyLm9yZ3iCHHJl
c291cmNlLm1ldGFkYXRhY2VudGVyLm9yZ3iCGnNjaGVtYS5tZXRhZGF0YWNlbnRl
ci5vcmd4gh5zdWJtaXNzaW9uLm1ldGFkYXRhY2VudGVyLm9yZ3iCH3Rlcm1pbm9s
b2d5Lm1ldGFkYXRhY2VudGVyLm9yZ3iCGHVzZXIubWV0YWRhdGFjZW50ZXIub3Jn
eIIkdmFsdWVyZWNvbW1lbmRlci5tZXRhZGF0YWNlbnRlci5vcmd4ghp3b3JrZXIu
bWV0YWRhdGFjZW50ZXIub3JneIIcZGVtby5jZWUubWV0YWRhdGFjZW50ZXIub3Jn
eIIhZGVtby1kaXN0LmNlZS5tZXRhZGF0YWNlbnRlci5vcmd4ghxkb2NzLmNlZS5t
ZXRhZGF0YWNlbnRlci5vcmd4giFkb2NzLWRpc3QuY2VlLm1ldGFkYXRhY2VudGVy
Lm9yZ3iCH2FwaS1waHAuY2VlLm1ldGFkYXRhY2VudGVyLm9yZ3gwDQYJKoZIhvcN
AQELBQADggIBABS5zUsoPtw/NjI0cl7q6UZ+a1E16Ohi2G+PnoRZ38lchLzkYyYR
kIil3Ypgkdpsdh8N+fHsOjep5wHTzmPdrW+jLejamzvG6zUrc5HVbVvZfLJazc2b
hZNzEYolcEXTvW16e6wtkR6+/4t7R9E3W6+J2LEMyhvEiG+O+AlVOvTUL5iA301c
/sF+QLKjP7NOMlD2ixGW7xJflLhZ6vChWQdUQcfyqNeiHcmi/9HNqlxgzoI3vCY2
bVvErcEjHpqp5TpxX/8Uyalo+S0at2B20LT+aLGKRwlGJyUtkWrS2QGcgRy0wLsn
SEpy7WffvBjNVpgNO5PhDMVCTJq4FpvSaHjhxhF0PLoY2zbI4Om1kzRSzn8xHf+8
GUbNq7OJe7v4URurb+GMyHg+swYrzncGfZ+0LFMb2KnJPVke1dfHXk458k6UrP/U
vFl+cYuhqnaglI385uWTFfNO4uxxOnzFJK9HsETfr+EJ58aj6HmDSfACHLZkpzIG
/tyz7YBYv9QxluIgcGwXT5i3d+6SQLbAC+a4QGqxlIDcmFr1E7pP+02+5URXHCyP
jSc9kYkvzv3IIfI/23T0Jmr2zeDTBd5KT4jnhYozrQ/XTts6b2CznOaPmF1ir7l8
pujyjMOuEl10yc/caE647Xok6kezP1h3T3Vnlam2W6t+ySaQNEOjVzyK
-----END CERTIFICATE-----
