Certificate:
    Data:
        Version: 3 (0x2)
        Serial Number: 23 (0x17)
        Signature Algorithm: sha256WithRSAEncryption
        Issuer: C=US, ST=CA, L=Stanford, O=BMIR, OU=CEDAR, CN=metadatacenter.orgx/emailAddress=metadatacenter@gmail.com
        Validity
            Not Before: Mar 10 01:27:19 2023 GMT
            Not After : Jun 11 01:27:19 2025 GMT
        Subject: C=US, ST=CA, O=BMIR, OU=CEDAR, CN=internalsview.metadatacenter.orgx/emailAddress=metadatacenter@gmail.com
        Subject Public Key Info:
            Public Key Algorithm: rsaEncryption
                RSA Public-Key: (2048 bit)
                Modulus:
                    00:a2:4b:ba:8d:93:cc:8c:c8:e9:dd:86:57:e2:95:
                    8d:97:06:61:8f:ac:9f:8b:12:5f:b9:00:27:88:43:
                    95:99:2a:ef:62:c4:85:a6:a8:03:81:62:86:7a:62:
                    21:71:20:6b:c3:dc:fb:98:c5:9e:28:1c:32:db:37:
                    25:a5:7e:08:ef:9b:32:c1:84:97:81:c8:6c:fd:61:
                    c1:2f:b7:21:ac:68:8d:90:b1:93:3d:89:f6:05:7b:
                    44:44:50:ff:c8:aa:25:2b:e0:f3:20:37:e0:f1:2d:
                    2d:3d:1a:b9:ee:1a:3a:f6:00:69:14:21:f0:b9:9b:
                    c4:0e:83:8c:17:d5:cd:c5:72:12:ab:c8:ce:e8:27:
                    f7:9f:f4:1c:03:e5:81:75:01:db:07:b0:52:13:10:
                    b3:76:c6:ac:7a:60:ce:dc:3c:24:bd:33:82:98:74:
                    07:93:5b:39:90:a1:5f:e1:fb:e3:97:17:48:08:53:
                    6e:0f:d9:3d:9c:d8:54:3b:e4:07:d2:c5:89:71:be:
                    50:45:15:1f:66:14:37:ba:4f:86:6e:28:45:31:1b:
                    fc:c3:53:12:66:1f:24:10:8a:90:21:d6:2c:00:41:
                    2c:ae:68:fe:ac:40:4e:39:c8:ad:f5:3f:8a:8a:df:
                    67:31:bb:c6:a4:83:e5:98:4a:32:b6:6b:7b:27:a7:
                    99:09
                Exponent: 65537 (0x10001)
        X509v3 extensions:
            X509v3 Basic Constraints: 
                CA:FALSE
            X509v3 Key Usage: 
                Digital Signature, Non Repudiation, Key Encipherment
            X509v3 Subject Alternative Name: 
                DNS:internalsview.metadatacenter.orgx
    Signature Algorithm: sha256WithRSAEncryption
         23:bf:e3:4b:44:2f:2c:07:ec:6c:9c:4c:8d:81:73:e8:59:05:
         1c:3f:87:3c:f6:7d:2c:69:91:2a:04:51:75:30:4c:04:74:42:
         74:e5:dc:53:2b:24:9b:90:1a:be:e7:26:c0:e5:b4:a0:e9:9e:
         96:25:67:19:09:ce:5e:49:72:ee:cb:6c:b5:7b:64:de:9b:bc:
         f5:9b:e3:99:2b:bf:6a:fc:62:4c:cb:82:52:23:17:c0:fb:b4:
         c9:f5:cc:37:99:8b:33:d2:58:7b:c8:98:a7:34:49:85:22:4f:
         3f:ac:eb:ba:e7:a9:2a:7f:60:6f:35:ae:ba:1d:9b:e6:b9:a5:
         b0:c8:37:b4:46:7c:8c:a3:f7:c6:9f:74:39:88:fd:7b:72:2e:
         0d:e4:21:56:d6:d2:4a:89:f3:c9:76:ca:2e:52:b4:7c:02:d9:
         74:03:f8:bd:2a:40:21:dc:05:72:3b:1b:c9:23:fe:1a:98:d4:
         2b:a1:20:8e:cd:81:c2:8b:b7:35:3d:0a:72:dc:5f:1c:05:b4:
         ce:03:bb:65:61:a0:e4:df:a9:d3:dc:c8:b1:28:59:50:71:5b:
         c7:2a:53:53:3a:d0:c9:7d:91:d4:9c:91:4b:7b:83:eb:35:b9:
         0a:6b:50:87:7a:25:df:2e:d5:51:f3:c0:9c:fd:ab:50:9d:c1:
         dc:ba:2c:b8:c9:7a:66:ab:b7:0c:e2:cc:87:27:d3:6f:5b:af:
         2a:1d:1d:0a:a2:aa:44:c4:e2:8c:d6:bd:3c:f5:96:13:e3:d4:
         09:90:81:a3:00:9a:34:05:5e:54:9a:0d:4d:3c:e7:30:06:1e:
         9b:7d:fe:01:2e:1f:5d:2b:e4:eb:79:0a:06:dc:53:e8:bb:30:
         f3:44:bf:77:78:7d:44:fc:be:47:5f:ef:50:f7:52:3e:50:51:
         eb:cc:13:f5:6f:2a:ee:d2:ac:28:43:d2:33:6c:3b:cc:17:b3:
         d4:37:e0:d3:59:df:6b:da:da:34:f4:5c:5a:31:8b:7e:88:64:
         dd:7c:95:7d:ea:48:05:52:9c:74:bd:28:73:25:0a:3f:90:f9:
         79:aa:df:c5:92:87:6e:c9:d3:48:70:47:58:4b:b6:67:14:89:
         6d:db:06:32:a3:ce:f1:4e:a8:17:af:55:58:bd:c2:06:d9:46:
         ad:bb:73:8f:ab:b4:3b:a1:fa:57:44:f5:50:8e:64:54:52:02:
         36:7a:2c:b4:3b:cd:45:5f:e8:f5:85:4f:d6:fc:94:3c:70:97:
         8b:04:7b:60:9a:09:7a:0b:a1:d3:55:84:fa:f4:70:62:6f:3f:
         e6:b1:cf:ec:c4:5b:4d:19:d6:af:67:69:f3:9e:6f:dd:2f:80:
         3a:e4:bf:33:cf:89:72:d9
-----BEGIN CERTIFICATE-----
MIIE5jCCAs6gAwIBAgIBFzANBgkqhkiG9w0BAQsFADCBkzELMAkGA1UEBhMCVVMx
CzAJBgNVBAgMAkNBMREwDwYDVQQHDAhTdGFuZm9yZDENMAsGA1UECgwEQk1JUjEO
MAwGA1UECwwFQ0VEQVIxHDAaBgNVBAMME21ldGFkYXRhY2VudGVyLm9yZ3gxJzAl
BgkqhkiG9w0BCQEWGG1ldGFkYXRhY2VudGVyQGdtYWlsLmNvbTAeFw0yMzAzMTAw
MTI3MTlaFw0yNTA2MTEwMTI3MTlaMIGOMQswCQYDVQQGEwJVUzELMAkGA1UECAwC
Q0ExDTALBgNVBAoMBEJNSVIxDjAMBgNVBAsMBUNFREFSMSowKAYDVQQDDCFpbnRl
cm5hbHN2aWV3Lm1ldGFkYXRhY2VudGVyLm9yZ3gxJzAlBgkqhkiG9w0BCQEWGG1l
dGFkYXRhY2VudGVyQGdtYWlsLmNvbTCCASIwDQYJKoZIhvcNAQEBBQADggEPADCC
AQoCggEBAKJLuo2TzIzI6d2GV+KVjZcGYY+sn4sSX7kAJ4hDlZkq72LEhaaoA4Fi
hnpiIXEga8Pc+5jFnigcMts3JaV+CO+bMsGEl4HIbP1hwS+3IaxojZCxkz2J9gV7
RERQ/8iqJSvg8yA34PEtLT0aue4aOvYAaRQh8LmbxA6DjBfVzcVyEqvIzugn95/0
HAPlgXUB2wewUhMQs3bGrHpgztw8JL0zgph0B5NbOZChX+H745cXSAhTbg/ZPZzY
VDvkB9LFiXG+UEUVH2YUN7pPhm4oRTEb/MNTEmYfJBCKkCHWLABBLK5o/qxATjnI
rfU/iorfZzG7xqSD5ZhKMrZreyenmQkCAwEAAaNIMEYwCQYDVR0TBAIwADALBgNV
HQ8EBAMCBeAwLAYDVR0RBCUwI4IhaW50ZXJuYWxzdmlldy5tZXRhZGF0YWNlbnRl
ci5vcmd4MA0GCSqGSIb3DQEBCwUAA4ICAQAjv+NLRC8sB+xsnEyNgXPoWQUcP4c8
9n0saZEqBFF1MEwEdEJ05dxTKySbkBq+5ybA5bSg6Z6WJWcZCc5eSXLuy2y1e2Te
m7z1m+OZK79q/GJMy4JSIxfA+7TJ9cw3mYsz0lh7yJinNEmFIk8/rOu656kqf2Bv
Na66HZvmuaWwyDe0RnyMo/fGn3Q5iP17ci4N5CFW1tJKifPJdsouUrR8Atl0A/i9
KkAh3AVyOxvJI/4amNQroSCOzYHCi7c1PQpy3F8cBbTOA7tlYaDk36nT3MixKFlQ
cVvHKlNTOtDJfZHUnJFLe4PrNbkKa1CHeiXfLtVR88Cc/atQncHcuiy4yXpmq7cM
4syHJ9NvW68qHR0KoqpExOKM1r089ZYT49QJkIGjAJo0BV5Umg1NPOcwBh6bff4B
Lh9dK+TreQoG3FPouzDzRL93eH1E/L5HX+9Q91I+UFHrzBP1byru0qwoQ9IzbDvM
F7PUN+DTWd9r2to09FxaMYt+iGTdfJV96kgFUpx0vShzJQo/kPl5qt/FkoduydNI
cEdYS7ZnFIlt2wYyo87xTqgXr1VYvcIG2Uatu3OPq7Q7ofpXRPVQjmRUUgI2eiy0
O81FX+j1hU/W/JQ8cJeLBHtgmgl6C6HTVYT69HBibz/msc/sxFtNGdavZ2nznm/d
L4A65L8zz4ly2Q==
-----END CERTIFICATE-----
