Certificate:
    Data:
        Version: 3 (0x2)
        Serial Number: 5 (0x5)
        Signature Algorithm: sha256WithRSAEncryption
        Issuer: C=US, ST=CA, L=Stanford, O=BMIR, OU=CEDAR, CN=metadatacenter.orgx/emailAddress=metadatacenter@gmail.com
        Validity
            Not Before: Jan 17 21:50:43 2024 GMT
            Not After : Apr 20 21:50:43 2026 GMT
        Subject: C=US, ST=CA, O=BMIR, OU=CEDAR, CN=impex.metadatacenter.orgx/emailAddress=metadatacenter@gmail.com
        Subject Public Key Info:
            Public Key Algorithm: rsaEncryption
                RSA Public-Key: (2048 bit)
                Modulus:
                    00:e5:91:52:70:b6:4c:63:38:7b:bb:a0:ff:3f:9f:
                    e2:ac:13:14:03:93:98:f1:a1:7f:09:ab:e1:0f:56:
                    32:7f:b4:74:1c:e1:f4:ad:90:d1:36:c4:17:20:21:
                    5f:0d:40:a0:93:88:67:6c:40:9d:00:3b:4a:72:16:
                    57:f3:02:c4:3f:12:15:53:cd:98:15:35:be:f3:8a:
                    38:ef:57:3f:6d:93:21:8f:1c:b3:07:37:9b:49:66:
                    73:fb:ea:be:58:c3:a7:57:95:d0:18:55:dc:e3:65:
                    50:59:50:c8:81:f4:1a:ea:dc:d3:a1:d3:bf:58:2d:
                    4a:f0:19:b0:55:1c:7d:27:4d:f9:fd:11:f0:23:61:
                    92:96:90:52:52:ed:dc:a7:15:50:fb:74:68:7e:fe:
                    6a:27:89:9a:28:8c:17:a0:20:62:9f:ac:62:1b:5a:
                    ab:f8:eb:3a:75:49:ec:c3:bf:52:17:cf:68:17:95:
                    48:dc:d6:e9:36:b2:18:9a:52:bf:95:02:ac:5d:d8:
                    50:9b:63:36:6d:be:e1:15:7f:df:70:0a:63:b0:cc:
                    31:89:30:b9:47:6b:46:d9:28:55:2b:7a:c3:e0:78:
                    6e:e6:1b:3e:cc:1a:b5:da:eb:ac:6a:c6:79:17:cd:
                    3e:7b:a6:42:a8:81:e6:ff:97:a6:56:17:e9:b8:68:
                    77:67
                Exponent: 65537 (0x10001)
        X509v3 extensions:
            X509v3 Basic Constraints: 
                CA:FALSE
            X509v3 Key Usage: 
                Digital Signature, Non Repudiation, Key Encipherment
            X509v3 Subject Alternative Name: 
                DNS:impex.metadatacenter.orgx
    Signature Algorithm: sha256WithRSAEncryption
         70:63:6a:0d:bc:76:ef:a4:22:1f:c1:cb:3e:99:e8:76:3e:96:
         69:68:a3:82:1a:e7:1d:0a:2c:39:75:b5:97:fb:05:5b:bd:6d:
         fd:f5:fa:89:1e:ad:4d:82:ec:2d:8b:3a:1b:81:6e:f7:4a:4d:
         2b:e5:c7:58:e3:a4:c7:07:80:57:0e:1a:72:0c:04:90:ec:0b:
         f2:74:dd:70:d8:9d:d7:31:91:89:6f:a7:c7:69:83:a8:7c:43:
         b4:87:d3:f4:17:f5:63:c1:8a:2b:5d:fb:20:bd:3e:26:e0:dd:
         5b:7f:93:de:a6:cd:3b:24:b9:6c:ef:77:c0:1d:81:b1:f7:a2:
         fc:b9:f1:ff:41:40:32:55:36:a6:77:68:16:d8:55:41:bd:d7:
         4e:f4:98:07:f4:21:34:ac:69:e4:3c:ce:b6:e2:b8:ec:e3:f1:
         a6:a6:75:14:ff:33:61:75:d4:83:29:bc:8a:1f:b1:08:df:05:
         43:58:9b:98:d7:fa:74:ea:7d:47:a1:94:60:58:28:43:95:c0:
         96:fd:ec:63:be:8f:78:48:27:17:c1:1f:68:b7:98:39:19:c4:
         b0:08:6b:c5:77:73:99:12:e5:38:e8:56:d8:b3:3c:22:1d:8b:
         8a:41:27:3f:db:66:38:91:a7:6c:a7:a8:e9:57:77:2d:3a:86:
         29:9c:7d:a9:f4:6a:53:50:ee:81:d9:cf:c6:ef:6b:54:3c:1c:
         2f:33:6f:27:46:4a:52:18:11:4d:b3:e3:ce:8e:e9:8d:49:b4:
         f2:df:14:83:b2:a2:80:5b:7a:11:b0:b7:e6:8c:31:5d:ee:8c:
         a8:1b:0c:aa:eb:09:7a:90:77:3c:fe:fc:bf:14:c2:bd:4a:7e:
         27:55:35:d2:b3:46:61:f8:52:e1:f6:f3:84:4a:88:7d:b6:41:
         64:6b:5e:be:59:57:f0:e7:bc:8d:20:09:c4:cf:14:a2:21:ca:
         38:a0:7e:1e:b2:8a:b2:f1:52:a0:7b:b8:31:69:e1:ca:fe:bc:
         75:bc:88:3a:63:0f:26:1b:bc:0c:12:6e:57:e2:0c:e8:51:e0:
         8c:24:20:0f:e4:73:fa:ee:fb:0c:4f:95:7d:e5:44:56:51:b4:
         92:10:1e:47:81:06:f7:47:8a:fb:62:17:4f:28:48:58:d5:6c:
         e2:cd:42:96:e8:46:87:87:40:f7:98:bb:b6:c7:c8:23:a6:2a:
         9d:d8:98:08:09:2c:20:e6:91:e5:a4:f2:75:53:fc:3e:73:21:
         7a:b1:52:f2:12:e8:e4:a4:75:31:e8:45:9f:5a:ad:56:b4:00:
         ad:85:9c:1e:68:c2:7d:f3:05:a9:9f:5d:bb:5b:2d:03:f4:3a:
         df:da:85:ca:87:d0:bd:c4
-----BEGIN CERTIFICATE-----
MIIE1jCCAr6gAwIBAgIBBTANBgkqhkiG9w0BAQsFADCBkzELMAkGA1UEBhMCVVMx
CzAJBgNVBAgMAkNBMREwDwYDVQQHDAhTdGFuZm9yZDENMAsGA1UECgwEQk1JUjEO
MAwGA1UECwwFQ0VEQVIxHDAaBgNVBAMME21ldGFkYXRhY2VudGVyLm9yZ3gxJzAl
BgkqhkiG9w0BCQEWGG1ldGFkYXRhY2VudGVyQGdtYWlsLmNvbTAeFw0yNDAxMTcy
MTUwNDNaFw0yNjA0MjAyMTUwNDNaMIGGMQswCQYDVQQGEwJVUzELMAkGA1UECAwC
Q0ExDTALBgNVBAoMBEJNSVIxDjAMBgNVBAsMBUNFREFSMSIwIAYDVQQDDBlpbXBl
eC5tZXRhZGF0YWNlbnRlci5vcmd4MScwJQYJKoZIhvcNAQkBFhhtZXRhZGF0YWNl
bnRlckBnbWFpbC5jb20wggEiMA0GCSqGSIb3DQEBAQUAA4IBDwAwggEKAoIBAQDl
kVJwtkxjOHu7oP8/n+KsExQDk5jxoX8Jq+EPVjJ/tHQc4fStkNE2xBcgIV8NQKCT
iGdsQJ0AO0pyFlfzAsQ/EhVTzZgVNb7zijjvVz9tkyGPHLMHN5tJZnP76r5Yw6dX
ldAYVdzjZVBZUMiB9Brq3NOh079YLUrwGbBVHH0nTfn9EfAjYZKWkFJS7dynFVD7
dGh+/moniZoojBegIGKfrGIbWqv46zp1SezDv1IXz2gXlUjc1uk2shiaUr+VAqxd
2FCbYzZtvuEVf99wCmOwzDGJMLlHa0bZKFUresPgeG7mGz7MGrXa66xqxnkXzT57
pkKogeb/l6ZWF+m4aHdnAgMBAAGjQDA+MAkGA1UdEwQCMAAwCwYDVR0PBAQDAgXg
MCQGA1UdEQQdMBuCGWltcGV4Lm1ldGFkYXRhY2VudGVyLm9yZ3gwDQYJKoZIhvcN
AQELBQADggIBAHBjag28du+kIh/Byz6Z6HY+lmloo4Ia5x0KLDl1tZf7BVu9bf31
+okerU2C7C2LOhuBbvdKTSvlx1jjpMcHgFcOGnIMBJDsC/J03XDYndcxkYlvp8dp
g6h8Q7SH0/QX9WPBiitd+yC9Pibg3Vt/k96mzTskuWzvd8AdgbH3ovy58f9BQDJV
NqZ3aBbYVUG91070mAf0ITSsaeQ8zrbiuOzj8aamdRT/M2F11IMpvIofsQjfBUNY
m5jX+nTqfUehlGBYKEOVwJb97GO+j3hIJxfBH2i3mDkZxLAIa8V3c5kS5TjoVtiz
PCIdi4pBJz/bZjiRp2ynqOlXdy06himcfan0alNQ7oHZz8bva1Q8HC8zbydGSlIY
EU2z486O6Y1JtPLfFIOyooBbehGwt+aMMV3ujKgbDKrrCXqQdzz+/L8Uwr1KfidV
NdKzRmH4UuH284RKiH22QWRrXr5ZV/DnvI0gCcTPFKIhyjigfh6yirLxUqB7uDFp
4cr+vHW8iDpjDyYbvAwSblfiDOhR4IwkIA/kc/ru+wxPlX3lRFZRtJIQHkeBBvdH
ivtiF08oSFjVbOLNQpboRoeHQPeYu7bHyCOmKp3YmAgJLCDmkeWk8nVT/D5zIXqx
UvIS6OSkdTHoRZ9arVa0AK2FnB5own3zBamfXbtbLQP0Ot/ahcqH0L3E
-----END CERTIFICATE-----
