Certificate:
    Data:
        Version: 3 (0x2)
        Serial Number: 5 (0x5)
        Signature Algorithm: sha256WithRSAEncryption
        Issuer: C=US, ST=CA, L=Stanford, O=BMIR, OU=CEDAR, CN=metadatacenter.orgx/emailAddress=metadatacenter@gmail.com
        Validity
            Not Before: Jan 18 00:50:44 2024 GMT
            Not After : Apr 21 00:50:44 2026 GMT
        Subject: C=US, ST=CA, O=BMIR, OU=CEDAR, CN=impex.metadatacenter.orgx/emailAddress=metadatacenter@gmail.com
        Subject Public Key Info:
            Public Key Algorithm: rsaEncryption
                RSA Public-Key: (2048 bit)
                Modulus:
                    00:a1:a8:d2:5d:6b:01:59:ad:ac:2a:35:64:b2:d4:
                    6b:c6:97:d5:18:3a:f8:89:c6:c8:54:a0:2a:db:c2:
                    85:c3:7c:9c:82:31:04:d7:75:e4:93:ea:56:dc:a4:
                    46:24:fd:f6:7d:3a:93:0c:9a:9c:d9:ef:ec:5a:0c:
                    62:c7:c0:45:84:e3:05:fa:45:19:ee:d3:46:ec:0a:
                    ff:07:ce:95:c0:e8:2d:11:0b:be:fe:38:5a:78:9f:
                    a0:33:9d:79:1e:35:35:26:33:2d:89:45:03:e9:24:
                    45:fb:ed:8f:ec:71:5e:4d:27:90:e5:12:b5:a0:8f:
                    e0:33:df:4c:f7:4c:8f:91:b9:ee:0b:84:1e:e3:77:
                    ef:84:37:71:ff:25:fe:a3:21:83:ea:37:be:60:63:
                    5e:1d:36:cd:c4:9e:03:b5:99:48:2e:ba:48:d1:bc:
                    f2:67:d4:aa:50:ae:01:b4:05:bf:67:68:91:f2:c4:
                    bd:c6:1e:64:e3:be:09:8e:9e:1d:f6:15:9a:e4:b6:
                    7a:8d:0f:f2:cc:03:40:41:dd:cb:8a:e0:65:c6:a9:
                    b4:a9:98:2f:7b:3a:80:2a:22:a9:57:7e:a9:a1:b8:
                    29:93:92:a4:17:69:01:a1:52:e6:a4:05:1f:64:37:
                    c7:26:56:7a:a1:8b:ae:9f:42:4a:61:7c:77:24:26:
                    0c:ef
                Exponent: 65537 (0x10001)
        X509v3 extensions:
            X509v3 Basic Constraints: 
                CA:FALSE
            X509v3 Key Usage: 
                Digital Signature, Non Repudiation, Key Encipherment
            X509v3 Subject Alternative Name: 
                DNS:impex.metadatacenter.orgx
    Signature Algorithm: sha256WithRSAEncryption
         4d:b6:67:9d:57:7f:15:75:70:0f:e4:f7:c8:7c:ba:e7:48:16:
         c2:08:16:e8:34:e1:a9:ff:70:ee:42:73:f8:0b:e6:cf:f4:35:
         62:29:93:e8:53:2c:e8:59:3f:ec:ed:e0:61:1b:be:10:d6:b9:
         d1:9e:54:e0:ad:71:2e:e5:42:5c:4b:fb:f3:a9:99:a0:01:ff:
         9b:33:76:46:30:36:7b:8f:cd:d7:9b:be:e2:cd:4a:1c:a9:5d:
         c9:18:1a:0e:bf:18:5d:eb:fa:d7:96:08:a7:6a:45:aa:78:95:
         f1:81:62:9e:e3:3b:60:c9:f9:a3:fb:b4:1d:b7:56:dc:a9:d1:
         35:c5:21:1d:f1:eb:fa:81:6b:67:f4:29:c7:16:58:12:d9:0e:
         51:7f:c5:fb:b6:f6:96:bb:d2:c4:65:70:1b:78:4d:3e:92:dc:
         74:83:52:a3:42:26:c2:ce:70:0a:79:8d:dc:87:34:62:a3:a5:
         d3:86:46:f4:54:9d:7c:32:3a:dd:96:75:79:dd:27:d4:f0:1b:
         e0:1a:b5:bd:ca:6c:b4:f0:0a:b5:99:22:17:94:71:7e:c6:9a:
         86:3e:72:07:43:da:4c:5f:02:37:77:cb:8f:df:01:ef:7e:4f:
         61:45:e3:80:c2:f6:c6:52:8d:3c:c3:b5:85:a7:e6:60:42:0d:
         d1:c0:cd:01:36:86:93:11:65:0d:fc:72:e2:75:a4:5b:57:2a:
         e8:32:6b:af:64:74:ca:16:38:fd:26:0a:2b:b2:5e:9d:81:77:
         6b:8b:c8:84:a2:bc:bd:05:5d:a3:a8:de:a4:63:64:be:a1:f1:
         e8:bb:17:76:7e:06:4c:e2:c3:55:a7:93:d8:e8:74:d7:c6:01:
         74:60:98:00:9a:ef:d7:2e:89:6d:69:8d:2f:42:15:9f:8c:96:
         99:64:e3:44:d3:61:f9:1b:88:7d:60:7e:a0:0a:cb:7f:bf:df:
         99:de:bc:1c:1e:3d:5e:73:19:e1:9a:19:bb:10:69:ce:44:89:
         b5:c0:17:fc:84:c9:5b:44:51:1e:ab:32:ef:9e:8a:8a:4d:a2:
         e6:71:8c:b8:0d:41:e1:2f:a6:ef:eb:44:57:cb:27:1a:76:38:
         66:35:8c:2e:ab:5a:f1:06:81:78:97:bc:b9:f6:f4:aa:d1:5e:
         2f:d6:e5:85:8b:ac:86:7b:fc:62:e7:4f:9b:4a:7b:70:18:9f:
         02:aa:18:fb:06:32:85:8d:1c:6f:bb:17:ab:5b:f6:e4:b5:d6:
         ad:cf:c0:ac:8c:31:89:1d:a9:87:12:ef:79:47:67:fb:19:b4:
         bc:14:89:cc:fc:0b:33:4c:2e:f8:fb:e5:7d:67:b8:cd:3f:e0:
         80:1a:85:cf:3e:b7:f2:9f
-----BEGIN CERTIFICATE-----
MIIE1jCCAr6gAwIBAgIBBTANBgkqhkiG9w0BAQsFADCBkzELMAkGA1UEBhMCVVMx
CzAJBgNVBAgMAkNBMREwDwYDVQQHDAhTdGFuZm9yZDENMAsGA1UECgwEQk1JUjEO
MAwGA1UECwwFQ0VEQVIxHDAaBgNVBAMME21ldGFkYXRhY2VudGVyLm9yZ3gxJzAl
BgkqhkiG9w0BCQEWGG1ldGFkYXRhY2VudGVyQGdtYWlsLmNvbTAeFw0yNDAxMTgw
MDUwNDRaFw0yNjA0MjEwMDUwNDRaMIGGMQswCQYDVQQGEwJVUzELMAkGA1UECAwC
Q0ExDTALBgNVBAoMBEJNSVIxDjAMBgNVBAsMBUNFREFSMSIwIAYDVQQDDBlpbXBl
eC5tZXRhZGF0YWNlbnRlci5vcmd4MScwJQYJKoZIhvcNAQkBFhhtZXRhZGF0YWNl
bnRlckBnbWFpbC5jb20wggEiMA0GCSqGSIb3DQEBAQUAA4IBDwAwggEKAoIBAQCh
qNJdawFZrawqNWSy1GvGl9UYOviJxshUoCrbwoXDfJyCMQTXdeST6lbcpEYk/fZ9
OpMMmpzZ7+xaDGLHwEWE4wX6RRnu00bsCv8HzpXA6C0RC77+OFp4n6AznXkeNTUm
My2JRQPpJEX77Y/scV5NJ5DlErWgj+Az30z3TI+Rue4LhB7jd++EN3H/Jf6jIYPq
N75gY14dNs3EngO1mUguukjRvPJn1KpQrgG0Bb9naJHyxL3GHmTjvgmOnh32FZrk
tnqND/LMA0BB3cuK4GXGqbSpmC97OoAqIqlXfqmhuCmTkqQXaQGhUuakBR9kN8cm
Vnqhi66fQkphfHckJgzvAgMBAAGjQDA+MAkGA1UdEwQCMAAwCwYDVR0PBAQDAgXg
MCQGA1UdEQQdMBuCGWltcGV4Lm1ldGFkYXRhY2VudGVyLm9yZ3gwDQYJKoZIhvcN
AQELBQADggIBAE22Z51XfxV1cA/k98h8uudIFsIIFug04an/cO5Cc/gL5s/0NWIp
k+hTLOhZP+zt4GEbvhDWudGeVOCtcS7lQlxL+/OpmaAB/5szdkYwNnuPzdebvuLN
ShypXckYGg6/GF3r+teWCKdqRap4lfGBYp7jO2DJ+aP7tB23Vtyp0TXFIR3x6/qB
a2f0KccWWBLZDlF/xfu29pa70sRlcBt4TT6S3HSDUqNCJsLOcAp5jdyHNGKjpdOG
RvRUnXwyOt2WdXndJ9TwG+Aatb3KbLTwCrWZIheUcX7GmoY+cgdD2kxfAjd3y4/f
Ae9+T2FF44DC9sZSjTzDtYWn5mBCDdHAzQE2hpMRZQ38cuJ1pFtXKugya69kdMoW
OP0mCiuyXp2Bd2uLyISivL0FXaOo3qRjZL6h8ei7F3Z+Bkziw1Wnk9jodNfGAXRg
mACa79cuiW1pjS9CFZ+Mlplk40TTYfkbiH1gfqAKy3+/35nevBwePV5zGeGaGbsQ
ac5EibXAF/yEyVtEUR6rMu+eiopNouZxjLgNQeEvpu/rRFfLJxp2OGY1jC6rWvEG
gXiXvLn29KrRXi/W5YWLrIZ7/GLnT5tKe3AYnwKqGPsGMoWNHG+7F6tb9uS11q3P
wKyMMYkdqYcS73lHZ/sZtLwUicz8CzNMLvj75X1nuM0/4IAahc8+t/Kf
-----END CERTIFICATE-----
