Certificate:
    Data:
        Version: 3 (0x2)
        Serial Number: 6 (0x6)
        Signature Algorithm: sha256WithRSAEncryption
        Issuer: C=US, ST=CA, L=Stanford, O=BMIR, OU=CEDAR, CN=metadatacenter.orgx/emailAddress=metadatacenter@gmail.com
        Validity
            Not Before: Jan 18 18:06:51 2023 GMT
            Not After : Apr 21 18:06:51 2025 GMT
        Subject: C=US, ST=CA, O=BMIR, OU=CEDAR, CN=impex.metadatacenter.orgx/emailAddress=metadatacenter@gmail.com
        Subject Public Key Info:
            Public Key Algorithm: rsaEncryption
                RSA Public-Key: (2048 bit)
                Modulus:
                    00:cb:de:0b:d5:95:30:d5:a1:e4:b5:27:42:6d:66:
                    23:05:cc:aa:59:88:cd:c4:66:da:13:64:b1:7f:c6:
                    86:38:7c:1f:50:86:5e:bf:fb:9a:f4:2c:ff:d2:22:
                    5e:4b:6e:66:4c:5d:b8:40:5f:59:ef:41:03:8d:29:
                    f0:28:21:c2:95:2e:a7:a4:c7:c9:6f:c5:5e:7c:e7:
                    b1:81:ea:9c:a9:98:9a:9d:bd:47:e2:82:b4:b4:b2:
                    25:26:4d:2c:1e:e6:60:f9:04:1d:53:db:b1:01:84:
                    27:64:23:47:4e:b9:a8:88:9b:ce:57:d9:04:d6:9b:
                    5c:d7:c2:ee:73:e6:2f:88:65:9b:dc:33:21:32:b3:
                    57:04:ef:b9:5c:6b:93:1d:b0:a9:3a:a9:b7:5d:6a:
                    76:2a:40:03:4f:a1:30:16:c1:30:a7:bd:a7:9e:67:
                    0e:72:34:ae:2e:8f:fe:0a:e9:cb:34:4f:07:cb:24:
                    97:40:85:e6:0c:65:38:21:59:a5:29:7c:f8:1f:bf:
                    5a:f6:be:2e:83:b3:87:71:e8:a0:18:f9:1d:aa:e7:
                    df:2e:99:fa:66:0a:04:2e:d0:11:9c:a6:fb:ca:d5:
                    8f:d6:16:47:af:6c:91:4e:9c:3a:52:e3:13:2f:71:
                    72:b9:80:0c:9b:ae:80:6a:53:5f:69:c0:9d:ac:66:
                    ef:fd
                Exponent: 65537 (0x10001)
        X509v3 extensions:
            X509v3 Basic Constraints: 
                CA:FALSE
            X509v3 Key Usage: 
                Digital Signature, Non Repudiation, Key Encipherment
            X509v3 Subject Alternative Name: 
                DNS:impex.metadatacenter.orgx
    Signature Algorithm: sha256WithRSAEncryption
         58:ab:26:33:e4:88:01:de:08:42:99:5f:04:e9:1c:6c:b7:71:
         df:70:dd:11:f8:72:c8:5d:43:f7:88:18:06:e3:a8:78:08:f2:
         7a:c1:25:8b:44:30:6f:52:fd:3d:ff:c1:c2:5d:95:2e:08:67:
         ce:d3:a0:14:13:b7:1c:ad:2a:4e:47:1e:7e:54:a0:84:cd:26:
         e5:80:91:10:6a:cd:f3:e9:3c:8b:17:bb:3d:45:9b:d9:da:e0:
         df:de:d0:3b:e2:20:e8:06:05:5d:36:e6:1f:eb:cb:21:79:f1:
         dd:33:c9:60:9c:34:dd:9c:41:b6:ee:f4:f0:23:38:7d:37:d8:
         18:41:1a:53:f5:c7:9e:04:61:bb:02:b1:3e:56:f6:de:ef:c7:
         8d:f2:e5:3f:c6:80:90:e1:1e:6b:8d:4a:df:7e:a7:dd:61:08:
         08:c5:0c:73:8c:ab:64:32:8c:55:22:f0:91:99:79:a5:f4:64:
         40:a9:d3:33:b1:d5:14:2e:49:aa:7d:e9:f7:eb:67:bb:8e:94:
         1d:80:8b:4b:ff:90:54:3a:3b:97:f1:f5:f7:36:94:84:1d:90:
         14:68:fd:9a:3f:34:c9:66:80:17:00:ac:58:3c:11:da:d0:d5:
         83:be:5a:be:5b:c3:d5:0a:c7:e0:bd:46:ea:65:e6:01:69:39:
         00:52:e4:b3:26:14:b0:2c:ee:57:58:27:65:dc:28:9c:d6:81:
         83:69:ab:28:28:61:06:1c:82:1f:da:ef:1e:64:65:99:a8:15:
         b6:b1:e3:94:8c:84:a7:82:e5:06:8a:07:6e:b7:3c:e9:de:73:
         cb:26:4a:5a:01:32:47:93:ed:03:2c:a6:1f:4c:a8:59:70:22:
         08:27:55:11:99:7e:a5:8b:bb:40:b3:aa:63:26:f4:b5:1a:b2:
         a1:55:bc:55:9c:51:4c:7a:3d:8b:22:6d:b7:d6:80:06:31:74:
         e8:25:93:fb:a1:cd:8c:eb:d1:69:43:e8:31:cf:49:cf:5e:cf:
         16:95:c8:21:be:d9:a0:33:9e:24:5c:97:75:0f:b9:c8:ef:b5:
         6a:3e:eb:dd:74:76:9e:cd:c9:b9:4d:f6:d9:d1:d2:97:9c:13:
         3b:42:77:ae:a2:35:bf:dc:00:8a:64:8e:f2:0b:ea:1c:b0:e9:
         92:30:fe:df:aa:b5:70:32:b0:4a:6e:1a:96:36:07:58:95:10:
         5f:2e:b5:5f:a2:8c:85:2e:9e:06:6e:6f:a6:61:1d:25:2e:3f:
         9b:11:6e:49:b7:07:e8:92:7c:9a:39:42:80:ab:9a:73:93:ac:
         42:87:17:ca:d8:e2:1c:0e:91:98:19:16:77:a0:cb:52:27:1f:
         b1:81:fa:45:54:61:d0:f3
-----BEGIN CERTIFICATE-----
MIIE1jCCAr6gAwIBAgIBBjANBgkqhkiG9w0BAQsFADCBkzELMAkGA1UEBhMCVVMx
CzAJBgNVBAgMAkNBMREwDwYDVQQHDAhTdGFuZm9yZDENMAsGA1UECgwEQk1JUjEO
MAwGA1UECwwFQ0VEQVIxHDAaBgNVBAMME21ldGFkYXRhY2VudGVyLm9yZ3gxJzAl
BgkqhkiG9w0BCQEWGG1ldGFkYXRhY2VudGVyQGdtYWlsLmNvbTAeFw0yMzAxMTgx
ODA2NTFaFw0yNTA0MjExODA2NTFaMIGGMQswCQYDVQQGEwJVUzELMAkGA1UECAwC
Q0ExDTALBgNVBAoMBEJNSVIxDjAMBgNVBAsMBUNFREFSMSIwIAYDVQQDDBlpbXBl
eC5tZXRhZGF0YWNlbnRlci5vcmd4MScwJQYJKoZIhvcNAQkBFhhtZXRhZGF0YWNl
bnRlckBnbWFpbC5jb20wggEiMA0GCSqGSIb3DQEBAQUAA4IBDwAwggEKAoIBAQDL
3gvVlTDVoeS1J0JtZiMFzKpZiM3EZtoTZLF/xoY4fB9Qhl6/+5r0LP/SIl5LbmZM
XbhAX1nvQQONKfAoIcKVLqekx8lvxV5857GB6pypmJqdvUfigrS0siUmTSwe5mD5
BB1T27EBhCdkI0dOuaiIm85X2QTWm1zXwu5z5i+IZZvcMyEys1cE77lca5MdsKk6
qbddanYqQANPoTAWwTCnvaeeZw5yNK4uj/4K6cs0TwfLJJdAheYMZTghWaUpfPgf
v1r2vi6Ds4dx6KAY+R2q598umfpmCgQu0BGcpvvK1Y/WFkevbJFOnDpS4xMvcXK5
gAybroBqU19pwJ2sZu/9AgMBAAGjQDA+MAkGA1UdEwQCMAAwCwYDVR0PBAQDAgXg
MCQGA1UdEQQdMBuCGWltcGV4Lm1ldGFkYXRhY2VudGVyLm9yZ3gwDQYJKoZIhvcN
AQELBQADggIBAFirJjPkiAHeCEKZXwTpHGy3cd9w3RH4cshdQ/eIGAbjqHgI8nrB
JYtEMG9S/T3/wcJdlS4IZ87ToBQTtxytKk5HHn5UoITNJuWAkRBqzfPpPIsXuz1F
m9na4N/e0DviIOgGBV025h/ryyF58d0zyWCcNN2cQbbu9PAjOH032BhBGlP1x54E
YbsCsT5W9t7vx43y5T/GgJDhHmuNSt9+p91hCAjFDHOMq2QyjFUi8JGZeaX0ZECp
0zOx1RQuSap96ffrZ7uOlB2Ai0v/kFQ6O5fx9fc2lIQdkBRo/Zo/NMlmgBcArFg8
EdrQ1YO+Wr5bw9UKx+C9Rupl5gFpOQBS5LMmFLAs7ldYJ2XcKJzWgYNpqygoYQYc
gh/a7x5kZZmoFbax45SMhKeC5QaKB263POnec8smSloBMkeT7QMsph9MqFlwIggn
VRGZfqWLu0CzqmMm9LUasqFVvFWcUUx6PYsibbfWgAYxdOglk/uhzYzr0WlD6DHP
Sc9ezxaVyCG+2aAzniRcl3UPucjvtWo+6910dp7NyblN9tnR0pecEztCd66iNb/c
AIpkjvIL6hyw6ZIw/t+qtXAysEpuGpY2B1iVEF8utV+ijIUungZub6ZhHSUuP5sR
bkm3B+iSfJo5QoCrmnOTrEKHF8rY4hwOkZgZFnegy1InH7GB+kVUYdDz
-----END CERTIFICATE-----
