Certificate:
    Data:
        Version: 3 (0x2)
        Serial Number: 27 (0x1b)
        Signature Algorithm: sha256WithRSAEncryption
        Issuer: C=US, ST=CA, L=Stanford, O=BMIR, OU=CEDAR, CN=metadatacenter.orgx/emailAddress=metadatacenter@gmail.com
        Validity
            Not Before: Apr  3 20:07:49 2023 GMT
            Not After : Jul  5 20:07:49 2025 GMT
        Subject: C=US, ST=CA, O=BMIR, OU=CEDAR, CN=monitoring.metadatacenter.orgx/emailAddress=metadatacenter@gmail.com
        Subject Public Key Info:
            Public Key Algorithm: rsaEncryption
                RSA Public-Key: (2048 bit)
                Modulus:
                    00:ad:a6:63:27:0c:d5:1b:4c:9e:d2:29:a3:ea:6c:
                    f7:c1:b4:b5:f4:96:8f:e1:16:2f:63:4b:f7:41:8b:
                    e7:8f:11:ff:b8:bd:80:20:52:64:84:47:6f:74:40:
                    c0:ed:7c:36:8f:88:49:c6:5e:81:fe:1c:03:33:8d:
                    30:f2:66:17:70:ed:17:7a:7b:23:76:47:96:fd:07:
                    6b:96:91:e2:29:2c:3e:37:2f:6e:4e:cf:60:d9:8c:
                    f0:b9:9a:dd:62:81:d8:66:ae:1e:8b:cb:bc:aa:94:
                    aa:b3:f6:59:0e:f1:da:68:ac:e6:dd:c5:99:a0:ed:
                    5e:68:7e:0a:90:9a:47:6d:1a:f2:0e:5c:ba:44:db:
                    b6:29:e4:32:25:8a:54:00:ec:83:ef:00:99:dd:c0:
                    b9:35:5c:85:b1:2f:e8:98:ca:77:86:73:bc:6f:f6:
                    14:f2:73:cc:c2:38:a3:84:83:f9:fe:3d:f7:07:44:
                    1a:9e:b5:fe:a1:00:cd:59:8d:4d:ea:35:a0:89:39:
                    e2:78:5f:e1:bf:4b:cb:fe:a3:8e:8c:50:e4:b4:5d:
                    40:9e:e7:ba:46:1e:41:a9:ad:ed:64:98:1e:5e:13:
                    36:89:49:f9:97:51:81:fa:9d:0c:12:07:da:67:28:
                    ae:9f:19:ad:ce:31:50:82:5b:dc:c4:6c:4d:a4:34:
                    21:c3
                Exponent: 65537 (0x10001)
        X509v3 extensions:
            X509v3 Basic Constraints: 
                CA:FALSE
            X509v3 Key Usage: 
                Digital Signature, Non Repudiation, Key Encipherment
            X509v3 Subject Alternative Name: 
                DNS:monitoring.metadatacenter.orgx
    Signature Algorithm: sha256WithRSAEncryption
         99:e0:a6:81:d7:99:02:9b:d5:99:c7:c4:75:68:76:36:99:92:
         ce:3d:68:a4:65:0e:cf:a1:90:3c:52:46:a6:21:9e:c5:35:60:
         7d:1d:9d:12:25:aa:36:36:8c:a9:fc:8c:7c:80:2a:79:ba:bd:
         d9:65:4d:b7:31:92:2e:a2:2d:84:78:bc:1d:98:6f:62:5e:f1:
         a6:2c:ff:1c:ba:98:4a:aa:17:71:83:44:a5:57:93:68:60:71:
         d1:3a:0c:18:ef:20:47:14:22:ad:8b:93:7d:b8:87:21:68:7c:
         7d:f4:9c:6e:4e:63:31:7b:65:2b:93:ed:9a:38:73:86:7a:29:
         84:4b:7f:c4:04:17:a3:65:c9:55:ad:18:27:37:f7:2a:f4:70:
         3a:be:62:da:2e:d9:2c:c9:a3:d8:e2:04:8b:e2:30:fb:3a:60:
         07:8f:b8:a9:83:28:36:7a:48:57:d4:bd:07:a0:d1:f5:ee:4c:
         3b:e9:2b:91:5e:a4:c6:cf:da:b1:78:03:91:fd:ed:a6:42:c3:
         4b:c4:94:99:26:52:f1:d5:f7:ba:b8:b5:9e:3f:66:e2:86:0a:
         0c:0c:de:92:ca:10:10:8e:7f:b5:11:4a:3a:da:18:a8:d8:5d:
         ab:42:b2:2b:24:a6:34:35:5a:6f:a9:1b:8e:fa:1d:78:a7:6a:
         9c:f8:1a:21:d8:3f:8b:5a:2a:a0:0d:e3:e3:40:0f:53:4d:e5:
         a5:4b:95:0e:d5:cb:86:5b:2f:46:0a:09:bf:0c:26:62:3f:8f:
         98:05:81:98:a3:6a:83:65:ee:48:15:9e:03:8e:e5:75:31:71:
         48:57:84:e3:5b:4c:8e:c2:b5:36:4d:37:2d:f1:cf:ff:47:fb:
         29:b6:d0:12:ab:99:e7:b4:0c:15:7e:21:7a:af:87:65:15:48:
         72:e7:a1:57:ab:80:2b:37:50:2e:8c:46:d5:ad:24:e0:54:2a:
         aa:77:dc:ce:b3:cd:36:8c:8c:95:57:f6:c3:89:ec:04:d8:e1:
         a1:a2:92:5e:1b:26:a5:32:59:93:83:46:b0:6d:97:3e:6e:58:
         0f:90:40:64:e2:48:00:a1:43:a1:d1:23:30:3e:72:86:8a:fe:
         d3:d3:0f:29:a4:11:b2:75:1e:a5:18:10:2a:4a:40:85:f6:c4:
         a4:06:a3:fa:be:c6:ab:90:ad:8a:1a:87:d3:97:e3:d2:23:d8:
         e5:9e:f0:c2:c8:47:b2:75:67:7f:a2:cd:67:78:69:bc:c2:d1:
         41:07:e7:61:3f:7c:89:77:8a:81:a2:6d:97:0b:8d:27:00:6a:
         58:d9:71:14:bd:f1:aa:1a:7c:07:18:94:d9:fe:9a:7c:eb:c2:
         83:fa:a1:0a:a0:ba:c3:4c
-----BEGIN CERTIFICATE-----
MIIE4DCCAsigAwIBAgIBGzANBgkqhkiG9w0BAQsFADCBkzELMAkGA1UEBhMCVVMx
CzAJBgNVBAgMAkNBMREwDwYDVQQHDAhTdGFuZm9yZDENMAsGA1UECgwEQk1JUjEO
MAwGA1UECwwFQ0VEQVIxHDAaBgNVBAMME21ldGFkYXRhY2VudGVyLm9yZ3gxJzAl
BgkqhkiG9w0BCQEWGG1ldGFkYXRhY2VudGVyQGdtYWlsLmNvbTAeFw0yMzA0MDMy
MDA3NDlaFw0yNTA3MDUyMDA3NDlaMIGLMQswCQYDVQQGEwJVUzELMAkGA1UECAwC
Q0ExDTALBgNVBAoMBEJNSVIxDjAMBgNVBAsMBUNFREFSMScwJQYDVQQDDB5tb25p
dG9yaW5nLm1ldGFkYXRhY2VudGVyLm9yZ3gxJzAlBgkqhkiG9w0BCQEWGG1ldGFk
YXRhY2VudGVyQGdtYWlsLmNvbTCCASIwDQYJKoZIhvcNAQEBBQADggEPADCCAQoC
ggEBAK2mYycM1RtMntIpo+ps98G0tfSWj+EWL2NL90GL548R/7i9gCBSZIRHb3RA
wO18No+IScZegf4cAzONMPJmF3DtF3p7I3ZHlv0Ha5aR4iksPjcvbk7PYNmM8Lma
3WKB2GauHovLvKqUqrP2WQ7x2mis5t3FmaDtXmh+CpCaR20a8g5cukTbtinkMiWK
VADsg+8Amd3AuTVchbEv6JjKd4ZzvG/2FPJzzMI4o4SD+f499wdEGp61/qEAzVmN
Teo1oIk54nhf4b9Ly/6jjoxQ5LRdQJ7nukYeQamt7WSYHl4TNolJ+ZdRgfqdDBIH
2mcorp8Zrc4xUIJb3MRsTaQ0IcMCAwEAAaNFMEMwCQYDVR0TBAIwADALBgNVHQ8E
BAMCBeAwKQYDVR0RBCIwIIIebW9uaXRvcmluZy5tZXRhZGF0YWNlbnRlci5vcmd4
MA0GCSqGSIb3DQEBCwUAA4ICAQCZ4KaB15kCm9WZx8R1aHY2mZLOPWikZQ7PoZA8
UkamIZ7FNWB9HZ0SJao2Noyp/Ix8gCp5ur3ZZU23MZIuoi2EeLwdmG9iXvGmLP8c
uphKqhdxg0SlV5NoYHHROgwY7yBHFCKti5N9uIchaHx99JxuTmMxe2Urk+2aOHOG
eimES3/EBBejZclVrRgnN/cq9HA6vmLaLtksyaPY4gSL4jD7OmAHj7ipgyg2ekhX
1L0HoNH17kw76SuRXqTGz9qxeAOR/e2mQsNLxJSZJlLx1fe6uLWeP2bihgoMDN6S
yhAQjn+1EUo62hio2F2rQrIrJKY0NVpvqRuO+h14p2qc+Boh2D+LWiqgDePjQA9T
TeWlS5UO1cuGWy9GCgm/DCZiP4+YBYGYo2qDZe5IFZ4DjuV1MXFIV4TjW0yOwrU2
TTct8c//R/spttASq5nntAwVfiF6r4dlFUhy56FXq4ArN1AujEbVrSTgVCqqd9zO
s802jIyVV/bDiewE2OGhopJeGyalMlmTg0awbZc+blgPkEBk4kgAoUOh0SMwPnKG
iv7T0w8ppBGydR6lGBAqSkCF9sSkBqP6vsarkK2KGofTl+PSI9jlnvDCyEeydWd/
os1neGm8wtFBB+dhP3yJd4qBom2XC40nAGpY2XEUvfGqGnwHGJTZ/pp868KD+qEK
oLrDTA==
-----END CERTIFICATE-----
