Certificate:
    Data:
        Version: 3 (0x2)
        Serial Number: 23 (0x17)
        Signature Algorithm: sha256WithRSAEncryption
        Issuer: C=US, ST=CA, L=Stanford, O=BMIR, OU=CEDAR, CN=metadatacenter.orgx/emailAddress=metadatacenter@gmail.com
        Validity
            Not Before: Jan 18 00:50:46 2024 GMT
            Not After : Apr 21 00:50:46 2026 GMT
        Subject: C=US, ST=CA, O=BMIR, OU=CEDAR, CN=demo.cee.metadatacenter.orgx/emailAddress=metadatacenter@gmail.com
        Subject Public Key Info:
            Public Key Algorithm: rsaEncryption
                RSA Public-Key: (2048 bit)
                Modulus:
                    00:b9:1e:95:43:60:f8:dd:b2:cc:c3:c6:02:4a:eb:
                    7d:28:c6:34:82:b1:ed:d8:04:e4:52:8d:78:e2:e4:
                    06:a1:72:b5:78:4e:6e:02:99:39:2e:cd:09:5a:be:
                    c5:38:d9:67:95:4f:39:c3:b5:73:b4:1e:29:8f:ef:
                    db:8f:82:02:21:d8:0a:74:db:18:25:94:73:43:e0:
                    e9:12:17:33:d0:77:d8:c0:64:e6:d8:7b:4e:65:65:
                    f7:42:f2:cd:c2:fd:c5:7a:43:10:cd:01:13:e3:49:
                    d6:1d:94:0d:30:a7:f5:5a:19:0d:5e:f3:5c:ba:61:
                    29:de:2c:e0:67:bb:ab:63:08:cf:ee:eb:f7:fb:6b:
                    82:64:69:0b:c6:39:97:ef:17:cb:70:14:7c:1a:33:
                    a6:3c:9a:fd:d4:a1:c9:2d:13:59:98:2c:fc:c7:e9:
                    ec:7f:a0:ed:eb:1a:09:49:70:90:53:65:4a:8c:83:
                    cf:e9:69:fb:d1:10:f7:35:7a:41:2a:b9:4c:e7:80:
                    46:64:f2:3d:08:58:7b:68:d1:0b:23:81:4e:35:0e:
                    24:33:dc:22:f3:62:c0:e6:10:c6:6d:8b:be:5f:59:
                    7b:a5:8f:a5:0b:32:f6:3e:b2:ef:3d:a3:35:52:46:
                    c9:b7:fa:a0:27:f3:01:a9:76:dd:da:b9:f9:30:47:
                    09:ff
                Exponent: 65537 (0x10001)
        X509v3 extensions:
            X509v3 Basic Constraints: 
                CA:FALSE
            X509v3 Key Usage: 
                Digital Signature, Non Repudiation, Key Encipherment
            X509v3 Subject Alternative Name: 
                DNS:demo.cee.metadatacenter.orgx
    Signature Algorithm: sha256WithRSAEncryption
         2a:60:0c:a3:57:4e:0d:a5:69:cf:72:80:72:2d:2e:37:24:f3:
         0d:b7:6b:e5:72:f0:d4:e2:b4:73:af:ed:23:fa:cb:7f:8d:65:
         40:0b:e2:ca:fe:4e:b0:8b:d2:89:e5:96:e3:4d:25:e8:1c:e2:
         51:c6:72:56:f0:39:0b:10:23:08:dc:c0:d4:c3:d6:ac:c0:35:
         a9:85:55:ab:c6:88:bf:ce:d4:01:72:bd:02:dd:0d:ad:b2:57:
         58:74:e8:40:f3:89:e2:5a:34:4a:39:17:5c:46:ff:99:89:d7:
         1c:06:f7:df:7a:d1:84:92:f9:10:3e:a9:a9:77:c7:eb:66:15:
         be:b9:e5:63:59:7d:72:f8:c5:78:21:b1:55:47:81:9c:9b:6c:
         3b:41:80:d8:4e:84:b0:68:2a:47:db:30:8f:90:e3:87:61:ba:
         bd:b7:93:75:13:cd:c1:59:46:1b:26:d4:73:3d:7d:0c:f1:af:
         d1:52:ca:78:9e:79:4e:09:32:b8:92:c1:6e:67:9b:75:1a:da:
         0c:e0:12:85:f5:79:24:1e:50:a1:86:5f:70:e2:8f:ae:c8:44:
         d0:53:dc:61:c9:ca:ae:a5:9e:31:0c:29:41:d4:b1:ba:51:0a:
         c9:cd:9c:b9:2d:12:b2:af:13:f7:f9:57:8b:91:f4:2b:57:7c:
         bb:2c:3b:79:38:35:e0:d3:f1:bd:a7:d4:06:b2:d4:b3:28:bc:
         05:63:37:99:66:6a:25:de:aa:cb:ea:7c:0c:33:ac:a5:98:15:
         3c:19:9f:cc:a5:0f:cd:4e:48:be:07:3d:0c:99:5a:2c:23:e8:
         5c:46:31:7d:68:dc:53:98:0a:4b:3b:f7:d2:7d:67:63:72:62:
         4a:9d:9a:b5:0d:1c:7f:93:48:a1:57:1f:71:a7:91:0f:cc:57:
         a4:ec:a2:36:d6:43:d3:80:9c:4c:fe:07:e9:e0:31:32:d7:6b:
         18:51:fb:46:75:08:d3:e6:9c:07:a3:f9:d5:a6:04:d2:0b:1f:
         21:53:7c:88:96:82:66:96:f6:14:a1:0f:ae:e0:ce:bd:2e:4c:
         66:c1:73:7c:6e:9d:cb:2d:00:89:1e:eb:d8:25:1f:ee:ef:43:
         be:1f:10:a6:5b:5b:23:83:08:b0:76:ec:99:bf:27:60:7c:9d:
         da:54:47:b4:a6:18:a2:0d:b2:b3:58:5f:a1:04:1a:a2:f1:e3:
         16:2b:ee:3a:a3:e6:c9:3e:c0:89:46:df:8b:bf:69:8b:f4:b0:
         1b:8c:c5:fa:97:b8:64:49:0a:ef:3e:90:8f:fd:43:2a:15:9d:
         6a:34:3c:4c:14:12:29:1d:e3:ce:5b:12:9a:9c:68:d8:2a:f8:
         cd:ca:f3:fd:72:58:f9:f2
-----BEGIN CERTIFICATE-----
MIIE3DCCAsSgAwIBAgIBFzANBgkqhkiG9w0BAQsFADCBkzELMAkGA1UEBhMCVVMx
CzAJBgNVBAgMAkNBMREwDwYDVQQHDAhTdGFuZm9yZDENMAsGA1UECgwEQk1JUjEO
MAwGA1UECwwFQ0VEQVIxHDAaBgNVBAMME21ldGFkYXRhY2VudGVyLm9yZ3gxJzAl
BgkqhkiG9w0BCQEWGG1ldGFkYXRhY2VudGVyQGdtYWlsLmNvbTAeFw0yNDAxMTgw
MDUwNDZaFw0yNjA0MjEwMDUwNDZaMIGJMQswCQYDVQQGEwJVUzELMAkGA1UECAwC
Q0ExDTALBgNVBAoMBEJNSVIxDjAMBgNVBAsMBUNFREFSMSUwIwYDVQQDDBxkZW1v
LmNlZS5tZXRhZGF0YWNlbnRlci5vcmd4MScwJQYJKoZIhvcNAQkBFhhtZXRhZGF0
YWNlbnRlckBnbWFpbC5jb20wggEiMA0GCSqGSIb3DQEBAQUAA4IBDwAwggEKAoIB
AQC5HpVDYPjdsszDxgJK630oxjSCse3YBORSjXji5AahcrV4Tm4CmTkuzQlavsU4
2WeVTznDtXO0HimP79uPggIh2Ap02xgllHND4OkSFzPQd9jAZObYe05lZfdC8s3C
/cV6QxDNARPjSdYdlA0wp/VaGQ1e81y6YSneLOBnu6tjCM/u6/f7a4JkaQvGOZfv
F8twFHwaM6Y8mv3UocktE1mYLPzH6ex/oO3rGglJcJBTZUqMg8/pafvREPc1ekEq
uUzngEZk8j0IWHto0QsjgU41DiQz3CLzYsDmEMZti75fWXulj6ULMvY+su89ozVS
Rsm3+qAn8wGpdt3aufkwRwn/AgMBAAGjQzBBMAkGA1UdEwQCMAAwCwYDVR0PBAQD
AgXgMCcGA1UdEQQgMB6CHGRlbW8uY2VlLm1ldGFkYXRhY2VudGVyLm9yZ3gwDQYJ
KoZIhvcNAQELBQADggIBACpgDKNXTg2lac9ygHItLjck8w23a+Vy8NTitHOv7SP6
y3+NZUAL4sr+TrCL0onlluNNJegc4lHGclbwOQsQIwjcwNTD1qzANamFVavGiL/O
1AFyvQLdDa2yV1h06EDzieJaNEo5F1xG/5mJ1xwG99960YSS+RA+qal3x+tmFb65
5WNZfXL4xXghsVVHgZybbDtBgNhOhLBoKkfbMI+Q44dhur23k3UTzcFZRhsm1HM9
fQzxr9FSynieeU4JMriSwW5nm3Ua2gzgEoX1eSQeUKGGX3Dij67IRNBT3GHJyq6l
njEMKUHUsbpRCsnNnLktErKvE/f5V4uR9CtXfLssO3k4NeDT8b2n1Aay1LMovAVj
N5lmaiXeqsvqfAwzrKWYFTwZn8ylD81OSL4HPQyZWiwj6FxGMX1o3FOYCks799J9
Z2NyYkqdmrUNHH+TSKFXH3GnkQ/MV6TsojbWQ9OAnEz+B+ngMTLXaxhR+0Z1CNPm
nAej+dWmBNILHyFTfIiWgmaW9hShD67gzr0uTGbBc3xuncstAIke69glH+7vQ74f
EKZbWyODCLB27Jm/J2B8ndpUR7SmGKINsrNYX6EEGqLx4xYr7jqj5sk+wIlG34u/
aYv0sBuMxfqXuGRJCu8+kI/9QyoVnWo0PEwUEikd485bEpqcaNgq+M3K8/1yWPny
-----END CERTIFICATE-----
