Certificate:
    Data:
        Version: 3 (0x2)
        Serial Number: 21 (0x15)
        Signature Algorithm: sha256WithRSAEncryption
        Issuer: C=US, ST=CA, L=Stanford, O=BMIR, OU=CEDAR, CN=metadatacenter.orgx/emailAddress=metadatacenter@gmail.com
        Validity
            Not Before: Mar 10 01:25:42 2023 GMT
            Not After : Jun 11 01:25:42 2025 GMT
        Subject: C=US, ST=CA, O=BMIR, OU=CEDAR, CN=demo.cee.metadatacenter.orgx/emailAddress=metadatacenter@gmail.com
        Subject Public Key Info:
            Public Key Algorithm: rsaEncryption
                RSA Public-Key: (2048 bit)
                Modulus:
                    00:bf:e5:15:b0:9a:6c:13:05:06:16:55:e0:2c:3f:
                    5d:fe:12:fe:ef:fc:43:6f:b4:fb:29:34:c3:62:9b:
                    7a:c0:20:af:aa:1a:cf:26:c0:04:b7:f0:56:91:19:
                    c5:6f:26:b8:b5:0e:96:da:9a:e8:b9:8a:b0:85:dd:
                    4b:83:50:67:4e:1e:82:9a:fe:b9:03:c6:54:9d:fa:
                    92:08:71:79:1d:36:af:1d:27:f7:ff:16:b9:23:85:
                    d7:3f:5a:67:cd:d5:3c:6f:cb:c7:51:df:fd:62:bf:
                    4f:3d:80:15:bf:ec:f4:6b:bb:1b:b1:19:41:81:7b:
                    0b:9c:c9:12:22:48:4f:f1:08:66:27:8f:36:4d:1b:
                    be:d3:ac:77:21:d2:70:96:e1:2a:6e:be:4d:98:75:
                    6c:28:f6:e1:72:cc:5a:e2:19:c4:ab:8e:62:da:c4:
                    39:ee:a3:f0:0f:d6:4a:be:fd:d7:d8:df:81:01:0e:
                    a9:6d:23:4a:44:1d:f2:de:54:ff:eb:25:75:53:14:
                    de:ef:85:b4:c0:6b:38:f2:b5:a0:49:58:a0:dc:b4:
                    55:44:c0:4b:d0:f0:3e:d2:69:4e:84:86:63:cb:fb:
                    d9:5c:08:9c:2c:1f:38:9a:80:b7:aa:6b:69:fa:29:
                    27:95:62:ba:42:f9:1d:ff:69:68:91:76:75:77:be:
                    5e:9b
                Exponent: 65537 (0x10001)
        X509v3 extensions:
            X509v3 Basic Constraints: 
                CA:FALSE
            X509v3 Key Usage: 
                Digital Signature, Non Repudiation, Key Encipherment
            X509v3 Subject Alternative Name: 
                DNS:demo.cee.metadatacenter.orgx
    Signature Algorithm: sha256WithRSAEncryption
         03:32:19:c4:3e:c5:75:77:9b:22:db:ea:ff:58:7f:50:6e:8a:
         67:ed:31:58:ba:83:27:cc:09:03:1a:73:9d:18:89:e7:58:19:
         25:71:0b:9f:50:a6:15:0e:c4:b8:9f:3e:bc:a4:5b:dc:bd:05:
         ff:57:52:25:f0:de:5a:7d:c2:f3:ac:1f:d3:ce:b2:94:cf:b5:
         3c:3a:1a:00:44:d8:1e:5d:27:0b:7f:46:31:a6:14:91:6f:a4:
         be:6d:3b:29:b4:44:54:67:3f:e8:1e:8c:cd:bd:a3:f2:45:5c:
         34:1f:16:bc:a9:6d:01:55:ee:6b:46:1b:61:41:6b:0e:63:88:
         4a:a9:e4:7b:8d:70:ad:63:da:1e:22:66:58:39:c7:95:ae:b5:
         2f:5b:86:e5:52:46:ef:8c:91:42:fe:d0:3a:9e:58:f9:38:8c:
         44:c1:b1:bf:a1:20:63:b8:44:07:ad:17:0f:6b:a8:16:26:50:
         7b:dc:41:19:13:f8:71:37:c8:7f:3c:73:94:57:49:20:28:51:
         77:83:ef:43:01:dd:e0:6d:e8:fc:d0:0a:0b:0e:a2:30:fa:ac:
         38:e9:d8:34:41:70:b7:e3:ab:8c:13:b6:69:cc:23:cc:55:c2:
         61:13:e9:89:3f:88:cb:3d:c6:3e:59:5e:31:62:63:d6:c5:84:
         55:26:df:11:3f:85:b9:96:05:b0:19:27:13:e3:88:2b:05:94:
         32:aa:59:cb:d6:ea:5f:62:c3:01:ec:88:b8:af:7b:65:46:a0:
         3a:4c:b1:46:c6:3e:75:58:40:6d:8c:c5:8e:bf:f0:fa:93:18:
         fc:ab:67:c1:ca:fd:b2:0d:3d:1e:b7:d8:6f:97:95:a3:94:73:
         1a:f4:0d:ff:e7:dd:76:89:24:4f:c6:ae:84:5e:ca:5a:e7:9f:
         90:f4:56:ed:f9:db:86:8c:81:22:ec:c0:91:3f:ce:54:7f:8a:
         6e:1e:f0:32:d3:aa:ee:1b:e3:02:d6:a3:3d:dd:8f:0a:b5:fc:
         eb:47:ae:28:c3:8c:bb:39:23:2c:1a:9b:62:28:5e:2a:88:9b:
         26:75:d7:7c:63:1f:04:cf:86:a2:9f:4a:15:11:8c:d9:c3:7f:
         ba:62:a0:a9:19:13:73:5c:f7:16:0e:d8:af:a1:e2:ee:3b:6a:
         7c:54:fb:8e:fa:77:07:47:ab:dc:fd:c9:93:dc:2f:f3:89:fb:
         33:00:ad:1f:8c:11:fa:38:52:6f:e6:38:38:10:ad:ba:83:e8:
         b3:95:f9:dc:a2:29:f1:f9:04:8b:b7:24:e9:fa:8d:85:b2:50:
         f6:82:13:a5:01:6a:48:66:7c:62:7c:c9:ec:83:8b:75:09:c3:
         13:66:20:43:cd:5d:08:4a
-----BEGIN CERTIFICATE-----
MIIE3DCCAsSgAwIBAgIBFTANBgkqhkiG9w0BAQsFADCBkzELMAkGA1UEBhMCVVMx
CzAJBgNVBAgMAkNBMREwDwYDVQQHDAhTdGFuZm9yZDENMAsGA1UECgwEQk1JUjEO
MAwGA1UECwwFQ0VEQVIxHDAaBgNVBAMME21ldGFkYXRhY2VudGVyLm9yZ3gxJzAl
BgkqhkiG9w0BCQEWGG1ldGFkYXRhY2VudGVyQGdtYWlsLmNvbTAeFw0yMzAzMTAw
MTI1NDJaFw0yNTA2MTEwMTI1NDJaMIGJMQswCQYDVQQGEwJVUzELMAkGA1UECAwC
Q0ExDTALBgNVBAoMBEJNSVIxDjAMBgNVBAsMBUNFREFSMSUwIwYDVQQDDBxkZW1v
LmNlZS5tZXRhZGF0YWNlbnRlci5vcmd4MScwJQYJKoZIhvcNAQkBFhhtZXRhZGF0
YWNlbnRlckBnbWFpbC5jb20wggEiMA0GCSqGSIb3DQEBAQUAA4IBDwAwggEKAoIB
AQC/5RWwmmwTBQYWVeAsP13+Ev7v/ENvtPspNMNim3rAIK+qGs8mwAS38FaRGcVv
Jri1Dpbamui5irCF3UuDUGdOHoKa/rkDxlSd+pIIcXkdNq8dJ/f/Frkjhdc/WmfN
1Txvy8dR3/1iv089gBW/7PRruxuxGUGBewucyRIiSE/xCGYnjzZNG77TrHch0nCW
4Spuvk2YdWwo9uFyzFriGcSrjmLaxDnuo/AP1kq+/dfY34EBDqltI0pEHfLeVP/r
JXVTFN7vhbTAazjytaBJWKDctFVEwEvQ8D7SaU6EhmPL+9lcCJwsHziagLeqa2n6
KSeVYrpC+R3/aWiRdnV3vl6bAgMBAAGjQzBBMAkGA1UdEwQCMAAwCwYDVR0PBAQD
AgXgMCcGA1UdEQQgMB6CHGRlbW8uY2VlLm1ldGFkYXRhY2VudGVyLm9yZ3gwDQYJ
KoZIhvcNAQELBQADggIBAAMyGcQ+xXV3myLb6v9Yf1BuimftMVi6gyfMCQMac50Y
iedYGSVxC59QphUOxLifPrykW9y9Bf9XUiXw3lp9wvOsH9POspTPtTw6GgBE2B5d
Jwt/RjGmFJFvpL5tOym0RFRnP+gejM29o/JFXDQfFrypbQFV7mtGG2FBaw5jiEqp
5HuNcK1j2h4iZlg5x5WutS9bhuVSRu+MkUL+0DqeWPk4jETBsb+hIGO4RAetFw9r
qBYmUHvcQRkT+HE3yH88c5RXSSAoUXeD70MB3eBt6PzQCgsOojD6rDjp2DRBcLfj
q4wTtmnMI8xVwmET6Yk/iMs9xj5ZXjFiY9bFhFUm3xE/hbmWBbAZJxPjiCsFlDKq
WcvW6l9iwwHsiLive2VGoDpMsUbGPnVYQG2MxY6/8PqTGPyrZ8HK/bINPR632G+X
laOUcxr0Df/n3XaJJE/GroReylrnn5D0Vu3524aMgSLswJE/zlR/im4e8DLTqu4b
4wLWoz3djwq1/OtHrijDjLs5Iywam2IoXiqImyZ113xjHwTPhqKfShURjNnDf7pi
oKkZE3Nc9xYO2K+h4u47anxU+476dwdHq9z9yZPcL/OJ+zMArR+MEfo4Um/mODgQ
rbqD6LOV+dyiKfH5BIu3JOn6jYWyUPaCE6UBakhmfGJ8yeyDi3UJwxNmIEPNXQhK
-----END CERTIFICATE-----
