Certificate:
    Data:
        Version: 3 (0x2)
        Serial Number: 0 (0x0)
        Signature Algorithm: sha256WithRSAEncryption
        Issuer: C=US, ST=CA, L=Stanford, O=BMIR, OU=CEDAR, CN=metadatacenter.orgx/emailAddress=metadatacenter@gmail.com
        Validity
            Not Before: Jan 17 21:50:43 2024 GMT
            Not After : Apr 20 21:50:43 2026 GMT
        Subject: C=US, ST=CA, O=BMIR, OU=CEDAR, CN=.metadatacenter.orgx/emailAddress=metadatacenter@gmail.com
        Subject Public Key Info:
            Public Key Algorithm: rsaEncryption
                RSA Public-Key: (2048 bit)
                Modulus:
                    00:ba:8e:5a:31:59:b0:a9:5e:7c:3c:50:0c:aa:f0:
                    68:c6:7b:f3:86:6b:24:77:1e:dd:fd:1e:4d:85:72:
                    f6:1e:e0:3e:1a:1f:ed:e1:f3:da:96:34:77:88:03:
                    48:f9:92:09:24:eb:ba:1a:68:6f:b1:00:37:19:9d:
                    75:78:db:b6:2d:5e:f9:1f:d4:f3:e6:50:43:8f:5a:
                    69:b9:d7:6a:d9:1e:96:9b:fa:44:03:11:55:00:fd:
                    9c:d0:17:a1:b9:2d:dd:ee:2f:90:1e:25:7c:b5:39:
                    35:83:3f:39:cd:90:4f:53:57:1c:2e:e1:a6:d1:a9:
                    ce:b4:ef:14:ec:18:fc:22:8f:e1:1b:69:66:2c:04:
                    74:81:89:d7:16:fe:08:f0:97:aa:02:51:72:81:52:
                    4d:41:7c:c5:dd:5f:34:27:9c:6a:42:6f:27:6c:28:
                    1f:70:05:e1:aa:12:81:19:e7:96:36:c8:ea:94:5c:
                    44:2e:c8:49:de:81:43:ac:c3:2b:30:d6:21:f9:85:
                    f9:c9:36:f5:44:e4:98:16:ef:de:3a:6f:d2:17:23:
                    84:ae:87:d2:5a:c2:15:f4:fe:b6:95:a9:8e:f7:a0:
                    b8:6c:79:28:3a:30:8c:06:f0:7e:2a:cc:63:2d:d1:
                    21:57:08:87:e8:3a:26:ff:09:5d:8d:0a:ca:a6:02:
                    45:6b
                Exponent: 65537 (0x10001)
        X509v3 extensions:
            X509v3 Basic Constraints: 
                CA:FALSE
            X509v3 Key Usage: 
                Digital Signature, Non Repudiation, Key Encipherment
            X509v3 Subject Alternative Name: 
                DNS:.metadatacenter.orgx
    Signature Algorithm: sha256WithRSAEncryption
         42:1c:89:e3:87:8e:a8:63:ca:10:1c:87:d6:2f:3c:b8:37:fb:
         3b:5e:2a:b8:db:02:85:bf:cb:3a:5f:60:e8:8b:5f:26:15:19:
         c4:d8:cd:48:a9:cc:d2:4d:c4:13:68:d5:f6:4c:ca:7a:ba:56:
         da:3d:c8:12:cf:b2:20:24:44:bd:f3:a8:06:31:af:08:d9:e5:
         8c:b0:d2:d4:a6:52:d8:a5:f2:fe:2a:61:34:e6:f7:d8:10:d6:
         02:a0:bc:a8:f8:fc:1b:da:db:44:17:75:0a:02:ad:33:1c:ef:
         4b:9f:6f:42:19:c7:02:ba:40:d2:5c:69:59:8b:5e:d5:6c:a6:
         33:eb:2d:68:6b:72:21:29:33:78:95:35:d7:00:7e:51:86:97:
         15:05:4d:eb:b8:77:90:c6:f0:4c:38:04:be:0b:71:47:d4:6d:
         2c:ab:37:59:9a:fb:49:c8:33:e0:91:a2:8a:e5:04:d3:35:bf:
         06:2f:25:3c:55:c7:3a:9d:24:b1:af:14:8d:b1:4f:85:5c:cc:
         e0:eb:3d:a1:e9:87:fd:c6:fe:a4:7a:54:56:22:fd:e1:04:51:
         df:35:5d:8b:06:54:fb:71:10:a6:48:e7:ab:09:9d:bf:33:9a:
         96:bb:60:16:e5:15:fc:01:d4:fc:d0:c9:f1:a2:67:fa:8b:1a:
         52:ea:ab:0a:b0:3c:8d:6b:ed:8a:b5:71:33:cf:a7:6a:30:8a:
         3a:91:09:5d:29:ee:a1:e5:06:ae:cd:ed:a3:3c:21:cb:c7:36:
         fe:58:b8:62:07:ed:6e:1d:6d:72:95:7d:09:9a:02:22:a9:d0:
         a0:fa:d2:20:a6:7f:65:44:d2:ec:16:cb:1e:68:a1:44:b6:40:
         53:5c:6e:d5:82:7c:49:6d:ca:26:60:7d:d9:75:c3:db:b6:fc:
         6b:dd:56:4c:eb:4a:dc:e9:94:90:f0:29:26:ad:09:ed:9d:c2:
         40:ab:ba:60:f8:6b:8c:b1:6e:88:81:0e:b1:99:0a:41:8e:69:
         f7:fc:ee:d8:da:c2:a8:eb:07:d5:28:8e:3c:94:6b:e5:c0:9a:
         d5:a3:74:9f:ac:30:69:de:f1:5b:d5:97:57:87:10:c4:74:b8:
         ec:b8:62:16:db:0a:73:9c:a9:2e:c0:40:ea:55:2f:91:9c:a1:
         a4:4f:8b:e5:2e:39:e0:6f:fc:df:cc:ad:71:6f:21:b3:56:f4:
         03:52:cd:18:96:00:1b:e6:d6:c7:ed:f6:01:bb:d7:2f:0a:0b:
         1e:97:a3:17:17:d7:79:3e:d8:2c:cc:c1:1d:fa:98:8c:a6:28:
         6a:76:b9:9a:41:8a:71:d1:76:62:a8:d4:d4:76:72:ef:d8:63:
         ef:40:5c:b8:6d:b3:70:5c
-----BEGIN CERTIFICATE-----
MIIEzDCCArSgAwIBAgIBADANBgkqhkiG9w0BAQsFADCBkzELMAkGA1UEBhMCVVMx
CzAJBgNVBAgMAkNBMREwDwYDVQQHDAhTdGFuZm9yZDENMAsGA1UECgwEQk1JUjEO
MAwGA1UECwwFQ0VEQVIxHDAaBgNVBAMME21ldGFkYXRhY2VudGVyLm9yZ3gxJzAl
BgkqhkiG9w0BCQEWGG1ldGFkYXRhY2VudGVyQGdtYWlsLmNvbTAeFw0yNDAxMTcy
MTUwNDNaFw0yNjA0MjAyMTUwNDNaMIGBMQswCQYDVQQGEwJVUzELMAkGA1UECAwC
Q0ExDTALBgNVBAoMBEJNSVIxDjAMBgNVBAsMBUNFREFSMR0wGwYDVQQDDBQubWV0
YWRhdGFjZW50ZXIub3JneDEnMCUGCSqGSIb3DQEJARYYbWV0YWRhdGFjZW50ZXJA
Z21haWwuY29tMIIBIjANBgkqhkiG9w0BAQEFAAOCAQ8AMIIBCgKCAQEAuo5aMVmw
qV58PFAMqvBoxnvzhmskdx7d/R5NhXL2HuA+Gh/t4fPaljR3iANI+ZIJJOu6Gmhv
sQA3GZ11eNu2LV75H9Tz5lBDj1ppuddq2R6Wm/pEAxFVAP2c0BehuS3d7i+QHiV8
tTk1gz85zZBPU1ccLuGm0anOtO8U7Bj8Io/hG2lmLAR0gYnXFv4I8JeqAlFygVJN
QXzF3V80J5xqQm8nbCgfcAXhqhKBGeeWNsjqlFxELshJ3oFDrMMrMNYh+YX5yTb1
ROSYFu/eOm/SFyOErofSWsIV9P62lamO96C4bHkoOjCMBvB+KsxjLdEhVwiH6Dom
/wldjQrKpgJFawIDAQABozswOTAJBgNVHRMEAjAAMAsGA1UdDwQEAwIF4DAfBgNV
HREEGDAWghQubWV0YWRhdGFjZW50ZXIub3JneDANBgkqhkiG9w0BAQsFAAOCAgEA
QhyJ44eOqGPKEByH1i88uDf7O14quNsChb/LOl9g6ItfJhUZxNjNSKnM0k3EE2jV
9kzKerpW2j3IEs+yICREvfOoBjGvCNnljLDS1KZS2KXy/iphNOb32BDWAqC8qPj8
G9rbRBd1CgKtMxzvS59vQhnHArpA0lxpWYte1WymM+staGtyISkzeJU11wB+UYaX
FQVN67h3kMbwTDgEvgtxR9RtLKs3WZr7Scgz4JGiiuUE0zW/Bi8lPFXHOp0ksa8U
jbFPhVzM4Os9oemH/cb+pHpUViL94QRR3zVdiwZU+3EQpkjnqwmdvzOalrtgFuUV
/AHU/NDJ8aJn+osaUuqrCrA8jWvtirVxM8+najCKOpEJXSnuoeUGrs3tozwhy8c2
/li4Ygftbh1tcpV9CZoCIqnQoPrSIKZ/ZUTS7BbLHmihRLZAU1xu1YJ8SW3KJmB9
2XXD27b8a91WTOtK3OmUkPApJq0J7Z3CQKu6YPhrjLFuiIEOsZkKQY5p9/zu2NrC
qOsH1SiOPJRr5cCa1aN0n6wwad7xW9WXV4cQxHS47LhiFtsKc5ypLsBA6lUvkZyh
pE+L5S454G/838ytcW8hs1b0A1LNGJYAG+bWx+32AbvXLwoLHpejFxfXeT7YLMzB
HfqYjKYoana5mkGKcdF2YqjU1HZy79hj70BcuG2zcFw=
-----END CERTIFICATE-----
