Certificate:
    Data:
        Version: 3 (0x2)
        Serial Number: 0 (0x0)
        Signature Algorithm: sha256WithRSAEncryption
        Issuer: C=US, ST=CA, L=Stanford, O=BMIR, OU=CEDAR, CN=metadatacenter.orgx/emailAddress=metadatacenter@gmail.com
        Validity
            Not Before: Jan 18 00:50:44 2024 GMT
            Not After : Apr 21 00:50:44 2026 GMT
        Subject: C=US, ST=CA, O=BMIR, OU=CEDAR, CN=.metadatacenter.orgx/emailAddress=metadatacenter@gmail.com
        Subject Public Key Info:
            Public Key Algorithm: rsaEncryption
                RSA Public-Key: (2048 bit)
                Modulus:
                    00:e2:d2:20:c4:35:54:1d:39:52:81:99:d8:87:07:
                    6f:9f:15:ec:d5:d9:79:d8:5a:f3:3c:51:56:4f:7e:
                    af:84:c1:f1:4a:d1:ab:ec:95:1f:9d:ae:75:01:7b:
                    ed:a2:a1:c7:49:61:fe:9b:58:99:5b:1a:b0:0f:37:
                    da:34:b2:18:3a:12:17:6f:af:77:74:bc:ac:9b:d1:
                    12:63:73:1e:57:cf:57:0f:06:90:be:07:e8:83:ad:
                    8e:1c:4a:8b:50:71:9c:6d:bf:e0:3c:7a:31:d2:74:
                    17:13:b8:a7:f8:3c:8a:c4:4f:20:f0:7c:8f:3a:9b:
                    22:b8:7a:a7:a0:79:30:54:d7:94:71:51:97:f8:2c:
                    82:9e:52:d0:3c:93:97:f9:21:a1:90:46:1c:70:5d:
                    1c:c3:7d:08:25:3f:a0:51:5c:e4:7d:1a:fd:2b:f6:
                    c2:ba:ff:bf:4a:a9:af:86:e4:e7:49:1a:08:2c:83:
                    36:52:f4:e4:7d:28:64:8d:0d:3a:67:75:d5:a0:7e:
                    65:7c:3c:1b:e2:bf:c9:2e:3a:35:8e:92:3b:34:4f:
                    ff:90:fd:04:b3:64:15:bd:15:88:a4:2f:db:51:69:
                    f0:a1:80:64:25:60:7f:ed:9c:c6:86:4a:13:03:d5:
                    f0:d0:7d:da:e9:73:4e:f6:e0:10:49:3e:28:01:65:
                    47:97
                Exponent: 65537 (0x10001)
        X509v3 extensions:
            X509v3 Basic Constraints: 
                CA:FALSE
            X509v3 Key Usage: 
                Digital Signature, Non Repudiation, Key Encipherment
            X509v3 Subject Alternative Name: 
                DNS:.metadatacenter.orgx
    Signature Algorithm: sha256WithRSAEncryption
         0f:98:bf:d8:5d:2d:c7:52:5a:98:3a:da:9e:27:53:bb:f5:94:
         58:21:64:bf:07:77:1d:8b:7f:40:79:ce:a7:d7:dd:c8:38:b7:
         e8:1d:1c:dd:c6:36:59:a0:b4:6d:fd:fa:d7:94:fc:2b:39:30:
         cf:c8:06:c1:dd:dd:36:07:7f:c6:5f:d6:cd:18:f7:5a:2e:c0:
         a0:9f:93:51:0f:d3:6d:da:dc:90:1f:29:ca:10:bf:a1:df:10:
         ae:8a:75:15:04:9c:95:e7:2e:12:0d:d1:5f:8e:15:a2:d6:5f:
         7e:eb:7a:00:f7:55:bc:fd:4c:b6:1a:f1:1a:cc:a5:ba:47:74:
         14:26:df:af:64:6d:3e:94:67:0e:32:cf:e1:2a:a2:15:3b:38:
         7e:c2:26:97:e7:1f:27:5f:06:72:57:04:33:82:c3:2d:5a:b8:
         fc:92:00:94:14:3b:5c:b4:22:98:99:96:24:a2:bc:21:6e:77:
         1f:76:d6:ab:2c:fb:ad:1d:e4:17:b6:d8:13:ec:10:75:6e:c6:
         3c:33:b9:a4:8e:8b:a5:64:45:33:6a:83:e4:29:d8:83:c2:40:
         ef:4b:d1:c9:82:0e:77:2f:f7:c6:eb:50:73:10:f1:12:36:18:
         9a:f5:a4:2d:3c:4e:cf:ae:ce:c9:8f:67:b2:f7:dc:bd:de:f8:
         0c:e3:df:f5:1b:3d:76:d0:b2:ef:9d:49:ad:2f:2a:ba:aa:3d:
         65:e1:45:00:a1:26:5a:ef:47:20:dd:6a:f2:8c:cf:40:7e:c2:
         f6:0b:70:69:47:5f:2b:d3:eb:8b:6b:78:fa:18:b1:d0:37:bc:
         65:59:27:2e:80:cb:69:24:df:bb:ad:5e:71:79:6e:f7:cf:90:
         32:fb:39:17:be:b6:4d:a8:bd:f7:7f:19:07:ec:e1:a9:de:d5:
         52:01:2d:06:d3:f2:57:fa:f7:4c:1c:ca:15:14:fb:81:f2:49:
         e9:01:c5:43:f7:34:9f:bc:f8:cd:09:4a:97:49:59:49:2a:4d:
         86:16:e6:7b:8c:9c:8f:e0:3c:07:e6:28:31:2d:21:b2:09:49:
         0d:d2:ef:8a:24:ba:43:31:47:a1:c1:b8:19:b1:9f:04:f0:1f:
         e3:11:cf:35:d8:03:2a:f4:6e:d6:39:08:e4:06:8c:4b:e2:75:
         b5:ca:ab:d4:b0:ba:39:d5:96:06:5f:ba:31:c2:92:48:d2:1c:
         1e:5e:f3:4f:31:a5:25:e8:91:13:00:8d:7e:ee:aa:34:81:b1:
         72:8e:51:83:b2:5b:37:9e:57:74:bd:09:f0:ea:e3:53:53:72:
         81:e4:98:29:1e:fb:06:33:dd:e2:68:07:0a:03:97:c6:7a:51:
         d6:6d:01:e0:7a:43:9e:88
-----BEGIN CERTIFICATE-----
MIIEzDCCArSgAwIBAgIBADANBgkqhkiG9w0BAQsFADCBkzELMAkGA1UEBhMCVVMx
CzAJBgNVBAgMAkNBMREwDwYDVQQHDAhTdGFuZm9yZDENMAsGA1UECgwEQk1JUjEO
MAwGA1UECwwFQ0VEQVIxHDAaBgNVBAMME21ldGFkYXRhY2VudGVyLm9yZ3gxJzAl
BgkqhkiG9w0BCQEWGG1ldGFkYXRhY2VudGVyQGdtYWlsLmNvbTAeFw0yNDAxMTgw
MDUwNDRaFw0yNjA0MjEwMDUwNDRaMIGBMQswCQYDVQQGEwJVUzELMAkGA1UECAwC
Q0ExDTALBgNVBAoMBEJNSVIxDjAMBgNVBAsMBUNFREFSMR0wGwYDVQQDDBQubWV0
YWRhdGFjZW50ZXIub3JneDEnMCUGCSqGSIb3DQEJARYYbWV0YWRhdGFjZW50ZXJA
Z21haWwuY29tMIIBIjANBgkqhkiG9w0BAQEFAAOCAQ8AMIIBCgKCAQEA4tIgxDVU
HTlSgZnYhwdvnxXs1dl52FrzPFFWT36vhMHxStGr7JUfna51AXvtoqHHSWH+m1iZ
WxqwDzfaNLIYOhIXb693dLysm9ESY3MeV89XDwaQvgfog62OHEqLUHGcbb/gPHox
0nQXE7in+DyKxE8g8HyPOpsiuHqnoHkwVNeUcVGX+CyCnlLQPJOX+SGhkEYccF0c
w30IJT+gUVzkfRr9K/bCuv+/SqmvhuTnSRoILIM2UvTkfShkjQ06Z3XVoH5lfDwb
4r/JLjo1jpI7NE//kP0Es2QVvRWIpC/bUWnwoYBkJWB/7ZzGhkoTA9Xw0H3a6XNO
9uAQST4oAWVHlwIDAQABozswOTAJBgNVHRMEAjAAMAsGA1UdDwQEAwIF4DAfBgNV
HREEGDAWghQubWV0YWRhdGFjZW50ZXIub3JneDANBgkqhkiG9w0BAQsFAAOCAgEA
D5i/2F0tx1JamDranidTu/WUWCFkvwd3HYt/QHnOp9fdyDi36B0c3cY2WaC0bf36
15T8Kzkwz8gGwd3dNgd/xl/WzRj3Wi7AoJ+TUQ/TbdrckB8pyhC/od8Qrop1FQSc
lecuEg3RX44VotZffut6APdVvP1MthrxGsylukd0FCbfr2RtPpRnDjLP4SqiFTs4
fsIml+cfJ18GclcEM4LDLVq4/JIAlBQ7XLQimJmWJKK8IW53H3bWqyz7rR3kF7bY
E+wQdW7GPDO5pI6LpWRFM2qD5CnYg8JA70vRyYIOdy/3xutQcxDxEjYYmvWkLTxO
z67OyY9nsvfcvd74DOPf9Rs9dtCy751JrS8quqo9ZeFFAKEmWu9HIN1q8ozPQH7C
9gtwaUdfK9Pri2t4+hix0De8ZVknLoDLaSTfu61ecXlu98+QMvs5F762Tai9938Z
B+zhqd7VUgEtBtPyV/r3TBzKFRT7gfJJ6QHFQ/c0n7z4zQlKl0lZSSpNhhbme4yc
j+A8B+YoMS0hsglJDdLviiS6QzFHocG4GbGfBPAf4xHPNdgDKvRu1jkI5AaMS+J1
tcqr1LC6OdWWBl+6McKSSNIcHl7zTzGlJeiREwCNfu6qNIGxco5Rg7JbN55XdL0J
8OrjU1NygeSYKR77BjPd4mgHCgOXxnpR1m0B4HpDnog=
-----END CERTIFICATE-----
