Certificate:
    Data:
        Version: 3 (0x2)
        Serial Number: 2 (0x2)
        Signature Algorithm: sha256WithRSAEncryption
        Issuer: C=US, ST=CA, L=Stanford, O=BMIR, OU=CEDAR, CN=metadatacenter.orgx/emailAddress=metadatacenter@gmail.com
        Validity
            Not Before: Jan 18 00:50:44 2024 GMT
            Not After : Apr 21 00:50:44 2026 GMT
        Subject: C=US, ST=CA, O=BMIR, OU=CEDAR, CN=artifact.metadatacenter.orgx/emailAddress=metadatacenter@gmail.com
        Subject Public Key Info:
            Public Key Algorithm: rsaEncryption
                RSA Public-Key: (2048 bit)
                Modulus:
                    00:c6:43:5c:ed:14:d3:84:d8:42:e3:29:97:3d:c3:
                    fe:18:52:64:d1:82:18:c4:fc:24:89:e1:09:43:15:
                    3a:76:83:a6:3c:19:83:3e:54:53:8c:f2:d6:5b:39:
                    c3:0d:9f:1c:22:da:c8:3e:6c:ca:ed:98:4c:c9:55:
                    75:56:76:8e:14:74:c5:17:5c:d6:8c:0e:d9:6b:fb:
                    a6:2b:8f:dc:01:d4:96:e2:ce:a2:ba:ee:5f:9c:80:
                    46:e9:f2:a5:e5:a7:1e:b3:61:21:94:f3:0d:ac:cc:
                    a3:c7:c1:f7:d8:ef:32:aa:56:4b:d8:94:8f:61:f5:
                    cc:94:eb:d9:5c:28:88:7a:65:57:23:61:7d:ae:0d:
                    42:ff:cd:13:cd:bf:11:b9:b4:08:30:38:1c:1e:f4:
                    73:81:64:5e:8f:df:1a:82:1c:3a:a5:c0:2a:bc:b5:
                    e8:b2:90:90:6c:c0:69:f9:94:ae:12:5d:9e:ef:ce:
                    ab:ac:d2:1d:eb:ae:ab:95:ef:7f:5b:25:a9:0f:f9:
                    69:f5:63:13:67:19:d5:91:0c:1c:98:ac:14:2e:2f:
                    98:2e:a2:3c:63:7e:56:a4:55:1b:f0:78:c7:f7:cf:
                    2d:62:e6:9d:1b:ff:cc:a7:da:55:1f:37:ae:9c:2f:
                    dc:de:71:a6:01:6e:90:50:dc:23:5d:56:bd:d1:e5:
                    59:d1
                Exponent: 65537 (0x10001)
        X509v3 extensions:
            X509v3 Basic Constraints: 
                CA:FALSE
            X509v3 Key Usage: 
                Digital Signature, Non Repudiation, Key Encipherment
            X509v3 Subject Alternative Name: 
                DNS:artifact.metadatacenter.orgx
    Signature Algorithm: sha256WithRSAEncryption
         26:26:81:91:87:8b:6d:e0:03:e5:c3:28:ad:c8:d3:f1:bd:a6:
         4c:0a:bd:1f:44:20:47:e0:b3:7a:09:21:cb:7e:4d:b6:93:a7:
         7d:e9:5b:ae:81:ed:f5:53:1c:11:2d:9f:6a:1d:5e:d9:8e:05:
         5e:cf:33:21:30:40:72:27:93:2b:71:24:c9:d2:24:a4:e1:32:
         c5:8f:7d:6d:ba:d9:e5:5f:e2:04:52:da:59:8e:03:8f:1f:6e:
         86:89:7d:1a:c4:30:f6:a3:c1:c3:5c:9f:42:c4:c2:6f:16:1d:
         6d:d7:87:a2:07:71:7c:1f:1d:ab:fa:8c:11:8c:7a:62:1b:94:
         3f:a0:63:70:18:b7:36:4c:f2:4b:ba:ba:77:9d:c5:6f:d8:f2:
         7c:b7:27:c2:b7:d8:13:fe:30:6d:ac:67:fb:25:d8:3f:58:c7:
         9d:a4:9f:6d:ab:1e:f9:87:88:36:50:a2:c4:33:a7:4a:46:5e:
         70:a7:61:eb:44:f7:86:46:f6:81:18:2a:3b:7b:e6:0f:8b:bc:
         25:e8:3c:04:6d:c7:8e:93:15:44:2f:9e:ab:0c:39:cf:3b:96:
         36:e5:f7:7e:3a:47:e9:53:0c:66:b1:b2:44:c0:2f:bc:14:eb:
         4b:99:c7:aa:21:00:f8:4e:3d:79:6d:88:74:e4:56:49:31:4c:
         64:79:c0:f8:c2:7b:f6:97:d3:3d:fe:d3:43:76:9d:c5:80:37:
         03:e3:06:28:97:8a:7d:d3:ac:cc:c6:5c:7a:18:53:6c:39:a5:
         74:64:70:8f:e1:a0:a3:22:f7:29:39:2c:d1:1c:56:01:0c:ea:
         ec:5a:ad:30:81:71:51:1a:81:43:c4:20:ca:a9:65:de:0b:83:
         28:be:24:41:1b:2c:5b:76:a0:94:d2:83:33:de:07:fb:38:eb:
         13:cc:86:8c:22:4a:03:85:12:7c:08:33:62:fb:63:5a:40:31:
         ba:89:18:2e:6e:fd:94:73:b2:55:ed:9a:89:1d:d7:94:0d:26:
         53:1f:8e:34:1d:db:b3:88:ca:ac:d4:d0:2e:56:96:2f:d1:fd:
         9c:a3:8c:3d:a0:1b:29:ff:e5:d0:5d:22:ce:23:74:56:3f:b6:
         13:cf:bb:67:04:89:63:2c:17:05:19:79:68:18:a2:81:88:1d:
         58:f4:c6:a9:5d:ef:58:33:56:ef:7f:80:a9:d4:3f:e3:c7:d1:
         8f:2b:ba:43:c0:24:2a:8c:42:66:88:f0:f0:ff:d3:34:3d:93:
         06:29:b9:94:89:72:07:f9:24:aa:32:b1:7b:63:f9:cd:d9:bf:
         2b:7c:1a:2c:f0:16:27:2a:63:41:ae:6d:a1:c0:f1:25:e6:06:
         f1:4e:08:a1:84:58:88:30
-----BEGIN CERTIFICATE-----
MIIE3DCCAsSgAwIBAgIBAjANBgkqhkiG9w0BAQsFADCBkzELMAkGA1UEBhMCVVMx
CzAJBgNVBAgMAkNBMREwDwYDVQQHDAhTdGFuZm9yZDENMAsGA1UECgwEQk1JUjEO
MAwGA1UECwwFQ0VEQVIxHDAaBgNVBAMME21ldGFkYXRhY2VudGVyLm9yZ3gxJzAl
BgkqhkiG9w0BCQEWGG1ldGFkYXRhY2VudGVyQGdtYWlsLmNvbTAeFw0yNDAxMTgw
MDUwNDRaFw0yNjA0MjEwMDUwNDRaMIGJMQswCQYDVQQGEwJVUzELMAkGA1UECAwC
Q0ExDTALBgNVBAoMBEJNSVIxDjAMBgNVBAsMBUNFREFSMSUwIwYDVQQDDBxhcnRp
ZmFjdC5tZXRhZGF0YWNlbnRlci5vcmd4MScwJQYJKoZIhvcNAQkBFhhtZXRhZGF0
YWNlbnRlckBnbWFpbC5jb20wggEiMA0GCSqGSIb3DQEBAQUAA4IBDwAwggEKAoIB
AQDGQ1ztFNOE2ELjKZc9w/4YUmTRghjE/CSJ4QlDFTp2g6Y8GYM+VFOM8tZbOcMN
nxwi2sg+bMrtmEzJVXVWdo4UdMUXXNaMDtlr+6Yrj9wB1JbizqK67l+cgEbp8qXl
px6zYSGU8w2szKPHwffY7zKqVkvYlI9h9cyU69lcKIh6ZVcjYX2uDUL/zRPNvxG5
tAgwOBwe9HOBZF6P3xqCHDqlwCq8teiykJBswGn5lK4SXZ7vzqus0h3rrquV739b
JakP+Wn1YxNnGdWRDByYrBQuL5guojxjflakVRvweMf3zy1i5p0b/8yn2lUfN66c
L9zecaYBbpBQ3CNdVr3R5VnRAgMBAAGjQzBBMAkGA1UdEwQCMAAwCwYDVR0PBAQD
AgXgMCcGA1UdEQQgMB6CHGFydGlmYWN0Lm1ldGFkYXRhY2VudGVyLm9yZ3gwDQYJ
KoZIhvcNAQELBQADggIBACYmgZGHi23gA+XDKK3I0/G9pkwKvR9EIEfgs3oJIct+
TbaTp33pW66B7fVTHBEtn2odXtmOBV7PMyEwQHInkytxJMnSJKThMsWPfW262eVf
4gRS2lmOA48fboaJfRrEMPajwcNcn0LEwm8WHW3Xh6IHcXwfHav6jBGMemIblD+g
Y3AYtzZM8ku6unedxW/Y8ny3J8K32BP+MG2sZ/sl2D9Yx52kn22rHvmHiDZQosQz
p0pGXnCnYetE94ZG9oEYKjt75g+LvCXoPARtx46TFUQvnqsMOc87ljbl9346R+lT
DGaxskTAL7wU60uZx6ohAPhOPXltiHTkVkkxTGR5wPjCe/aX0z3+00N2ncWANwPj
BiiXin3TrMzGXHoYU2w5pXRkcI/hoKMi9yk5LNEcVgEM6uxarTCBcVEagUPEIMqp
Zd4Lgyi+JEEbLFt2oJTSgzPeB/s46xPMhowiSgOFEnwIM2L7Y1pAMbqJGC5u/ZRz
slXtmokd15QNJlMfjjQd27OIyqzU0C5Wli/R/ZyjjD2gGyn/5dBdIs4jdFY/thPP
u2cEiWMsFwUZeWgYooGIHVj0xqld71gzVu9/gKnUP+PH0Y8rukPAJCqMQmaI8PD/
0zQ9kwYpuZSJcgf5JKoysXtj+c3Zvyt8GizwFicqY0GubaHA8SXmBvFOCKGEWIgw
-----END CERTIFICATE-----
