Certificate:
    Data:
        Version: 3 (0x2)
        Serial Number: 2 (0x2)
        Signature Algorithm: sha256WithRSAEncryption
        Issuer: C=US, ST=CA, L=Stanford, O=BMIR, OU=CEDAR, CN=metadatacenter.orgx/emailAddress=metadatacenter@gmail.com
        Validity
            Not Before: Jan 17 21:50:43 2024 GMT
            Not After : Apr 20 21:50:43 2026 GMT
        Subject: C=US, ST=CA, O=BMIR, OU=CEDAR, CN=artifact.metadatacenter.orgx/emailAddress=metadatacenter@gmail.com
        Subject Public Key Info:
            Public Key Algorithm: rsaEncryption
                RSA Public-Key: (2048 bit)
                Modulus:
                    00:e2:ee:83:fd:9a:8a:a4:de:6c:55:9d:0f:d2:ed:
                    a4:58:0f:9c:bf:a6:79:5b:ed:03:b7:b3:18:71:53:
                    b1:19:8d:cf:86:e5:82:89:7b:6a:e5:25:9e:9e:c2:
                    e8:f3:8f:94:41:a4:a2:73:7f:0c:50:5a:80:5d:a9:
                    36:81:a5:7d:b7:72:2e:4a:66:21:8c:69:7b:2e:c8:
                    b4:4e:7a:cf:fc:fd:f4:6b:28:4e:8d:16:d2:90:e0:
                    0b:c0:a3:c7:bd:db:8b:0d:c0:a5:37:a9:0e:2c:63:
                    e9:41:70:69:36:5a:5c:ab:3b:45:d5:3f:d3:2f:23:
                    3a:0a:16:33:07:12:81:e9:07:d9:d2:d5:4d:b3:ca:
                    86:ea:c4:c7:55:32:97:4b:f3:cc:3f:0e:b9:44:b3:
                    ef:90:df:39:e9:da:e3:aa:d1:97:d2:8a:2c:e0:2f:
                    0e:00:25:07:50:ed:6d:26:8e:a4:40:fc:ac:51:39:
                    94:9b:9a:aa:e0:9d:8c:8c:71:17:82:46:34:4d:60:
                    b4:31:60:b5:71:30:af:09:9e:20:11:73:a1:3c:15:
                    69:ae:a9:52:54:5a:4e:8c:3b:20:ef:48:48:ac:7e:
                    8b:5d:0c:a1:83:d5:39:9f:e6:17:d6:63:af:ed:6d:
                    56:f5:1d:92:04:26:26:cc:1b:fc:0b:13:19:5e:ae:
                    b8:a1
                Exponent: 65537 (0x10001)
        X509v3 extensions:
            X509v3 Basic Constraints: 
                CA:FALSE
            X509v3 Key Usage: 
                Digital Signature, Non Repudiation, Key Encipherment
            X509v3 Subject Alternative Name: 
                DNS:artifact.metadatacenter.orgx
    Signature Algorithm: sha256WithRSAEncryption
         8c:03:8f:f8:b6:8c:9f:19:b4:ee:e5:5c:c2:5b:f3:96:bc:f4:
         53:12:e2:fb:33:a3:e6:28:9d:40:19:15:47:8f:8f:78:26:09:
         2c:90:46:d5:c9:eb:2f:51:42:41:0f:9d:7c:62:94:8a:e4:ef:
         7c:94:eb:f8:37:07:b2:7a:e4:2e:a8:01:84:ca:85:a2:7c:bf:
         d9:7c:8d:4f:38:fd:82:70:90:dc:f9:65:eb:23:46:7f:db:f6:
         40:0e:06:b1:9e:90:ac:bc:86:5f:f4:ce:1a:97:bb:dc:c0:8b:
         38:23:16:35:6f:65:d9:7d:f0:81:32:e1:f7:89:a0:cb:1f:25:
         02:90:83:65:00:2c:4f:da:2d:2f:9b:ff:be:26:1e:24:dd:73:
         16:0e:e9:d5:6d:12:4f:2e:c3:ad:4c:ba:49:84:7c:99:32:c6:
         27:c2:5d:9f:13:bb:39:f4:89:3f:2c:76:3a:08:e8:68:a2:e3:
         a2:a8:7f:1d:b2:9d:9f:10:a1:c5:73:5f:c6:b5:56:cb:93:40:
         a1:6e:89:29:fb:0d:40:03:6b:0b:fb:ec:99:90:e5:c3:b4:95:
         f3:65:96:e5:50:2f:61:be:ea:8b:9e:d6:33:4f:79:d4:6a:d1:
         4b:54:54:25:e6:d2:37:e1:af:ec:64:6c:15:34:1b:45:fb:bf:
         60:27:55:97:79:10:90:3b:76:7b:6f:0a:33:40:35:c5:93:e6:
         da:92:2f:05:5c:7f:fa:14:c2:09:99:61:7e:87:e8:26:79:bc:
         55:e3:a1:f0:c2:69:ac:4c:92:63:23:11:a6:16:27:01:ee:5a:
         36:28:8c:53:5f:1a:4b:2f:0f:78:9b:de:13:75:84:7c:d2:eb:
         54:b2:03:70:75:51:dc:2b:0d:52:5c:99:1d:73:57:6a:d8:37:
         d3:9b:b9:8e:82:c9:bd:32:49:0f:54:b5:63:d8:1f:c1:80:b0:
         56:21:c4:8a:14:e4:e5:27:84:8f:76:2d:e0:4e:6a:09:8d:c4:
         1d:c8:64:16:1a:10:03:54:ba:f8:5f:9a:71:5a:45:fe:c3:08:
         55:2f:53:a9:78:1b:b6:ea:a8:27:d9:ef:44:79:0d:5d:99:f9:
         5f:13:8f:3d:b2:e0:09:7b:bd:0c:fb:e6:82:12:28:2e:28:7d:
         85:8a:c5:f2:9d:76:fe:86:15:cb:bb:9d:88:03:fb:92:fd:96:
         15:ce:16:b2:17:87:84:ec:64:3e:d5:6e:8e:98:03:33:70:4c:
         b1:b7:14:88:0a:74:ac:17:c0:26:64:a2:88:10:95:90:50:76:
         2f:c1:c5:47:58:8a:2b:c0:cf:45:83:1d:e9:40:b4:e9:7d:bf:
         2f:d3:01:f0:0d:65:b7:0b
-----BEGIN CERTIFICATE-----
MIIE3DCCAsSgAwIBAgIBAjANBgkqhkiG9w0BAQsFADCBkzELMAkGA1UEBhMCVVMx
CzAJBgNVBAgMAkNBMREwDwYDVQQHDAhTdGFuZm9yZDENMAsGA1UECgwEQk1JUjEO
MAwGA1UECwwFQ0VEQVIxHDAaBgNVBAMME21ldGFkYXRhY2VudGVyLm9yZ3gxJzAl
BgkqhkiG9w0BCQEWGG1ldGFkYXRhY2VudGVyQGdtYWlsLmNvbTAeFw0yNDAxMTcy
MTUwNDNaFw0yNjA0MjAyMTUwNDNaMIGJMQswCQYDVQQGEwJVUzELMAkGA1UECAwC
Q0ExDTALBgNVBAoMBEJNSVIxDjAMBgNVBAsMBUNFREFSMSUwIwYDVQQDDBxhcnRp
ZmFjdC5tZXRhZGF0YWNlbnRlci5vcmd4MScwJQYJKoZIhvcNAQkBFhhtZXRhZGF0
YWNlbnRlckBnbWFpbC5jb20wggEiMA0GCSqGSIb3DQEBAQUAA4IBDwAwggEKAoIB
AQDi7oP9moqk3mxVnQ/S7aRYD5y/pnlb7QO3sxhxU7EZjc+G5YKJe2rlJZ6ewujz
j5RBpKJzfwxQWoBdqTaBpX23ci5KZiGMaXsuyLROes/8/fRrKE6NFtKQ4AvAo8e9
24sNwKU3qQ4sY+lBcGk2WlyrO0XVP9MvIzoKFjMHEoHpB9nS1U2zyobqxMdVMpdL
88w/DrlEs++Q3znp2uOq0ZfSiizgLw4AJQdQ7W0mjqRA/KxROZSbmqrgnYyMcReC
RjRNYLQxYLVxMK8JniARc6E8FWmuqVJUWk6MOyDvSEisfotdDKGD1Tmf5hfWY6/t
bVb1HZIEJibMG/wLExlerrihAgMBAAGjQzBBMAkGA1UdEwQCMAAwCwYDVR0PBAQD
AgXgMCcGA1UdEQQgMB6CHGFydGlmYWN0Lm1ldGFkYXRhY2VudGVyLm9yZ3gwDQYJ
KoZIhvcNAQELBQADggIBAIwDj/i2jJ8ZtO7lXMJb85a89FMS4vszo+YonUAZFUeP
j3gmCSyQRtXJ6y9RQkEPnXxilIrk73yU6/g3B7J65C6oAYTKhaJ8v9l8jU84/YJw
kNz5ZesjRn/b9kAOBrGekKy8hl/0zhqXu9zAizgjFjVvZdl98IEy4feJoMsfJQKQ
g2UALE/aLS+b/74mHiTdcxYO6dVtEk8uw61MukmEfJkyxifCXZ8Tuzn0iT8sdjoI
6Gii46Kofx2ynZ8QocVzX8a1VsuTQKFuiSn7DUADawv77JmQ5cO0lfNlluVQL2G+
6oue1jNPedRq0UtUVCXm0jfhr+xkbBU0G0X7v2AnVZd5EJA7dntvCjNANcWT5tqS
LwVcf/oUwgmZYX6H6CZ5vFXjofDCaaxMkmMjEaYWJwHuWjYojFNfGksvD3ib3hN1
hHzS61SyA3B1UdwrDVJcmR1zV2rYN9ObuY6Cyb0ySQ9UtWPYH8GAsFYhxIoU5OUn
hI92LeBOagmNxB3IZBYaEANUuvhfmnFaRf7DCFUvU6l4G7bqqCfZ70R5DV2Z+V8T
jz2y4Al7vQz75oISKC4ofYWKxfKddv6GFcu7nYgD+5L9lhXOFrIXh4TsZD7Vbo6Y
AzNwTLG3FIgKdKwXwCZkoogQlZBQdi/BxUdYiivAz0WDHelAtOl9vy/TAfANZbcL
-----END CERTIFICATE-----
