Certificate:
    Data:
        Version: 3 (0x2)
        Serial Number: 15 (0xf)
        Signature Algorithm: sha256WithRSAEncryption
        Issuer: C=US, ST=CA, L=Stanford, O=BMIR, OU=CEDAR, CN=metadatacenter.orgx/emailAddress=metadatacenter@gmail.com
        Validity
            Not Before: Jan 17 21:50:44 2024 GMT
            Not After : Apr 20 21:50:44 2026 GMT
        Subject: C=US, ST=CA, O=BMIR, OU=CEDAR, CN=valuerecommender.metadatacenter.orgx/emailAddress=metadatacenter@gmail.com
        Subject Public Key Info:
            Public Key Algorithm: rsaEncryption
                RSA Public-Key: (2048 bit)
                Modulus:
                    00:d0:a1:24:82:92:3e:ad:58:ab:46:1a:6f:75:a5:
                    93:b8:ef:bd:ae:d5:99:37:45:74:b0:98:19:c6:9b:
                    74:94:06:64:a0:39:8a:7d:e8:29:c9:36:63:32:b5:
                    2a:03:f4:b8:42:78:d9:ff:a3:47:e1:0e:76:98:f2:
                    b0:07:73:e6:8e:93:63:59:4c:79:30:4b:72:84:86:
                    4b:88:7c:42:1d:95:f4:0c:1b:83:c6:d1:db:b6:bc:
                    ac:00:a8:4a:93:3f:e5:06:ed:ab:cd:0d:99:e7:90:
                    42:96:90:37:62:55:c4:93:33:e1:a4:96:bc:c9:53:
                    13:29:d4:b7:be:19:5e:19:bf:ae:05:4a:78:9f:c3:
                    d9:a5:91:ad:59:64:51:26:79:eb:80:c7:67:6c:f1:
                    14:18:83:d3:75:a1:bf:55:85:fd:63:89:4d:16:f0:
                    1f:f7:a0:6a:25:99:f5:a2:70:9e:70:ec:7e:f0:49:
                    87:b6:a5:14:e1:74:b1:82:bd:ee:8f:a6:c9:fb:63:
                    1d:12:cc:52:a6:3a:bb:1d:aa:dd:db:52:13:54:1b:
                    85:4b:ef:be:dd:9e:b7:7e:f2:5c:59:55:ed:37:ef:
                    c4:c0:ab:24:74:7e:4b:44:4d:e7:1a:00:e2:38:35:
                    1d:84:ca:0b:56:66:06:a9:cf:d6:83:1f:ac:54:cf:
                    9c:6f
                Exponent: 65537 (0x10001)
        X509v3 extensions:
            X509v3 Basic Constraints: 
                CA:FALSE
            X509v3 Key Usage: 
                Digital Signature, Non Repudiation, Key Encipherment
            X509v3 Subject Alternative Name: 
                DNS:valuerecommender.metadatacenter.orgx
    Signature Algorithm: sha256WithRSAEncryption
         20:5f:59:bb:f6:5d:4a:22:2b:5e:1a:17:81:b8:c8:e8:72:6f:
         c9:5f:60:a5:f1:80:8a:4d:c0:4a:63:39:45:aa:00:21:da:66:
         f2:a4:47:75:25:a1:0a:bf:b4:81:f8:c2:a3:33:58:64:e3:e8:
         d3:b7:1a:9a:8f:b3:a3:35:38:b3:6f:ae:f9:40:c3:78:b8:ac:
         5e:38:5b:bf:c5:12:b6:e6:90:94:40:78:93:83:cd:0f:01:2e:
         4b:43:35:85:e8:e3:b5:d4:d6:ff:60:37:6f:f4:96:41:8f:76:
         63:0f:60:30:8c:4f:31:ea:f8:99:06:1c:4e:92:b9:78:7b:42:
         be:a1:06:4e:b6:d2:97:04:7e:96:b2:e5:62:05:66:5d:87:81:
         06:e9:44:6d:be:05:e2:dd:27:98:d4:5f:9c:ff:f4:4c:73:77:
         10:0c:ee:47:be:81:d3:e8:8f:04:8a:83:16:47:fa:77:b4:93:
         75:6f:83:27:c0:1d:47:40:90:a4:6c:95:dd:bf:52:b2:c6:46:
         ab:1b:62:70:a4:f8:e9:ba:ab:03:b1:43:a9:eb:f0:07:ab:76:
         ec:51:bc:af:b0:db:8b:d2:99:fb:f2:7e:89:43:74:65:20:9d:
         99:3d:ff:bb:dd:0b:4d:d3:00:b4:68:5e:47:90:43:31:e3:9f:
         c5:10:31:08:00:45:da:e5:ae:e2:2c:f7:e5:f7:b9:1b:73:f7:
         aa:f1:db:ea:b2:9d:06:f0:e3:22:a5:e3:38:c6:30:ed:92:fc:
         6b:57:f8:56:95:71:d0:be:4f:74:52:bd:52:6d:6c:c7:d8:86:
         68:c2:22:91:91:62:c9:b3:4f:1d:11:60:35:4c:13:ae:47:4c:
         85:f5:2d:9f:a6:23:cc:86:60:1b:71:8e:42:38:55:de:25:21:
         e2:f6:62:56:27:7c:5e:cd:5a:23:b1:9c:04:16:b4:31:0a:ca:
         c2:11:1b:1f:48:c3:4c:32:5f:47:d3:e0:08:3b:1a:94:8a:c1:
         d1:84:c6:8b:9f:0f:c8:a3:82:a5:15:bf:c2:dc:cd:63:35:0d:
         ef:0b:e0:2f:dc:4c:7d:97:7b:81:cc:c9:2c:8c:ea:01:94:18:
         99:8f:5f:37:97:3c:1a:77:c9:66:0f:34:e6:ba:4e:70:56:e4:
         6f:14:a4:25:4b:72:54:9d:3d:cd:93:24:1f:1b:b9:bd:d3:20:
         dd:2a:15:e8:c0:fb:fd:0b:5a:56:52:4e:e4:62:fe:8b:d2:f1:
         ca:fc:8f:4b:1e:40:0e:a9:2b:e3:36:7c:67:f2:3c:26:8f:fc:
         4e:d9:71:a3:3d:19:90:77:f5:fc:8a:ee:ec:34:18:9d:f9:bd:
         2d:ba:f2:21:d8:c5:b0:98
-----BEGIN CERTIFICATE-----
MIIE7DCCAtSgAwIBAgIBDzANBgkqhkiG9w0BAQsFADCBkzELMAkGA1UEBhMCVVMx
CzAJBgNVBAgMAkNBMREwDwYDVQQHDAhTdGFuZm9yZDENMAsGA1UECgwEQk1JUjEO
MAwGA1UECwwFQ0VEQVIxHDAaBgNVBAMME21ldGFkYXRhY2VudGVyLm9yZ3gxJzAl
BgkqhkiG9w0BCQEWGG1ldGFkYXRhY2VudGVyQGdtYWlsLmNvbTAeFw0yNDAxMTcy
MTUwNDRaFw0yNjA0MjAyMTUwNDRaMIGRMQswCQYDVQQGEwJVUzELMAkGA1UECAwC
Q0ExDTALBgNVBAoMBEJNSVIxDjAMBgNVBAsMBUNFREFSMS0wKwYDVQQDDCR2YWx1
ZXJlY29tbWVuZGVyLm1ldGFkYXRhY2VudGVyLm9yZ3gxJzAlBgkqhkiG9w0BCQEW
GG1ldGFkYXRhY2VudGVyQGdtYWlsLmNvbTCCASIwDQYJKoZIhvcNAQEBBQADggEP
ADCCAQoCggEBANChJIKSPq1Yq0Yab3Wlk7jvva7VmTdFdLCYGcabdJQGZKA5in3o
Kck2YzK1KgP0uEJ42f+jR+EOdpjysAdz5o6TY1lMeTBLcoSGS4h8Qh2V9Awbg8bR
27a8rACoSpM/5Qbtq80NmeeQQpaQN2JVxJMz4aSWvMlTEynUt74ZXhm/rgVKeJ/D
2aWRrVlkUSZ564DHZ2zxFBiD03Whv1WF/WOJTRbwH/egaiWZ9aJwnnDsfvBJh7al
FOF0sYK97o+myftjHRLMUqY6ux2q3dtSE1QbhUvvvt2et37yXFlV7TfvxMCrJHR+
S0RN5xoA4jg1HYTKC1ZmBqnP1oMfrFTPnG8CAwEAAaNLMEkwCQYDVR0TBAIwADAL
BgNVHQ8EBAMCBeAwLwYDVR0RBCgwJoIkdmFsdWVyZWNvbW1lbmRlci5tZXRhZGF0
YWNlbnRlci5vcmd4MA0GCSqGSIb3DQEBCwUAA4ICAQAgX1m79l1KIiteGheBuMjo
cm/JX2Cl8YCKTcBKYzlFqgAh2mbypEd1JaEKv7SB+MKjM1hk4+jTtxqaj7OjNTiz
b675QMN4uKxeOFu/xRK25pCUQHiTg80PAS5LQzWF6OO11Nb/YDdv9JZBj3ZjD2Aw
jE8x6viZBhxOkrl4e0K+oQZOttKXBH6WsuViBWZdh4EG6URtvgXi3SeY1F+c//RM
c3cQDO5HvoHT6I8EioMWR/p3tJN1b4MnwB1HQJCkbJXdv1KyxkarG2JwpPjpuqsD
sUOp6/AHq3bsUbyvsNuL0pn78n6JQ3RlIJ2ZPf+73QtN0wC0aF5HkEMx45/FEDEI
AEXa5a7iLPfl97kbc/eq8dvqsp0G8OMipeM4xjDtkvxrV/hWlXHQvk90Ur1SbWzH
2IZowiKRkWLJs08dEWA1TBOuR0yF9S2fpiPMhmAbcY5COFXeJSHi9mJWJ3xezVoj
sZwEFrQxCsrCERsfSMNMMl9H0+AIOxqUisHRhMaLnw/Io4KlFb/C3M1jNQ3vC+Av
3Ex9l3uBzMksjOoBlBiZj183lzwad8lmDzTmuk5wVuRvFKQlS3JUnT3NkyQfG7m9
0yDdKhXowPv9C1pWUk7kYv6L0vHK/I9LHkAOqSvjNnxn8jwmj/xO2XGjPRmQd/X8
iu7sNBid+b0tuvIh2MWwmA==
-----END CERTIFICATE-----
