Certificate:
    Data:
        Version: 3 (0x2)
        Serial Number: 19 (0x13)
        Signature Algorithm: sha256WithRSAEncryption
        Issuer: C=US, ST=CA, L=Stanford, O=BMIR, OU=CEDAR, CN=metadatacenter.orgx/emailAddress=metadatacenter@gmail.com
        Validity
            Not Before: Jan 18 00:50:46 2024 GMT
            Not After : Apr 21 00:50:46 2026 GMT
        Subject: C=US, ST=CA, O=BMIR, OU=CEDAR, CN=content.metadatacenter.orgx/emailAddress=metadatacenter@gmail.com
        Subject Public Key Info:
            Public Key Algorithm: rsaEncryption
                RSA Public-Key: (2048 bit)
                Modulus:
                    00:ae:b7:ec:93:c5:33:0a:f3:1f:98:a9:b1:fc:ad:
                    f6:9c:a4:d9:82:4f:b0:bf:04:56:0e:21:db:0c:63:
                    a6:62:a2:c5:a6:10:76:90:42:29:d8:bc:d1:42:2a:
                    f8:b6:64:50:68:14:66:42:8c:16:96:b1:4c:1d:cf:
                    40:18:44:72:e0:da:33:d5:45:9b:89:7a:c4:ca:07:
                    17:1d:10:3b:55:df:fd:13:08:de:de:cf:17:bf:92:
                    0b:70:8b:9f:87:b8:cf:67:6b:d6:09:e5:76:d4:ff:
                    c7:2b:1a:53:5d:2a:84:e6:0c:be:87:ca:ba:fb:cb:
                    a1:9b:ec:8f:58:de:ca:c4:19:6c:68:1e:34:54:0f:
                    0d:3a:43:9d:64:e3:aa:2c:82:f2:d1:6d:47:e3:4d:
                    06:97:64:57:13:0a:82:88:dc:c8:8b:ff:6b:71:59:
                    77:cc:73:12:50:94:83:15:56:41:3d:c2:de:4e:07:
                    f9:fb:13:80:4a:ac:df:40:dd:c7:8f:c8:39:e0:5d:
                    09:f6:a6:07:44:a8:51:8f:41:b6:20:8f:db:ee:31:
                    a7:84:0e:52:90:93:84:07:4a:b5:e3:69:3b:cd:9e:
                    fc:3c:c9:11:bf:fb:1d:14:6f:f7:ea:c5:29:4b:54:
                    ae:78:68:51:46:0d:14:65:73:56:09:f0:01:52:d3:
                    2a:a5
                Exponent: 65537 (0x10001)
        X509v3 extensions:
            X509v3 Basic Constraints: 
                CA:FALSE
            X509v3 Key Usage: 
                Digital Signature, Non Repudiation, Key Encipherment
            X509v3 Subject Alternative Name: 
                DNS:content.metadatacenter.orgx
    Signature Algorithm: sha256WithRSAEncryption
         1f:05:6c:9d:c1:f1:35:5e:df:7c:c0:5d:6d:4d:2c:f5:08:2a:
         06:6e:ba:33:d3:73:8a:3a:44:78:f6:44:25:bf:b8:d5:9e:dc:
         8e:a5:a4:4c:52:d1:13:1d:ea:7a:40:66:a2:a4:c1:2f:3f:78:
         08:be:99:71:a5:e6:8f:ec:9d:14:79:c9:bc:dd:58:a6:be:b3:
         6b:fd:27:c4:46:3b:f4:63:93:65:46:0b:43:e1:d8:48:2c:5e:
         6b:d4:03:99:5c:9c:9a:ac:46:13:87:f1:96:0d:be:54:91:3b:
         0f:1d:65:fb:4b:53:43:0a:e2:44:89:f2:4f:43:7c:4c:87:e9:
         68:48:b8:33:d0:5a:6b:e5:bf:e8:90:2a:ed:04:02:12:c5:1e:
         1a:57:cc:c4:d2:ed:77:4c:0c:a4:58:23:9e:49:b6:e2:73:51:
         b0:a2:7d:80:90:32:ef:25:bc:25:d0:23:87:dd:ed:bc:0a:62:
         41:fb:3f:81:19:72:86:48:aa:81:27:16:a3:06:72:cc:3b:be:
         56:09:8f:a1:fb:30:66:ee:38:fe:f9:77:b3:ca:bb:bf:bb:d2:
         da:04:27:01:22:bc:12:33:8c:c3:e4:e9:84:20:8b:2e:cf:c0:
         cd:55:45:57:32:7d:21:37:07:37:bf:1b:e8:74:af:d6:13:53:
         3b:b4:b5:4e:80:c3:4e:af:cd:9e:27:f4:db:d3:cf:11:2d:6a:
         9a:77:29:c4:b7:f8:5a:65:ec:16:da:13:3c:c4:4d:32:db:1e:
         f1:3e:9d:8f:4c:4f:d1:6b:ea:5b:85:fd:f2:7f:ba:1d:32:b7:
         7c:62:79:f2:dd:d9:59:63:ab:51:d0:65:72:ca:ae:23:aa:06:
         6a:aa:a6:6e:3a:82:d2:9e:68:33:8f:8e:d0:44:72:5d:d6:27:
         c7:a9:88:11:b6:59:b6:67:41:29:02:ea:3e:0b:e4:e3:bf:4f:
         ac:b1:9a:74:81:27:5c:22:7d:46:fd:b0:59:f8:1d:da:54:a5:
         9b:a8:11:08:1c:d5:9c:44:ce:72:ba:40:82:94:82:08:43:25:
         69:36:14:4b:06:3c:e3:a0:67:38:e1:d0:00:c4:5f:04:db:34:
         6e:a1:60:c9:1c:51:9e:a7:22:76:5c:12:53:fc:e2:4f:b8:12:
         d5:54:0e:bb:68:06:f6:89:41:8b:71:8f:04:e9:e9:05:ed:02:
         b0:68:86:b2:42:2d:6d:a0:d7:a3:d7:31:35:73:5d:40:73:0f:
         66:46:0d:12:27:3f:ab:48:d9:a4:a3:56:e8:6a:d0:f8:0a:ba:
         db:01:33:5d:98:d9:8b:68:ad:e0:77:35:ea:db:ce:64:3c:ca:
         f9:31:b6:2c:ed:a1:4f:4f
-----BEGIN CERTIFICATE-----
MIIE2jCCAsKgAwIBAgIBEzANBgkqhkiG9w0BAQsFADCBkzELMAkGA1UEBhMCVVMx
CzAJBgNVBAgMAkNBMREwDwYDVQQHDAhTdGFuZm9yZDENMAsGA1UECgwEQk1JUjEO
MAwGA1UECwwFQ0VEQVIxHDAaBgNVBAMME21ldGFkYXRhY2VudGVyLm9yZ3gxJzAl
BgkqhkiG9w0BCQEWGG1ldGFkYXRhY2VudGVyQGdtYWlsLmNvbTAeFw0yNDAxMTgw
MDUwNDZaFw0yNjA0MjEwMDUwNDZaMIGIMQswCQYDVQQGEwJVUzELMAkGA1UECAwC
Q0ExDTALBgNVBAoMBEJNSVIxDjAMBgNVBAsMBUNFREFSMSQwIgYDVQQDDBtjb250
ZW50Lm1ldGFkYXRhY2VudGVyLm9yZ3gxJzAlBgkqhkiG9w0BCQEWGG1ldGFkYXRh
Y2VudGVyQGdtYWlsLmNvbTCCASIwDQYJKoZIhvcNAQEBBQADggEPADCCAQoCggEB
AK637JPFMwrzH5ipsfyt9pyk2YJPsL8EVg4h2wxjpmKixaYQdpBCKdi80UIq+LZk
UGgUZkKMFpaxTB3PQBhEcuDaM9VFm4l6xMoHFx0QO1Xf/RMI3t7PF7+SC3CLn4e4
z2dr1gnldtT/xysaU10qhOYMvofKuvvLoZvsj1jeysQZbGgeNFQPDTpDnWTjqiyC
8tFtR+NNBpdkVxMKgojcyIv/a3FZd8xzElCUgxVWQT3C3k4H+fsTgEqs30Ddx4/I
OeBdCfamB0SoUY9BtiCP2+4xp4QOUpCThAdKteNpO82e/DzJEb/7HRRv9+rFKUtU
rnhoUUYNFGVzVgnwAVLTKqUCAwEAAaNCMEAwCQYDVR0TBAIwADALBgNVHQ8EBAMC
BeAwJgYDVR0RBB8wHYIbY29udGVudC5tZXRhZGF0YWNlbnRlci5vcmd4MA0GCSqG
SIb3DQEBCwUAA4ICAQAfBWydwfE1Xt98wF1tTSz1CCoGbroz03OKOkR49kQlv7jV
ntyOpaRMUtETHep6QGaipMEvP3gIvplxpeaP7J0Uecm83VimvrNr/SfERjv0Y5Nl
RgtD4dhILF5r1AOZXJyarEYTh/GWDb5UkTsPHWX7S1NDCuJEifJPQ3xMh+loSLgz
0Fpr5b/okCrtBAISxR4aV8zE0u13TAykWCOeSbbic1Gwon2AkDLvJbwl0COH3e28
CmJB+z+BGXKGSKqBJxajBnLMO75WCY+h+zBm7jj++Xezyru/u9LaBCcBIrwSM4zD
5OmEIIsuz8DNVUVXMn0hNwc3vxvodK/WE1M7tLVOgMNOr82eJ/Tb088RLWqadynE
t/haZewW2hM8xE0y2x7xPp2PTE/Ra+pbhf3yf7odMrd8Ynny3dlZY6tR0GVyyq4j
qgZqqqZuOoLSnmgzj47QRHJd1ifHqYgRtlm2Z0EpAuo+C+Tjv0+ssZp0gSdcIn1G
/bBZ+B3aVKWbqBEIHNWcRM5yukCClIIIQyVpNhRLBjzjoGc44dAAxF8E2zRuoWDJ
HFGepyJ2XBJT/OJPuBLVVA67aAb2iUGLcY8E6ekF7QKwaIayQi1toNej1zE1c11A
cw9mRg0SJz+rSNmko1boatD4CrrbATNdmNmLaK3gdzXq285kPMr5MbYs7aFPTw==
-----END CERTIFICATE-----
