Certificate:
    Data:
        Version: 3 (0x2)
        Serial Number: 7 (0x7)
        Signature Algorithm: sha256WithRSAEncryption
        Issuer: C=US, ST=CA, L=Stanford, O=BMIR, OU=CEDAR, CN=metadatacenter.orgx/emailAddress=metadatacenter@gmail.com
        Validity
            Not Before: Jan 17 21:50:43 2024 GMT
            Not After : Apr 20 21:50:43 2026 GMT
        Subject: C=US, ST=CA, O=BMIR, OU=CEDAR, CN=monitor.metadatacenter.orgx/emailAddress=metadatacenter@gmail.com
        Subject Public Key Info:
            Public Key Algorithm: rsaEncryption
                RSA Public-Key: (2048 bit)
                Modulus:
                    00:bc:9d:9f:be:55:57:c6:68:23:a8:56:b1:4b:7c:
                    e1:b7:7e:bd:99:4c:24:85:c9:03:07:1b:69:b3:f5:
                    b2:8c:68:3f:5d:2e:37:ad:41:66:15:03:58:71:c3:
                    8a:c6:fb:b5:56:71:a4:21:5e:68:04:77:e0:dd:58:
                    6f:eb:da:06:41:fb:5f:b5:d9:c6:60:a5:63:16:7a:
                    05:8d:38:58:4a:c3:a5:14:74:d0:7c:50:a0:07:29:
                    9a:1f:78:98:de:0f:db:24:b8:7f:a9:57:6b:9c:da:
                    98:a3:04:16:34:3f:24:3f:85:85:8a:6e:cb:31:6f:
                    71:b1:f7:b9:0a:0e:37:16:95:18:cb:33:50:09:b8:
                    f9:68:0d:db:50:e4:82:1c:47:33:8f:09:fb:4c:82:
                    12:c0:89:33:44:14:1a:fd:f8:ea:c1:15:1d:78:1c:
                    e4:48:fd:e0:b0:38:03:5f:22:55:28:c3:be:6a:86:
                    b4:3d:c1:c2:2d:c9:d1:55:12:4c:61:23:e7:9f:ab:
                    7c:d6:8e:fe:4d:7f:e5:f8:76:5e:3e:e5:ca:5f:4c:
                    ab:dc:b7:22:fc:08:c5:0f:ac:e2:7c:57:69:c4:93:
                    15:f8:65:c4:af:4f:d5:24:bc:d2:e0:1b:51:6a:ec:
                    83:bc:49:37:ee:07:08:f4:1b:99:15:7d:44:4b:e6:
                    5e:2b
                Exponent: 65537 (0x10001)
        X509v3 extensions:
            X509v3 Basic Constraints: 
                CA:FALSE
            X509v3 Key Usage: 
                Digital Signature, Non Repudiation, Key Encipherment
            X509v3 Subject Alternative Name: 
                DNS:monitor.metadatacenter.orgx
    Signature Algorithm: sha256WithRSAEncryption
         70:62:0d:52:e7:11:b9:25:b2:23:41:d6:66:7d:0b:ff:d8:7b:
         d9:06:ba:f1:f2:c4:54:8c:c5:5a:28:44:19:3b:6d:26:ed:77:
         4a:46:18:e1:17:39:f4:da:b1:5c:81:2c:f8:ed:f1:2f:52:79:
         a9:1d:35:fd:07:a7:5b:95:8d:b5:fd:c1:c7:62:eb:d9:64:c1:
         b3:b2:1d:c1:ef:3e:12:08:27:66:78:3b:cc:02:60:0e:34:cb:
         ec:3b:27:92:31:31:73:ab:84:de:d3:bf:a6:a0:7b:d3:b9:35:
         a5:a7:73:82:b1:47:79:78:77:fd:b6:e2:d7:4c:61:f5:16:30:
         a0:fd:71:fe:7e:f8:ec:43:d9:e0:a8:ee:fa:e6:f1:a9:b4:6a:
         b1:45:18:7f:39:bf:85:58:c8:ab:39:82:9a:b9:5c:e9:bc:ae:
         c5:1a:01:19:fc:d3:24:2c:5e:f7:77:a6:be:9a:77:38:ff:ff:
         5b:ed:e8:ca:8e:fa:ad:d2:de:36:5e:b4:10:82:0e:57:16:30:
         fc:e1:77:22:e8:fd:28:f2:3f:5c:b5:90:37:f2:f8:ba:13:4e:
         05:51:83:a0:3e:bb:26:a4:80:6b:0c:86:cb:71:4b:e4:20:8a:
         a8:ab:6c:e8:ab:5f:7d:f9:06:1b:9b:0e:31:c0:f2:c1:59:b5:
         10:96:85:56:15:fe:a2:9c:15:c1:fd:62:c1:ee:ff:78:53:aa:
         36:8a:60:43:55:cf:99:37:b3:f1:ab:eb:25:68:85:2f:68:c1:
         60:5c:ba:f9:66:67:6b:29:72:7a:27:8c:42:16:7d:3f:af:18:
         9b:db:70:ac:d9:1e:9d:8f:c3:88:5f:88:70:50:3f:5c:b4:5a:
         c3:87:db:9a:f8:fb:02:8c:13:c9:6c:60:2a:f9:5a:66:04:44:
         ea:93:84:ed:ce:eb:39:7e:b8:a5:49:43:03:4a:38:84:92:35:
         d3:94:55:11:54:40:03:e8:7d:8a:ce:f6:49:47:f8:ea:ea:e3:
         ad:f7:c9:d0:3b:be:6f:15:4b:2c:cb:66:9e:5e:56:15:d9:d6:
         22:8b:6d:eb:71:0b:d3:d6:f0:0e:d4:9e:0a:46:42:0e:58:e3:
         6e:19:bd:e2:78:68:ca:8f:29:87:4e:0e:5b:1f:e1:ae:a5:ec:
         f9:f9:55:af:01:97:b7:ee:7b:1a:f5:0e:3f:ff:6e:77:33:5b:
         12:9e:d3:ed:0f:d0:1d:f3:36:17:94:5e:4d:78:84:a0:f5:c6:
         0f:0d:b7:0a:4a:12:5b:14:6f:05:f9:3f:c4:81:2e:51:ca:9a:
         61:b7:ed:d5:9a:09:b1:b7:93:11:09:6e:48:91:e7:7f:57:7e:
         f5:43:61:59:a7:cd:9b:4e
-----BEGIN CERTIFICATE-----
MIIE2jCCAsKgAwIBAgIBBzANBgkqhkiG9w0BAQsFADCBkzELMAkGA1UEBhMCVVMx
CzAJBgNVBAgMAkNBMREwDwYDVQQHDAhTdGFuZm9yZDENMAsGA1UECgwEQk1JUjEO
MAwGA1UECwwFQ0VEQVIxHDAaBgNVBAMME21ldGFkYXRhY2VudGVyLm9yZ3gxJzAl
BgkqhkiG9w0BCQEWGG1ldGFkYXRhY2VudGVyQGdtYWlsLmNvbTAeFw0yNDAxMTcy
MTUwNDNaFw0yNjA0MjAyMTUwNDNaMIGIMQswCQYDVQQGEwJVUzELMAkGA1UECAwC
Q0ExDTALBgNVBAoMBEJNSVIxDjAMBgNVBAsMBUNFREFSMSQwIgYDVQQDDBttb25p
dG9yLm1ldGFkYXRhY2VudGVyLm9yZ3gxJzAlBgkqhkiG9w0BCQEWGG1ldGFkYXRh
Y2VudGVyQGdtYWlsLmNvbTCCASIwDQYJKoZIhvcNAQEBBQADggEPADCCAQoCggEB
ALydn75VV8ZoI6hWsUt84bd+vZlMJIXJAwcbabP1soxoP10uN61BZhUDWHHDisb7
tVZxpCFeaAR34N1Yb+vaBkH7X7XZxmClYxZ6BY04WErDpRR00HxQoAcpmh94mN4P
2yS4f6lXa5zamKMEFjQ/JD+FhYpuyzFvcbH3uQoONxaVGMszUAm4+WgN21DkghxH
M48J+0yCEsCJM0QUGv346sEVHXgc5Ej94LA4A18iVSjDvmqGtD3Bwi3J0VUSTGEj
55+rfNaO/k1/5fh2Xj7lyl9Mq9y3IvwIxQ+s4nxXacSTFfhlxK9P1SS80uAbUWrs
g7xJN+4HCPQbmRV9REvmXisCAwEAAaNCMEAwCQYDVR0TBAIwADALBgNVHQ8EBAMC
BeAwJgYDVR0RBB8wHYIbbW9uaXRvci5tZXRhZGF0YWNlbnRlci5vcmd4MA0GCSqG
SIb3DQEBCwUAA4ICAQBwYg1S5xG5JbIjQdZmfQv/2HvZBrrx8sRUjMVaKEQZO20m
7XdKRhjhFzn02rFcgSz47fEvUnmpHTX9B6dblY21/cHHYuvZZMGzsh3B7z4SCCdm
eDvMAmAONMvsOyeSMTFzq4Te07+moHvTuTWlp3OCsUd5eHf9tuLXTGH1FjCg/XH+
fvjsQ9ngqO765vGptGqxRRh/Ob+FWMirOYKauVzpvK7FGgEZ/NMkLF73d6a+mnc4
//9b7ejKjvqt0t42XrQQgg5XFjD84Xci6P0o8j9ctZA38vi6E04FUYOgPrsmpIBr
DIbLcUvkIIqoq2zoq199+QYbmw4xwPLBWbUQloVWFf6inBXB/WLB7v94U6o2imBD
Vc+ZN7Pxq+slaIUvaMFgXLr5ZmdrKXJ6J4xCFn0/rxib23Cs2R6dj8OIX4hwUD9c
tFrDh9ua+PsCjBPJbGAq+VpmBETqk4Ttzus5frilSUMDSjiEkjXTlFURVEAD6H2K
zvZJR/jq6uOt98nQO75vFUssy2aeXlYV2dYii23rcQvT1vAO1J4KRkIOWONuGb3i
eGjKjymHTg5bH+Gupez5+VWvAZe37nsa9Q4//253M1sSntPtD9Ad8zYXlF5NeISg
9cYPDbcKShJbFG8F+T/EgS5Ryppht+3Vmgmxt5MRCW5Iked/V371Q2FZp82bTg==
-----END CERTIFICATE-----
