Certificate:
    Data:
        Version: 3 (0x2)
        Serial Number: 7 (0x7)
        Signature Algorithm: sha256WithRSAEncryption
        Issuer: C=US, ST=CA, L=Stanford, O=BMIR, OU=CEDAR, CN=metadatacenter.orgx/emailAddress=metadatacenter@gmail.com
        Validity
            Not Before: Jan 18 00:50:45 2024 GMT
            Not After : Apr 21 00:50:45 2026 GMT
        Subject: C=US, ST=CA, O=BMIR, OU=CEDAR, CN=monitor.metadatacenter.orgx/emailAddress=metadatacenter@gmail.com
        Subject Public Key Info:
            Public Key Algorithm: rsaEncryption
                RSA Public-Key: (2048 bit)
                Modulus:
                    00:cc:7e:4c:24:65:1a:cf:9b:28:0d:92:6e:5f:e4:
                    a2:8d:d6:fd:82:f2:32:e1:30:4d:0d:5f:59:28:6b:
                    66:ff:77:17:dc:da:31:10:ca:32:9a:80:6d:e8:1e:
                    0a:2b:76:37:68:ec:6a:26:da:14:2d:d5:e6:e7:f5:
                    d2:8e:a4:23:25:2f:9a:43:ae:06:bb:06:3d:53:1e:
                    d5:bb:94:4f:2b:d7:27:62:f8:1b:5d:2c:bc:69:f4:
                    cb:b9:72:78:aa:f4:c0:bc:74:32:6d:3d:1e:2c:a6:
                    b9:73:d8:58:d2:d6:4b:10:ff:28:c3:de:02:b0:45:
                    af:cd:76:d0:ed:42:1b:9d:0f:34:90:27:bf:53:8b:
                    9e:db:ca:c3:ce:b6:50:89:2e:95:1c:8e:d6:7a:ac:
                    9a:85:ac:e4:7b:af:3f:da:38:dc:c6:e6:80:e9:06:
                    8e:a4:ab:c4:29:29:ed:83:57:47:fc:1b:6b:76:4b:
                    6d:13:e1:2f:98:66:0b:bd:be:7f:7c:00:eb:65:2d:
                    7c:86:1a:ac:13:74:9d:c3:f2:e7:6b:93:ee:56:7c:
                    e2:02:31:70:98:2a:0c:df:3b:7e:3c:18:f8:92:03:
                    9d:3c:a7:a6:81:c7:27:cc:58:49:a8:2e:a0:09:9c:
                    ac:16:f9:17:ae:66:d6:b9:74:6c:80:6a:cc:eb:99:
                    cf:c1
                Exponent: 65537 (0x10001)
        X509v3 extensions:
            X509v3 Basic Constraints: 
                CA:FALSE
            X509v3 Key Usage: 
                Digital Signature, Non Repudiation, Key Encipherment
            X509v3 Subject Alternative Name: 
                DNS:monitor.metadatacenter.orgx
    Signature Algorithm: sha256WithRSAEncryption
         78:a1:6b:7c:6b:2b:1c:22:66:45:45:aa:f3:a3:ab:da:68:57:
         3c:ff:34:87:86:c2:31:44:24:c9:9d:b7:9c:4f:84:2d:af:be:
         c7:c8:5f:55:c5:5b:7d:96:a5:28:f2:4b:f2:1f:49:38:ab:b0:
         a4:d4:03:a4:e2:d9:00:e8:75:8f:d2:8c:99:21:e3:b9:ad:fd:
         60:46:53:69:25:41:bf:15:8a:a7:7f:bf:c5:ce:81:25:b4:72:
         bd:19:2f:00:5e:22:34:88:42:e0:05:9f:e9:c4:79:b7:1a:b5:
         4c:87:ba:48:d9:c5:34:47:75:81:f1:5b:2e:de:f6:a2:da:2a:
         85:bc:90:62:86:e9:b1:a9:08:18:a9:80:06:bb:3d:88:05:56:
         93:06:7c:a1:96:32:2f:68:26:4b:01:5c:0d:59:ad:d1:a2:31:
         63:cf:b1:7f:91:2e:89:be:d4:45:8f:3e:54:94:29:16:0a:45:
         f7:8e:27:25:7e:a6:e5:61:13:23:d8:02:cb:87:d7:a5:2f:3f:
         cf:b5:8e:2a:1f:3e:c4:2e:3a:54:09:14:b9:13:f1:fa:01:62:
         72:e8:48:85:ca:57:63:c0:e3:f4:b1:3f:fa:d9:92:aa:61:30:
         f5:3c:9e:0e:29:6b:e6:3b:3e:1f:6e:41:75:fe:93:57:bb:32:
         56:2b:39:64:34:b8:3b:0b:28:12:f4:a8:c4:44:1e:c8:ed:19:
         bf:7c:0b:17:f9:05:0e:2e:93:74:20:ae:d4:ad:c0:62:7c:0b:
         4a:e7:ec:0c:f8:c1:2a:31:f0:c0:62:42:c0:e4:a4:ae:cd:3f:
         25:1a:e2:c8:61:f4:71:21:4f:f9:9b:9a:76:76:04:48:99:42:
         33:00:11:64:5a:6f:5f:91:ed:e8:cb:12:68:80:22:cf:97:32:
         7d:cb:2e:61:12:e4:2b:12:38:ef:ef:e9:8a:fc:df:df:af:8a:
         6c:d1:54:16:fd:25:f2:81:b4:38:50:76:f4:7b:a6:41:71:99:
         cb:13:e5:f0:93:81:4e:26:a4:32:5b:24:1a:f1:80:03:c3:7a:
         30:00:68:e4:89:49:04:fe:26:d6:b9:a2:27:4d:db:41:cf:c1:
         a8:c2:f9:b9:c1:21:a7:f7:6c:9d:ff:4b:9b:45:c4:05:d7:26:
         94:78:d3:50:2e:78:1e:4e:8c:2c:97:09:31:e4:62:10:2a:22:
         0b:9d:4f:08:12:05:15:c9:dd:83:c4:bf:dd:ff:a0:19:1c:e6:
         c7:22:91:e2:2b:b8:d7:50:7a:77:a7:ec:4a:eb:58:b7:29:ae:
         09:ee:66:46:e2:d1:5a:f2:78:78:69:f9:c5:d2:6d:7e:f7:64:
         1e:5c:f3:f9:1b:08:89:89
-----BEGIN CERTIFICATE-----
MIIE2jCCAsKgAwIBAgIBBzANBgkqhkiG9w0BAQsFADCBkzELMAkGA1UEBhMCVVMx
CzAJBgNVBAgMAkNBMREwDwYDVQQHDAhTdGFuZm9yZDENMAsGA1UECgwEQk1JUjEO
MAwGA1UECwwFQ0VEQVIxHDAaBgNVBAMME21ldGFkYXRhY2VudGVyLm9yZ3gxJzAl
BgkqhkiG9w0BCQEWGG1ldGFkYXRhY2VudGVyQGdtYWlsLmNvbTAeFw0yNDAxMTgw
MDUwNDVaFw0yNjA0MjEwMDUwNDVaMIGIMQswCQYDVQQGEwJVUzELMAkGA1UECAwC
Q0ExDTALBgNVBAoMBEJNSVIxDjAMBgNVBAsMBUNFREFSMSQwIgYDVQQDDBttb25p
dG9yLm1ldGFkYXRhY2VudGVyLm9yZ3gxJzAlBgkqhkiG9w0BCQEWGG1ldGFkYXRh
Y2VudGVyQGdtYWlsLmNvbTCCASIwDQYJKoZIhvcNAQEBBQADggEPADCCAQoCggEB
AMx+TCRlGs+bKA2Sbl/koo3W/YLyMuEwTQ1fWShrZv93F9zaMRDKMpqAbegeCit2
N2jsaibaFC3V5uf10o6kIyUvmkOuBrsGPVMe1buUTyvXJ2L4G10svGn0y7lyeKr0
wLx0Mm09HiymuXPYWNLWSxD/KMPeArBFr8120O1CG50PNJAnv1OLntvKw862UIku
lRyO1nqsmoWs5HuvP9o43MbmgOkGjqSrxCkp7YNXR/wba3ZLbRPhL5hmC72+f3wA
62UtfIYarBN0ncPy52uT7lZ84gIxcJgqDN87fjwY+JIDnTynpoHHJ8xYSaguoAmc
rBb5F65m1rl0bIBqzOuZz8ECAwEAAaNCMEAwCQYDVR0TBAIwADALBgNVHQ8EBAMC
BeAwJgYDVR0RBB8wHYIbbW9uaXRvci5tZXRhZGF0YWNlbnRlci5vcmd4MA0GCSqG
SIb3DQEBCwUAA4ICAQB4oWt8ayscImZFRarzo6vaaFc8/zSHhsIxRCTJnbecT4Qt
r77HyF9VxVt9lqUo8kvyH0k4q7Ck1AOk4tkA6HWP0oyZIeO5rf1gRlNpJUG/FYqn
f7/FzoEltHK9GS8AXiI0iELgBZ/pxHm3GrVMh7pI2cU0R3WB8Vsu3vai2iqFvJBi
humxqQgYqYAGuz2IBVaTBnyhljIvaCZLAVwNWa3RojFjz7F/kS6JvtRFjz5UlCkW
CkX3jiclfqblYRMj2ALLh9elLz/PtY4qHz7ELjpUCRS5E/H6AWJy6EiFyldjwOP0
sT/62ZKqYTD1PJ4OKWvmOz4fbkF1/pNXuzJWKzlkNLg7CygS9KjERB7I7Rm/fAsX
+QUOLpN0IK7UrcBifAtK5+wM+MEqMfDAYkLA5KSuzT8lGuLIYfRxIU/5m5p2dgRI
mUIzABFkWm9fke3oyxJogCLPlzJ9yy5hEuQrEjjv7+mK/N/fr4ps0VQW/SXygbQ4
UHb0e6ZBcZnLE+Xwk4FOJqQyWyQa8YADw3owAGjkiUkE/ibWuaInTdtBz8Gowvm5
wSGn92yd/0ubRcQF1yaUeNNQLngeTowslwkx5GIQKiILnU8IEgUVyd2DxL/d/6AZ
HObHIpHiK7jXUHp3p+xK61i3Ka4J7mZG4tFa8nh4afnF0m1+92QeXPP5GwiJiQ==
-----END CERTIFICATE-----
