Certificate:
    Data:
        Version: 3 (0x2)
        Serial Number: 27 (0x1b)
        Signature Algorithm: sha256WithRSAEncryption
        Issuer: C=US, ST=CA, L=Stanford, O=BMIR, OU=CEDAR, CN=metadatacenter.orgx/emailAddress=metadatacenter@gmail.com
        Validity
            Not Before: Jan 18 00:50:46 2024 GMT
            Not After : Apr 21 00:50:46 2026 GMT
        Subject: C=US, ST=CA, O=BMIR, OU=CEDAR, CN=shared.metadatacenter.orgx/emailAddress=metadatacenter@gmail.com
        Subject Public Key Info:
            Public Key Algorithm: rsaEncryption
                RSA Public-Key: (2048 bit)
                Modulus:
                    00:df:9c:1d:3e:57:10:d0:e0:b1:ee:e4:2d:d8:aa:
                    51:77:71:d1:82:56:bb:31:11:87:a1:23:80:34:81:
                    18:e9:98:65:20:66:d6:3a:42:c7:88:33:67:47:5b:
                    54:0a:b2:9e:05:dd:f4:ba:3b:83:35:a1:ce:48:be:
                    76:c0:18:7f:84:71:9e:e6:9d:2c:39:19:fd:71:bc:
                    96:38:c5:39:d0:0e:24:82:b2:ca:9d:3a:65:39:5a:
                    bc:7f:09:16:82:f6:97:d0:a2:f0:49:b8:93:ae:d6:
                    59:3e:f1:69:ae:16:d2:59:63:df:56:0a:11:5d:bf:
                    cf:64:9c:62:2d:55:38:ac:d3:d3:6c:8c:af:9a:03:
                    09:7d:bf:fc:10:98:81:70:24:d0:25:6a:65:6a:a8:
                    e7:79:6c:a2:a1:61:ca:27:e0:96:21:b4:6b:07:e8:
                    28:da:df:10:ef:19:43:62:eb:18:ae:e0:df:81:63:
                    dd:4a:1f:a8:fb:3d:18:88:66:3d:93:bb:ad:e8:eb:
                    a8:98:55:e3:98:f4:f3:24:53:e0:f4:e0:71:30:b2:
                    77:a7:66:e8:75:c2:fa:9a:96:a7:f6:66:d7:0c:4a:
                    7a:8d:06:25:67:9e:69:0d:63:03:9e:56:e7:72:f8:
                    a5:63:6f:44:7c:5f:bd:42:f9:12:54:e0:7f:2d:b3:
                    f1:9f
                Exponent: 65537 (0x10001)
        X509v3 extensions:
            X509v3 Basic Constraints: 
                CA:FALSE
            X509v3 Key Usage: 
                Digital Signature, Non Repudiation, Key Encipherment
            X509v3 Subject Alternative Name: 
                DNS:shared.metadatacenter.orgx
    Signature Algorithm: sha256WithRSAEncryption
         9b:08:56:68:ac:7a:63:3e:9f:11:1b:a7:17:87:be:e0:ca:c0:
         5a:0f:c8:1e:1b:96:3c:03:92:67:92:1f:e4:d3:f8:80:6b:9c:
         f7:27:31:59:e6:74:a7:55:1e:8f:f7:7d:86:ef:98:c1:d8:1a:
         44:23:2c:b7:fb:d1:3b:5c:c7:4a:1d:a7:26:dd:ac:82:57:b0:
         4b:b3:f9:94:7e:8a:2b:83:9a:cc:48:f9:49:2a:1d:22:75:2b:
         82:a0:09:47:81:96:ee:55:b7:04:10:00:25:7d:cb:9d:43:2f:
         aa:47:e7:e9:98:80:c3:4f:08:e5:89:03:c9:6c:fc:b8:b5:cc:
         ec:97:46:09:49:c4:ae:f2:d0:d7:e7:c0:42:7d:b9:49:2f:77:
         3b:1c:3f:eb:85:d5:75:6b:70:22:ef:19:91:58:68:5a:3a:86:
         a9:ce:ed:e7:09:6d:66:84:b2:7c:46:75:e6:9b:5b:c6:f4:9f:
         5e:2a:3b:85:09:c1:db:0a:69:cd:9d:c2:0b:5e:13:9b:9f:47:
         dd:5b:1d:40:74:86:98:04:17:26:50:24:ad:b7:39:eb:47:1a:
         77:1b:8a:6d:91:23:57:9f:4a:42:23:c5:6c:d9:c9:18:7f:09:
         fc:17:ba:fe:de:c8:60:46:d0:9c:e0:b5:b5:d0:d6:6f:1f:19:
         ab:aa:03:bf:d8:84:62:49:ac:22:c1:c0:98:0f:85:3a:6d:b7:
         9d:47:07:fe:72:6e:4b:f5:50:ac:1b:fa:be:48:90:dd:48:e5:
         b5:fc:36:d5:70:fd:6a:e9:35:d1:c8:d2:38:a7:bb:01:2f:15:
         8b:c0:ce:d1:f2:1c:bb:e1:72:2b:09:98:64:46:2c:2e:e8:5c:
         ad:2a:20:3e:5f:8f:ae:1d:b5:1b:25:f6:ec:9a:9c:fd:9f:3a:
         bf:ae:13:e5:2a:6c:5d:f7:82:d9:6e:63:7b:52:0b:2a:13:8e:
         77:12:24:1e:87:25:a8:a2:1d:d0:96:13:07:bf:ce:93:e9:a1:
         c0:c0:82:dc:fe:29:16:50:08:f2:e2:e5:5e:5a:b0:df:5d:76:
         14:3c:c4:13:77:d0:b2:69:64:85:2c:2e:09:f9:ac:d4:e7:f8:
         6c:29:ba:2e:e4:1b:b2:93:1c:6c:7f:56:b9:76:eb:ec:3c:b4:
         09:6c:3e:d0:c0:cd:e2:a4:71:21:12:1e:1b:8e:ab:7c:df:3d:
         5d:91:69:d9:89:56:1d:8d:62:15:a1:41:36:95:70:41:3e:23:
         ca:a7:8e:e1:d6:fb:b8:75:13:b0:e4:57:74:c7:eb:e3:19:70:
         9f:c3:c8:73:42:e3:4d:02:9b:0b:78:33:a3:86:42:be:ec:a0:
         88:b7:8c:3d:da:34:57:e8
-----BEGIN CERTIFICATE-----
MIIE2DCCAsCgAwIBAgIBGzANBgkqhkiG9w0BAQsFADCBkzELMAkGA1UEBhMCVVMx
CzAJBgNVBAgMAkNBMREwDwYDVQQHDAhTdGFuZm9yZDENMAsGA1UECgwEQk1JUjEO
MAwGA1UECwwFQ0VEQVIxHDAaBgNVBAMME21ldGFkYXRhY2VudGVyLm9yZ3gxJzAl
BgkqhkiG9w0BCQEWGG1ldGFkYXRhY2VudGVyQGdtYWlsLmNvbTAeFw0yNDAxMTgw
MDUwNDZaFw0yNjA0MjEwMDUwNDZaMIGHMQswCQYDVQQGEwJVUzELMAkGA1UECAwC
Q0ExDTALBgNVBAoMBEJNSVIxDjAMBgNVBAsMBUNFREFSMSMwIQYDVQQDDBpzaGFy
ZWQubWV0YWRhdGFjZW50ZXIub3JneDEnMCUGCSqGSIb3DQEJARYYbWV0YWRhdGFj
ZW50ZXJAZ21haWwuY29tMIIBIjANBgkqhkiG9w0BAQEFAAOCAQ8AMIIBCgKCAQEA
35wdPlcQ0OCx7uQt2KpRd3HRgla7MRGHoSOANIEY6ZhlIGbWOkLHiDNnR1tUCrKe
Bd30ujuDNaHOSL52wBh/hHGe5p0sORn9cbyWOMU50A4kgrLKnTplOVq8fwkWgvaX
0KLwSbiTrtZZPvFprhbSWWPfVgoRXb/PZJxiLVU4rNPTbIyvmgMJfb/8EJiBcCTQ
JWplaqjneWyioWHKJ+CWIbRrB+go2t8Q7xlDYusYruDfgWPdSh+o+z0YiGY9k7ut
6OuomFXjmPTzJFPg9OBxMLJ3p2bodcL6mpan9mbXDEp6jQYlZ55pDWMDnlbncvil
Y29EfF+9QvkSVOB/LbPxnwIDAQABo0EwPzAJBgNVHRMEAjAAMAsGA1UdDwQEAwIF
4DAlBgNVHREEHjAcghpzaGFyZWQubWV0YWRhdGFjZW50ZXIub3JneDANBgkqhkiG
9w0BAQsFAAOCAgEAmwhWaKx6Yz6fERunF4e+4MrAWg/IHhuWPAOSZ5If5NP4gGuc
9ycxWeZ0p1Uej/d9hu+YwdgaRCMst/vRO1zHSh2nJt2sglewS7P5lH6KK4OazEj5
SSodInUrgqAJR4GW7lW3BBAAJX3LnUMvqkfn6ZiAw08I5YkDyWz8uLXM7JdGCUnE
rvLQ1+fAQn25SS93Oxw/64XVdWtwIu8ZkVhoWjqGqc7t5wltZoSyfEZ15ptbxvSf
Xio7hQnB2wppzZ3CC14Tm59H3VsdQHSGmAQXJlAkrbc560cadxuKbZEjV59KQiPF
bNnJGH8J/Be6/t7IYEbQnOC1tdDWbx8Zq6oDv9iEYkmsIsHAmA+FOm23nUcH/nJu
S/VQrBv6vkiQ3Ujltfw21XD9auk10cjSOKe7AS8Vi8DO0fIcu+FyKwmYZEYsLuhc
rSogPl+Prh21GyX27Jqc/Z86v64T5SpsXfeC2W5je1ILKhOOdxIkHoclqKId0JYT
B7/Ok+mhwMCC3P4pFlAI8uLlXlqw3112FDzEE3fQsmlkhSwuCfms1Of4bCm6LuQb
spMcbH9WuXbr7Dy0CWw+0MDN4qRxIRIeG46rfN89XZFp2YlWHY1iFaFBNpVwQT4j
yqeO4db7uHUTsORXdMfr4xlwn8PIc0LjTQKbC3gzo4ZCvuygiLeMPdo0V+g=
-----END CERTIFICATE-----
