Certificate:
    Data:
        Version: 3 (0x2)
        Serial Number: 23 (0x17)
        Signature Algorithm: sha256WithRSAEncryption
        Issuer: C=US, ST=CA, L=Stanford, O=BMIR, OU=CEDAR, CN=metadatacenter.orgx/emailAddress=metadatacenter@gmail.com
        Validity
            Not Before: Jan 17 21:50:45 2024 GMT
            Not After : Apr 20 21:50:45 2026 GMT
        Subject: C=US, ST=CA, O=BMIR, OU=CEDAR, CN=demo.cee.metadatacenter.orgx/emailAddress=metadatacenter@gmail.com
        Subject Public Key Info:
            Public Key Algorithm: rsaEncryption
                RSA Public-Key: (2048 bit)
                Modulus:
                    00:9c:33:f7:3f:fa:14:de:6c:91:1d:bf:c5:c3:a8:
                    db:67:8d:8d:6d:6e:11:c0:63:e0:3b:f1:09:e1:b3:
                    4b:9d:8a:ad:8a:01:61:e9:6c:52:da:8e:c2:94:b8:
                    64:bf:2e:10:35:4f:d3:d4:26:2d:d6:92:11:8f:ba:
                    46:11:61:7d:1d:cd:34:68:1f:1c:14:3e:17:71:c5:
                    e5:57:2e:83:b6:d1:ce:2c:8f:89:61:d4:4b:e5:a1:
                    ca:05:78:aa:3a:ce:18:f4:5a:6a:96:94:36:ce:21:
                    c8:ee:81:89:7f:e9:c0:08:3d:76:49:23:cf:52:91:
                    03:45:da:1d:27:02:68:74:1a:0e:6f:76:c2:d9:e2:
                    38:d2:56:38:e7:94:e2:b6:47:5e:0b:9c:01:98:94:
                    d7:38:1c:ea:c6:09:85:73:26:c6:bb:8b:b7:2a:92:
                    44:30:0f:17:8b:56:39:dd:b9:a4:ee:2a:cd:bb:78:
                    68:ca:d0:b5:ea:7a:a7:2d:37:b5:ea:9d:53:c6:7c:
                    c6:31:d8:ce:db:eb:fb:6a:5e:41:7c:0f:f2:5e:d2:
                    a1:63:a8:61:46:52:db:d4:2a:db:76:97:74:17:83:
                    94:a5:d3:58:2d:22:2c:91:23:13:5a:fe:41:5a:b8:
                    d4:58:a6:5a:d5:b2:f8:0d:43:7c:a8:3d:98:38:a9:
                    0e:91
                Exponent: 65537 (0x10001)
        X509v3 extensions:
            X509v3 Basic Constraints: 
                CA:FALSE
            X509v3 Key Usage: 
                Digital Signature, Non Repudiation, Key Encipherment
            X509v3 Subject Alternative Name: 
                DNS:demo.cee.metadatacenter.orgx
    Signature Algorithm: sha256WithRSAEncryption
         c4:a6:17:ef:67:e2:4b:25:01:10:54:84:c8:4c:98:d2:19:33:
         89:e0:88:5c:ae:34:23:3b:4e:bf:f6:54:7f:6f:d4:a5:7a:30:
         63:97:82:fe:ec:b6:91:b3:5f:43:7c:f9:9a:f1:25:32:10:c6:
         a8:45:0d:e1:09:3c:3d:91:f7:6e:3d:e6:69:b5:57:12:30:45:
         76:c0:3a:fd:ea:31:88:e8:07:4c:44:f4:e6:a0:64:e6:88:7c:
         a3:b0:52:91:43:65:f6:de:b9:a6:16:4b:a0:2e:9f:dd:de:11:
         2f:7b:c0:d1:c2:03:e4:da:91:e5:2e:65:22:ca:da:08:54:6a:
         1b:dd:aa:ce:72:7d:78:6e:cb:32:eb:9d:11:b8:c4:09:d4:dc:
         8c:6b:2e:41:1f:f7:a5:d2:f7:da:30:c3:9a:d9:69:31:92:96:
         55:c7:2e:7b:79:ca:1a:37:ba:49:99:66:78:9c:58:ee:d4:47:
         7f:d4:bc:bf:c4:74:83:a4:61:51:a6:74:85:26:72:e4:ae:8c:
         b5:f8:d8:6d:12:92:43:01:98:d8:8d:5d:ab:47:68:b7:0b:fd:
         7d:94:da:d6:7f:dd:88:6b:38:a0:f8:32:b2:37:7f:77:76:45:
         2f:07:8a:0a:7f:f7:bc:d1:9b:4f:01:db:15:43:59:fe:98:93:
         29:4a:c2:ee:11:e6:e6:7e:51:3d:62:7a:10:b2:5c:27:b0:03:
         19:f0:f5:4c:4d:62:74:64:d5:88:46:35:41:ce:10:00:70:91:
         8c:04:c6:9c:76:75:ea:3d:8a:2b:49:4c:58:17:35:b9:81:de:
         65:17:49:59:30:35:b3:c8:24:63:d1:e2:59:39:4b:b6:5b:c9:
         ee:e1:47:ea:57:b4:17:55:06:c0:28:73:3e:51:37:46:01:23:
         a5:cf:b9:bb:b2:e1:29:f2:b8:b3:d8:c4:5a:22:e1:43:2f:ba:
         4b:0c:4e:52:5e:bc:8f:eb:9c:f8:2e:89:c2:e9:d7:d6:69:16:
         74:be:34:d0:7c:85:e1:69:78:4b:98:68:00:da:b3:b5:8b:b4:
         b3:a0:b6:11:2d:dc:3d:8b:ad:5d:72:25:ba:92:86:75:be:be:
         92:f2:8b:58:27:29:a8:89:03:09:a8:84:2b:8d:41:03:fc:01:
         82:f2:ea:60:67:d9:99:9e:e7:87:77:e2:01:90:ba:0a:f8:8b:
         6a:02:7f:84:a3:b4:ec:be:3d:02:23:0f:1d:95:1f:ae:51:33:
         06:79:d5:72:16:3c:3c:89:b9:15:66:9a:25:13:da:19:e4:60:
         1b:99:c7:f3:ee:e9:23:6c:f1:bb:a6:28:5b:40:28:a4:6b:5d:
         41:e9:68:5f:36:9a:0f:1c
-----BEGIN CERTIFICATE-----
MIIE3DCCAsSgAwIBAgIBFzANBgkqhkiG9w0BAQsFADCBkzELMAkGA1UEBhMCVVMx
CzAJBgNVBAgMAkNBMREwDwYDVQQHDAhTdGFuZm9yZDENMAsGA1UECgwEQk1JUjEO
MAwGA1UECwwFQ0VEQVIxHDAaBgNVBAMME21ldGFkYXRhY2VudGVyLm9yZ3gxJzAl
BgkqhkiG9w0BCQEWGG1ldGFkYXRhY2VudGVyQGdtYWlsLmNvbTAeFw0yNDAxMTcy
MTUwNDVaFw0yNjA0MjAyMTUwNDVaMIGJMQswCQYDVQQGEwJVUzELMAkGA1UECAwC
Q0ExDTALBgNVBAoMBEJNSVIxDjAMBgNVBAsMBUNFREFSMSUwIwYDVQQDDBxkZW1v
LmNlZS5tZXRhZGF0YWNlbnRlci5vcmd4MScwJQYJKoZIhvcNAQkBFhhtZXRhZGF0
YWNlbnRlckBnbWFpbC5jb20wggEiMA0GCSqGSIb3DQEBAQUAA4IBDwAwggEKAoIB
AQCcM/c/+hTebJEdv8XDqNtnjY1tbhHAY+A78Qnhs0udiq2KAWHpbFLajsKUuGS/
LhA1T9PUJi3WkhGPukYRYX0dzTRoHxwUPhdxxeVXLoO20c4sj4lh1EvlocoFeKo6
zhj0WmqWlDbOIcjugYl/6cAIPXZJI89SkQNF2h0nAmh0Gg5vdsLZ4jjSVjjnlOK2
R14LnAGYlNc4HOrGCYVzJsa7i7cqkkQwDxeLVjnduaTuKs27eGjK0LXqeqctN7Xq
nVPGfMYx2M7b6/tqXkF8D/Je0qFjqGFGUtvUKtt2l3QXg5Sl01gtIiyRIxNa/kFa
uNRYplrVsvgNQ3yoPZg4qQ6RAgMBAAGjQzBBMAkGA1UdEwQCMAAwCwYDVR0PBAQD
AgXgMCcGA1UdEQQgMB6CHGRlbW8uY2VlLm1ldGFkYXRhY2VudGVyLm9yZ3gwDQYJ
KoZIhvcNAQELBQADggIBAMSmF+9n4kslARBUhMhMmNIZM4ngiFyuNCM7Tr/2VH9v
1KV6MGOXgv7stpGzX0N8+ZrxJTIQxqhFDeEJPD2R92495mm1VxIwRXbAOv3qMYjo
B0xE9OagZOaIfKOwUpFDZfbeuaYWS6Aun93eES97wNHCA+TakeUuZSLK2ghUahvd
qs5yfXhuyzLrnRG4xAnU3IxrLkEf96XS99oww5rZaTGSllXHLnt5yho3ukmZZnic
WO7UR3/UvL/EdIOkYVGmdIUmcuSujLX42G0SkkMBmNiNXatHaLcL/X2U2tZ/3Yhr
OKD4MrI3f3d2RS8Higp/97zRm08B2xVDWf6YkylKwu4R5uZ+UT1iehCyXCewAxnw
9UxNYnRk1YhGNUHOEABwkYwExpx2deo9iitJTFgXNbmB3mUXSVkwNbPIJGPR4lk5
S7Zbye7hR+pXtBdVBsAocz5RN0YBI6XPubuy4SnyuLPYxFoi4UMvuksMTlJevI/r
nPguicLp19ZpFnS+NNB8heFpeEuYaADas7WLtLOgthEt3D2LrV1yJbqShnW+vpLy
i1gnKaiJAwmohCuNQQP8AYLy6mBn2Zme54d34gGQugr4i2oCf4SjtOy+PQIjDx2V
H65RMwZ51XIWPDyJuRVmmiUT2hnkYBuZx/Pu6SNs8bumKFtAKKRrXUHpaF82mg8c
-----END CERTIFICATE-----
