Certificate:
    Data:
        Version: 3 (0x2)
        Serial Number: 9 (0x9)
        Signature Algorithm: sha256WithRSAEncryption
        Issuer: C=US, ST=CA, L=Stanford, O=BMIR, OU=CEDAR, CN=metadatacenter.orgx/emailAddress=metadatacenter@gmail.com
        Validity
            Not Before: Jan 18 00:50:45 2024 GMT
            Not After : Apr 21 00:50:45 2026 GMT
        Subject: C=US, ST=CA, O=BMIR, OU=CEDAR, CN=repo.metadatacenter.orgx/emailAddress=metadatacenter@gmail.com
        Subject Public Key Info:
            Public Key Algorithm: rsaEncryption
                RSA Public-Key: (2048 bit)
                Modulus:
                    00:cf:16:ff:92:56:11:ab:e9:47:5c:1c:72:0d:a3:
                    b2:44:4a:c6:7c:d3:d4:b7:f9:af:e2:3f:3f:e0:d0:
                    d5:3b:b3:20:dd:b4:27:0a:f2:30:ce:71:ae:d3:9a:
                    cb:44:57:25:1b:6a:0f:80:ed:97:ed:82:42:7e:e2:
                    66:c7:2e:28:cf:10:10:77:3a:66:9c:ed:83:5b:8b:
                    52:00:03:dc:20:ba:fa:69:e7:ce:63:74:0a:53:1b:
                    3b:9b:d6:70:05:22:83:5b:06:ba:94:7b:c4:1e:5d:
                    4f:bd:ce:59:01:9e:3c:52:8d:e7:09:a6:39:39:1d:
                    19:12:73:e1:8e:11:be:fb:4b:b8:11:a9:ae:b4:c3:
                    43:a4:8d:09:1e:50:fa:a8:ac:cd:8e:d8:d7:22:2e:
                    3a:94:25:17:d0:42:23:97:5c:cf:42:99:17:ce:bd:
                    85:f5:96:48:dd:d6:69:0a:51:71:f6:9c:b1:bb:ea:
                    87:a8:30:46:8e:a9:a4:41:8f:07:ff:69:01:9d:ae:
                    7a:bb:c8:e3:79:5d:85:4f:29:20:47:c4:5d:d4:21:
                    47:ea:aa:30:4c:a4:62:75:b5:ab:0a:ff:3e:18:f0:
                    96:93:d1:f4:07:8a:f3:c8:28:05:dd:f7:4e:0d:4e:
                    a1:15:f0:88:54:d8:4c:6e:e3:1d:a3:9f:8a:b5:f5:
                    cb:fd
                Exponent: 65537 (0x10001)
        X509v3 extensions:
            X509v3 Basic Constraints: 
                CA:FALSE
            X509v3 Key Usage: 
                Digital Signature, Non Repudiation, Key Encipherment
            X509v3 Subject Alternative Name: 
                DNS:repo.metadatacenter.orgx
    Signature Algorithm: sha256WithRSAEncryption
         a2:54:24:ac:00:40:2f:32:d9:42:1c:86:7d:ea:68:00:90:24:
         0b:a6:c5:5b:40:5c:54:48:44:d6:2a:5e:65:24:28:9b:26:89:
         d8:72:7f:19:f1:9d:5f:bd:ad:23:f9:4c:53:b1:a0:40:34:98:
         ae:40:1c:e1:b5:92:3d:0c:02:03:31:d2:85:cb:91:7f:26:4e:
         67:c2:d8:bd:4e:c0:fb:d0:ff:19:ca:e0:f3:48:3b:eb:91:4d:
         77:53:99:3d:5e:57:4c:b5:8b:dc:40:c9:32:7f:d8:a5:60:ea:
         d2:94:2e:bf:87:a6:a0:42:1c:a2:66:e5:d4:17:dc:cc:0b:97:
         75:97:ce:78:36:89:e4:cb:69:5b:0c:6f:e0:10:6f:ca:bb:56:
         32:83:30:9d:52:03:80:83:4e:81:af:c9:65:c8:95:87:02:44:
         5e:c7:c5:30:3b:ba:45:2e:0c:ad:ba:d8:9e:c4:bc:b7:05:ee:
         02:7c:82:95:2d:89:89:08:26:a4:f2:50:15:bb:4d:b1:b2:b2:
         3f:d6:d4:b9:47:45:3e:c2:56:4b:85:9a:d1:6f:96:d5:50:3e:
         33:98:cf:16:cd:7e:42:c6:f1:ac:a4:2d:60:07:c7:c8:b0:84:
         fd:8f:ca:66:85:24:dc:66:68:c5:dd:a2:39:0f:17:22:00:70:
         67:24:6f:0b:62:bd:49:c7:05:0a:c3:70:95:40:8f:13:4d:8a:
         e1:c3:34:52:91:db:30:22:af:0a:bb:8d:a4:72:39:d7:24:47:
         49:86:8e:66:26:cf:17:f3:9c:bd:47:ad:38:26:a7:58:3c:a7:
         88:df:55:70:eb:57:74:a6:78:78:26:ae:cc:85:bc:d3:db:fc:
         7e:f4:4a:ba:3a:87:ba:c3:ca:5b:ab:56:87:bf:5b:2d:0d:52:
         44:70:11:47:c6:6a:42:15:18:eb:83:8b:3b:33:29:f3:e7:a6:
         63:7d:68:00:3d:4a:33:38:41:be:b0:33:74:da:08:50:3e:38:
         fb:e1:3d:1a:77:52:7a:c3:6d:bd:7c:48:74:0f:9f:4c:b6:01:
         10:7e:27:47:25:2b:14:c3:e3:d4:c9:5e:de:2f:ac:55:a4:fe:
         59:c0:dd:30:f3:a6:8b:e0:a8:2b:36:1d:d6:99:93:f3:c2:5f:
         fc:85:94:52:1c:4f:1f:6a:fa:97:8a:9f:fb:2c:e5:e8:5d:06:
         7d:f2:f0:9b:10:22:99:87:de:ff:20:b7:d9:16:5a:72:8d:64:
         bc:78:0e:3a:b7:cb:2a:b4:85:3e:28:06:dc:54:99:c7:2c:58:
         06:3f:bb:03:94:4c:5a:b3:e8:b0:f3:20:76:4e:c6:cb:75:14:
         b3:6f:15:17:44:d4:13:dc
-----BEGIN CERTIFICATE-----
MIIE1DCCArygAwIBAgIBCTANBgkqhkiG9w0BAQsFADCBkzELMAkGA1UEBhMCVVMx
CzAJBgNVBAgMAkNBMREwDwYDVQQHDAhTdGFuZm9yZDENMAsGA1UECgwEQk1JUjEO
MAwGA1UECwwFQ0VEQVIxHDAaBgNVBAMME21ldGFkYXRhY2VudGVyLm9yZ3gxJzAl
BgkqhkiG9w0BCQEWGG1ldGFkYXRhY2VudGVyQGdtYWlsLmNvbTAeFw0yNDAxMTgw
MDUwNDVaFw0yNjA0MjEwMDUwNDVaMIGFMQswCQYDVQQGEwJVUzELMAkGA1UECAwC
Q0ExDTALBgNVBAoMBEJNSVIxDjAMBgNVBAsMBUNFREFSMSEwHwYDVQQDDBhyZXBv
Lm1ldGFkYXRhY2VudGVyLm9yZ3gxJzAlBgkqhkiG9w0BCQEWGG1ldGFkYXRhY2Vu
dGVyQGdtYWlsLmNvbTCCASIwDQYJKoZIhvcNAQEBBQADggEPADCCAQoCggEBAM8W
/5JWEavpR1wccg2jskRKxnzT1Lf5r+I/P+DQ1TuzIN20JwryMM5xrtOay0RXJRtq
D4Dtl+2CQn7iZscuKM8QEHc6Zpztg1uLUgAD3CC6+mnnzmN0ClMbO5vWcAUig1sG
upR7xB5dT73OWQGePFKN5wmmOTkdGRJz4Y4RvvtLuBGprrTDQ6SNCR5Q+qiszY7Y
1yIuOpQlF9BCI5dcz0KZF869hfWWSN3WaQpRcfacsbvqh6gwRo6ppEGPB/9pAZ2u
ervI43ldhU8pIEfEXdQhR+qqMEykYnW1qwr/PhjwlpPR9AeK88goBd33Tg1OoRXw
iFTYTG7jHaOfirX1y/0CAwEAAaM/MD0wCQYDVR0TBAIwADALBgNVHQ8EBAMCBeAw
IwYDVR0RBBwwGoIYcmVwby5tZXRhZGF0YWNlbnRlci5vcmd4MA0GCSqGSIb3DQEB
CwUAA4ICAQCiVCSsAEAvMtlCHIZ96mgAkCQLpsVbQFxUSETWKl5lJCibJonYcn8Z
8Z1fva0j+UxTsaBANJiuQBzhtZI9DAIDMdKFy5F/Jk5nwti9TsD70P8ZyuDzSDvr
kU13U5k9XldMtYvcQMkyf9ilYOrSlC6/h6agQhyiZuXUF9zMC5d1l854Nonky2lb
DG/gEG/Ku1YygzCdUgOAg06Br8llyJWHAkRex8UwO7pFLgytutiexLy3Be4CfIKV
LYmJCCak8lAVu02xsrI/1tS5R0U+wlZLhZrRb5bVUD4zmM8WzX5CxvGspC1gB8fI
sIT9j8pmhSTcZmjF3aI5DxciAHBnJG8LYr1JxwUKw3CVQI8TTYrhwzRSkdswIq8K
u42kcjnXJEdJho5mJs8X85y9R604JqdYPKeI31Vw61d0pnh4Jq7MhbzT2/x+9Eq6
Ooe6w8pbq1aHv1stDVJEcBFHxmpCFRjrg4s7Mynz56ZjfWgAPUozOEG+sDN02ghQ
Pjj74T0ad1J6w229fEh0D59MtgEQfidHJSsUw+PUyV7eL6xVpP5ZwN0w86aL4Kgr
Nh3WmZPzwl/8hZRSHE8favqXip/7LOXoXQZ98vCbECKZh97/ILfZFlpyjWS8eA46
t8sqtIU+KAbcVJnHLFgGP7sDlExas+iw8yB2TsbLdRSzbxUXRNQT3A==
-----END CERTIFICATE-----
