Certificate:
    Data:
        Version: 3 (0x2)
        Serial Number: 12 (0xc)
        Signature Algorithm: sha256WithRSAEncryption
        Issuer: C=US, ST=CA, L=Stanford, O=BMIR, OU=CEDAR, CN=metadatacenter.orgx/emailAddress=metadatacenter@gmail.com
        Validity
            Not Before: Jan 18 00:50:45 2024 GMT
            Not After : Apr 21 00:50:45 2026 GMT
        Subject: C=US, ST=CA, O=BMIR, OU=CEDAR, CN=submission.metadatacenter.orgx/emailAddress=metadatacenter@gmail.com
        Subject Public Key Info:
            Public Key Algorithm: rsaEncryption
                RSA Public-Key: (2048 bit)
                Modulus:
                    00:c6:d4:96:40:25:d7:c5:cc:6e:33:a9:13:92:33:
                    ac:96:ee:bd:25:7d:62:2d:77:6d:bf:dd:1a:fc:64:
                    9e:94:53:8c:49:91:b6:1b:73:59:4f:5c:cc:c1:3a:
                    bf:37:80:1e:45:16:69:6c:2d:39:8d:0a:53:45:04:
                    c5:6f:8b:94:f3:d8:c6:e9:8e:e0:18:88:2b:02:a2:
                    7f:d5:e7:50:7b:62:13:d7:7a:07:19:92:fe:d9:6e:
                    df:68:03:98:7e:22:c9:7e:f1:44:30:35:0b:10:f0:
                    01:25:e2:82:70:22:d8:4b:67:81:d3:96:91:52:f0:
                    33:4d:1c:74:79:11:05:ad:d1:16:24:b2:c4:da:f9:
                    11:70:21:5e:99:8e:53:c2:0d:d4:cf:b6:f2:91:ae:
                    76:18:07:78:bb:dc:3b:3a:83:c9:6b:3c:81:64:6a:
                    b6:c1:c3:27:94:d3:df:66:f1:96:27:72:71:f2:1d:
                    8a:b0:b9:6f:d5:d1:e0:f0:87:ba:62:79:eb:f0:8a:
                    6b:be:ef:37:e8:f3:77:aa:8c:e8:79:82:98:e2:a6:
                    67:1f:1a:d3:bb:60:d0:c9:53:f8:af:cb:3f:fc:e1:
                    8b:46:53:03:82:f4:35:4e:47:91:d1:9a:30:19:29:
                    8a:d6:9f:66:3a:8c:c4:b4:c0:52:c4:87:25:cc:70:
                    59:b3
                Exponent: 65537 (0x10001)
        X509v3 extensions:
            X509v3 Basic Constraints: 
                CA:FALSE
            X509v3 Key Usage: 
                Digital Signature, Non Repudiation, Key Encipherment
            X509v3 Subject Alternative Name: 
                DNS:submission.metadatacenter.orgx
    Signature Algorithm: sha256WithRSAEncryption
         3c:8a:77:77:8a:8c:34:16:92:4f:1f:f6:1a:94:fc:4c:dd:79:
         f5:d2:77:3a:bb:9d:49:9e:33:37:7f:68:f5:2d:ed:b0:e3:53:
         ad:79:86:88:68:c3:47:e6:3c:54:51:51:7f:88:08:ff:78:b0:
         d0:62:77:1f:01:9c:93:cf:30:4e:cc:5b:38:49:1d:e7:ac:dd:
         a0:73:48:c3:b3:9d:b7:77:60:00:4a:f8:79:3d:63:a2:05:4a:
         e1:3d:0f:2e:03:af:ab:82:f8:33:15:e8:16:b4:76:b3:07:20:
         6b:b1:07:e9:d3:40:a7:10:e3:a8:9d:41:01:e9:8d:cc:b2:fd:
         3e:36:dc:1f:8d:94:18:63:58:9a:0f:c4:01:e7:97:0d:6d:40:
         5c:3e:74:bc:7f:15:83:35:b1:5e:46:ac:35:75:38:46:37:23:
         82:4f:e8:11:25:4c:51:70:33:8c:24:26:4c:b9:fa:a8:94:94:
         09:da:96:92:15:47:ce:c7:e4:de:27:8d:2b:ce:76:1b:75:4c:
         b5:28:82:66:50:92:18:47:74:1d:f4:4d:84:3d:5b:1d:e2:e2:
         ed:5f:33:e7:30:17:d0:8f:4e:c9:9a:63:e4:d2:c3:08:33:50:
         77:2f:35:ca:39:f6:c6:eb:22:02:8e:a7:cd:f8:a5:9c:8f:1d:
         ac:7a:bb:40:ac:42:91:7e:07:9c:43:4c:2a:0d:1b:df:2c:cf:
         32:bd:8c:9c:b5:1b:22:53:e5:6b:cd:b4:bc:77:99:58:4d:07:
         5b:c3:60:f2:de:be:8a:f9:50:65:c4:4b:8c:fb:41:b7:18:cb:
         ef:fe:27:ca:8a:0d:af:77:38:81:9a:21:b7:9b:64:bd:4f:7c:
         13:51:6e:3e:ee:7d:e9:e3:7c:dc:ac:4b:a7:7e:be:51:7c:38:
         e7:c3:61:53:ae:34:cb:6e:9d:44:34:c5:bd:33:ad:b5:f2:e9:
         93:7f:0c:9e:72:38:38:a9:43:0f:24:41:c4:cb:0c:a4:0d:86:
         b6:ec:5f:1b:e7:e6:2f:1d:32:0a:1a:18:e1:75:a1:3b:47:89:
         95:95:30:f1:7e:96:ec:3f:4e:24:da:90:9e:27:3a:73:37:d5:
         96:17:39:88:92:b4:93:61:49:5b:29:24:da:ba:80:4a:47:95:
         7d:bd:56:34:6a:76:29:94:73:55:d6:14:74:20:10:21:39:2a:
         fc:b9:d3:cc:69:5a:36:1b:cc:dc:6d:e7:bf:03:ea:8e:bc:c2:
         98:05:0f:44:19:a5:80:d6:61:3a:ac:01:10:29:37:61:bc:04:
         2c:31:da:6f:76:99:7a:b7:af:10:37:c4:c2:02:50:fa:ed:56:
         79:e6:56:5e:2b:42:fe:c9
-----BEGIN CERTIFICATE-----
MIIE4DCCAsigAwIBAgIBDDANBgkqhkiG9w0BAQsFADCBkzELMAkGA1UEBhMCVVMx
CzAJBgNVBAgMAkNBMREwDwYDVQQHDAhTdGFuZm9yZDENMAsGA1UECgwEQk1JUjEO
MAwGA1UECwwFQ0VEQVIxHDAaBgNVBAMME21ldGFkYXRhY2VudGVyLm9yZ3gxJzAl
BgkqhkiG9w0BCQEWGG1ldGFkYXRhY2VudGVyQGdtYWlsLmNvbTAeFw0yNDAxMTgw
MDUwNDVaFw0yNjA0MjEwMDUwNDVaMIGLMQswCQYDVQQGEwJVUzELMAkGA1UECAwC
Q0ExDTALBgNVBAoMBEJNSVIxDjAMBgNVBAsMBUNFREFSMScwJQYDVQQDDB5zdWJt
aXNzaW9uLm1ldGFkYXRhY2VudGVyLm9yZ3gxJzAlBgkqhkiG9w0BCQEWGG1ldGFk
YXRhY2VudGVyQGdtYWlsLmNvbTCCASIwDQYJKoZIhvcNAQEBBQADggEPADCCAQoC
ggEBAMbUlkAl18XMbjOpE5IzrJbuvSV9Yi13bb/dGvxknpRTjEmRthtzWU9czME6
vzeAHkUWaWwtOY0KU0UExW+LlPPYxumO4BiIKwKif9XnUHtiE9d6BxmS/tlu32gD
mH4iyX7xRDA1CxDwASXignAi2EtngdOWkVLwM00cdHkRBa3RFiSyxNr5EXAhXpmO
U8IN1M+28pGudhgHeLvcOzqDyWs8gWRqtsHDJ5TT32bxlidycfIdirC5b9XR4PCH
umJ56/CKa77vN+jzd6qM6HmCmOKmZx8a07tg0MlT+K/LP/zhi0ZTA4L0NU5HkdGa
MBkpitafZjqMxLTAUsSHJcxwWbMCAwEAAaNFMEMwCQYDVR0TBAIwADALBgNVHQ8E
BAMCBeAwKQYDVR0RBCIwIIIec3VibWlzc2lvbi5tZXRhZGF0YWNlbnRlci5vcmd4
MA0GCSqGSIb3DQEBCwUAA4ICAQA8ind3iow0FpJPH/YalPxM3Xn10nc6u51JnjM3
f2j1Le2w41OteYaIaMNH5jxUUVF/iAj/eLDQYncfAZyTzzBOzFs4SR3nrN2gc0jD
s523d2AASvh5PWOiBUrhPQ8uA6+rgvgzFegWtHazByBrsQfp00CnEOOonUEB6Y3M
sv0+NtwfjZQYY1iaD8QB55cNbUBcPnS8fxWDNbFeRqw1dThGNyOCT+gRJUxRcDOM
JCZMufqolJQJ2paSFUfOx+TeJ40rznYbdUy1KIJmUJIYR3Qd9E2EPVsd4uLtXzPn
MBfQj07JmmPk0sMIM1B3LzXKOfbG6yICjqfN+KWcjx2sertArEKRfgecQ0wqDRvf
LM8yvYyctRsiU+VrzbS8d5lYTQdbw2Dy3r6K+VBlxEuM+0G3GMvv/ifKig2vdziB
miG3m2S9T3wTUW4+7n3p43zcrEunfr5RfDjnw2FTrjTLbp1ENMW9M6218umTfwye
cjg4qUMPJEHEywykDYa27F8b5+YvHTIKGhjhdaE7R4mVlTDxfpbsP04k2pCeJzpz
N9WWFzmIkrSTYUlbKSTauoBKR5V9vVY0anYplHNV1hR0IBAhOSr8udPMaVo2G8zc
bee/A+qOvMKYBQ9EGaWA1mE6rAEQKTdhvAQsMdpvdpl6t68QN8TCAlD67VZ55lZe
K0L+yQ==
-----END CERTIFICATE-----
