Certificate:
    Data:
        Version: 3 (0x2)
        Serial Number: 15 (0xf)
        Signature Algorithm: sha256WithRSAEncryption
        Issuer: C=US, ST=CA, L=Stanford, O=BMIR, OU=CEDAR, CN=metadatacenter.orgx/emailAddress=metadatacenter@gmail.com
        Validity
            Not Before: Jan 18 18:52:29 2023 GMT
            Not After : Apr 21 18:52:29 2025 GMT
        Subject: C=US, ST=CA, O=BMIR, OU=CEDAR, CN=submission.metadatacenter.orgx/emailAddress=metadatacenter@gmail.com
        Subject Public Key Info:
            Public Key Algorithm: rsaEncryption
                RSA Public-Key: (2048 bit)
                Modulus:
                    00:b9:75:8d:ae:64:f1:6a:b2:60:56:5d:1a:1e:03:
                    17:b2:39:ec:10:8f:47:c2:96:b7:9c:d3:7a:e6:7e:
                    6a:c4:64:86:72:ab:24:d4:26:d8:8c:92:1b:8d:31:
                    b2:c8:c8:f8:80:77:c1:04:fb:1a:ed:1a:57:3d:b6:
                    e8:88:6a:88:3f:0b:8a:5f:64:96:53:eb:21:54:56:
                    e1:8d:34:de:50:c5:ed:48:e9:85:71:e3:b3:02:63:
                    d5:0c:ba:6c:30:c4:5b:85:07:b4:00:17:17:6e:9c:
                    85:ce:8c:a8:27:6d:15:74:26:eb:7b:60:1f:cb:da:
                    84:d3:47:c5:7a:8d:0c:33:fe:6a:fc:88:ab:41:09:
                    84:a0:0b:89:d1:0b:d9:78:dc:ea:aa:21:11:b8:79:
                    4c:bb:22:0f:5b:b5:20:76:83:35:90:9c:1b:c8:0d:
                    51:b2:59:54:04:b7:5d:9f:39:03:08:bd:9b:e9:c6:
                    2b:8a:64:c1:36:d4:29:1a:5f:f9:d2:6b:17:2d:4e:
                    77:89:01:a4:06:3f:58:72:8a:45:62:2b:b0:4c:2d:
                    5a:03:c7:78:5c:81:59:45:30:80:f6:3c:96:be:99:
                    3d:28:16:3d:04:81:bc:f3:0c:e6:77:bd:a3:50:01:
                    82:60:6a:42:8e:d6:33:1b:19:0b:14:53:2a:35:bd:
                    2c:51
                Exponent: 65537 (0x10001)
        X509v3 extensions:
            X509v3 Basic Constraints: 
                CA:FALSE
            X509v3 Key Usage: 
                Digital Signature, Non Repudiation, Key Encipherment
            X509v3 Subject Alternative Name: 
                DNS:submission.metadatacenter.orgx
    Signature Algorithm: sha256WithRSAEncryption
         46:70:c5:9e:5f:7a:7a:a3:9a:65:28:7c:17:e9:97:d5:ed:69:
         59:d8:66:69:ad:fa:e1:52:29:97:2b:11:81:07:28:c4:d1:64:
         2e:17:a0:24:ef:5c:9c:06:01:5f:39:bc:6b:32:56:14:ab:e9:
         9d:4f:15:7d:b3:bd:b6:96:72:c4:27:74:3f:cd:9b:46:44:4a:
         6b:98:78:64:da:c3:cd:be:4e:4c:38:5f:07:92:97:5a:9c:7b:
         3f:2d:6b:4d:97:16:88:7e:37:12:5c:99:6e:b6:25:37:f1:c4:
         5b:39:8a:63:12:fc:cf:98:44:c8:7e:37:0d:04:9f:a0:47:68:
         ac:29:2b:a2:e2:72:11:d3:26:16:6e:4e:72:ee:74:b1:3e:2e:
         54:83:fb:8e:01:5c:ba:84:95:3b:15:78:15:e3:21:9f:e4:9a:
         d3:44:7f:a2:a7:8b:33:a2:7c:bf:78:4d:50:2b:cd:7c:0e:76:
         f9:c2:64:4e:f9:be:13:97:a2:ec:92:d6:a5:60:cf:44:ae:93:
         4b:56:ae:a4:0f:b2:0e:df:de:dc:7e:3d:9b:e1:af:7d:b5:ad:
         ee:cf:a0:2d:67:d9:70:4d:e3:df:26:a8:2d:67:8e:d6:2f:f9:
         60:90:3f:cc:fc:b7:d0:6e:5a:39:a8:55:80:db:a2:10:ed:0d:
         38:77:f2:f0:86:29:60:9f:31:df:b2:de:90:ef:76:bc:d3:dd:
         17:a2:c3:38:d2:16:6a:9e:c5:32:d7:e8:10:c9:91:ac:79:28:
         08:ac:cb:3d:8c:a3:91:55:f2:ce:af:a5:72:54:c6:cb:64:e7:
         e2:8f:a9:bd:8f:8c:9b:42:3b:03:f3:bf:97:42:0b:13:35:4a:
         43:a5:8c:2f:4d:9e:2e:a7:5b:04:7c:d0:86:67:e1:d1:f5:c3:
         d8:b9:1a:4b:43:bf:03:72:36:17:ec:6d:e2:e7:88:b5:22:4e:
         74:30:8c:35:94:c9:57:f0:12:d4:f5:a0:9d:e6:20:15:00:c8:
         20:32:a1:84:e0:55:8d:79:2f:ed:2c:f2:83:81:f8:79:39:dc:
         e0:24:43:1d:16:8a:c1:35:c3:c1:cd:9f:1d:cb:e6:d4:a6:e0:
         66:b2:dd:78:e1:c2:7e:d2:ca:46:50:e2:6a:a3:60:c4:fc:f6:
         ff:cc:ec:c5:86:9a:27:52:35:58:e7:86:f9:27:98:ff:5b:f9:
         25:b1:ef:8a:b5:4e:dd:38:4d:0c:c0:5f:91:3b:5e:d2:33:69:
         92:d8:17:01:17:70:63:90:73:0a:be:b6:61:44:cc:a1:78:cb:
         02:6b:0d:c0:52:45:a7:67:51:d4:2d:13:c1:ec:4a:a0:f9:d6:
         fd:68:5f:ea:02:5d:2e:4d
-----BEGIN CERTIFICATE-----
MIIE4DCCAsigAwIBAgIBDzANBgkqhkiG9w0BAQsFADCBkzELMAkGA1UEBhMCVVMx
CzAJBgNVBAgMAkNBMREwDwYDVQQHDAhTdGFuZm9yZDENMAsGA1UECgwEQk1JUjEO
MAwGA1UECwwFQ0VEQVIxHDAaBgNVBAMME21ldGFkYXRhY2VudGVyLm9yZ3gxJzAl
BgkqhkiG9w0BCQEWGG1ldGFkYXRhY2VudGVyQGdtYWlsLmNvbTAeFw0yMzAxMTgx
ODUyMjlaFw0yNTA0MjExODUyMjlaMIGLMQswCQYDVQQGEwJVUzELMAkGA1UECAwC
Q0ExDTALBgNVBAoMBEJNSVIxDjAMBgNVBAsMBUNFREFSMScwJQYDVQQDDB5zdWJt
aXNzaW9uLm1ldGFkYXRhY2VudGVyLm9yZ3gxJzAlBgkqhkiG9w0BCQEWGG1ldGFk
YXRhY2VudGVyQGdtYWlsLmNvbTCCASIwDQYJKoZIhvcNAQEBBQADggEPADCCAQoC
ggEBALl1ja5k8WqyYFZdGh4DF7I57BCPR8KWt5zTeuZ+asRkhnKrJNQm2IySG40x
ssjI+IB3wQT7Gu0aVz226IhqiD8Lil9kllPrIVRW4Y003lDF7UjphXHjswJj1Qy6
bDDEW4UHtAAXF26chc6MqCdtFXQm63tgH8vahNNHxXqNDDP+avyIq0EJhKALidEL
2Xjc6qohEbh5TLsiD1u1IHaDNZCcG8gNUbJZVAS3XZ85Awi9m+nGK4pkwTbUKRpf
+dJrFy1Od4kBpAY/WHKKRWIrsEwtWgPHeFyBWUUwgPY8lr6ZPSgWPQSBvPMM5ne9
o1ABgmBqQo7WMxsZCxRTKjW9LFECAwEAAaNFMEMwCQYDVR0TBAIwADALBgNVHQ8E
BAMCBeAwKQYDVR0RBCIwIIIec3VibWlzc2lvbi5tZXRhZGF0YWNlbnRlci5vcmd4
MA0GCSqGSIb3DQEBCwUAA4ICAQBGcMWeX3p6o5plKHwX6ZfV7WlZ2GZprfrhUimX
KxGBByjE0WQuF6Ak71ycBgFfObxrMlYUq+mdTxV9s722lnLEJ3Q/zZtGREprmHhk
2sPNvk5MOF8HkpdanHs/LWtNlxaIfjcSXJlutiU38cRbOYpjEvzPmETIfjcNBJ+g
R2isKSui4nIR0yYWbk5y7nSxPi5Ug/uOAVy6hJU7FXgV4yGf5JrTRH+ip4szony/
eE1QK818Dnb5wmRO+b4Tl6LsktalYM9ErpNLVq6kD7IO397cfj2b4a99ta3uz6At
Z9lwTePfJqgtZ47WL/lgkD/M/LfQblo5qFWA26IQ7Q04d/LwhilgnzHfst6Q73a8
090XosM40hZqnsUy1+gQyZGseSgIrMs9jKORVfLOr6VyVMbLZOfij6m9j4ybQjsD
87+XQgsTNUpDpYwvTZ4up1sEfNCGZ+HR9cPYuRpLQ78DcjYX7G3i54i1Ik50MIw1
lMlX8BLU9aCd5iAVAMggMqGE4FWNeS/tLPKDgfh5OdzgJEMdForBNcPBzZ8dy+bU
puBmst144cJ+0spGUOJqo2DE/Pb/zOzFhponUjVY54b5J5j/W/klse+KtU7dOE0M
wF+RO17SM2mS2BcBF3BjkHMKvrZhRMyheMsCaw3AUkWnZ1HULRPB7Eqg+db9aF/q
Al0uTQ==
-----END CERTIFICATE-----
