Certificate:
    Data:
        Version: 3 (0x2)
        Serial Number: 12 (0xc)
        Signature Algorithm: sha256WithRSAEncryption
        Issuer: C=US, ST=CA, L=Stanford, O=BMIR, OU=CEDAR, CN=metadatacenter.orgx/emailAddress=metadatacenter@gmail.com
        Validity
            Not Before: Jan 17 21:50:44 2024 GMT
            Not After : Apr 20 21:50:44 2026 GMT
        Subject: C=US, ST=CA, O=BMIR, OU=CEDAR, CN=submission.metadatacenter.orgx/emailAddress=metadatacenter@gmail.com
        Subject Public Key Info:
            Public Key Algorithm: rsaEncryption
                RSA Public-Key: (2048 bit)
                Modulus:
                    00:cb:7c:7a:56:2d:07:3c:53:c3:87:ca:3f:fb:0c:
                    fd:12:f3:a9:4d:e6:86:08:e5:de:f4:52:66:cd:78:
                    93:5a:a2:b2:41:c1:7c:21:65:3e:a5:fd:01:ea:67:
                    1c:c8:d5:3e:55:ab:e4:0d:8b:be:7a:c3:00:ce:75:
                    2d:4c:30:b6:69:45:8c:06:37:68:bf:9e:e8:90:39:
                    0c:76:d8:02:97:d4:e7:fd:48:b2:4c:3d:ee:a1:41:
                    4e:8f:83:5e:50:06:d5:d6:30:58:08:46:5c:fe:a4:
                    95:84:0f:55:f4:61:39:01:22:8c:21:d4:ca:9d:e3:
                    3d:37:24:18:de:ec:71:7a:b2:34:55:1a:30:f6:44:
                    66:fd:50:07:c5:ee:7d:b9:9e:2c:70:71:ac:df:21:
                    15:07:4c:8d:b6:c3:72:a4:12:2b:0b:cc:a2:8f:61:
                    6f:73:a9:eb:68:c6:cb:56:f8:90:54:c3:64:dc:e5:
                    e0:d2:6a:66:9d:7d:d7:63:f4:97:14:ac:c0:4f:74:
                    ad:a4:d4:ab:e2:74:5d:e6:bf:86:81:bb:1e:7b:7e:
                    03:5b:f4:b0:17:bc:d8:aa:fc:60:0f:00:ba:17:c8:
                    80:16:39:be:7d:16:8b:1b:13:ab:93:f6:65:c0:0c:
                    ef:ae:45:b5:aa:de:3b:89:db:48:bc:96:dd:5f:72:
                    ad:71
                Exponent: 65537 (0x10001)
        X509v3 extensions:
            X509v3 Basic Constraints: 
                CA:FALSE
            X509v3 Key Usage: 
                Digital Signature, Non Repudiation, Key Encipherment
            X509v3 Subject Alternative Name: 
                DNS:submission.metadatacenter.orgx
    Signature Algorithm: sha256WithRSAEncryption
         ad:e0:ec:a6:c8:47:5b:43:86:33:8f:3d:30:38:52:df:71:25:
         39:36:a9:02:73:fd:8d:9c:a7:75:b2:05:ef:c8:3a:88:bf:76:
         7e:06:17:81:c0:fa:40:96:40:2b:89:ea:5c:d9:37:96:d6:9a:
         9f:41:83:df:e7:c0:64:43:e6:3b:b7:68:f0:e6:80:73:b5:b7:
         7f:1d:11:a1:5f:2b:a7:f4:6b:af:59:6d:16:d8:f6:e2:6b:c3:
         73:b1:c2:80:39:31:61:63:0b:b4:ca:80:4b:0d:3c:9c:02:eb:
         ad:7b:c4:2d:34:7a:10:88:25:9c:1d:4b:fa:1b:c8:8c:ba:e2:
         70:68:ed:74:0c:8a:01:9b:49:ce:27:6b:e8:83:0f:21:b3:6a:
         cc:3b:14:76:43:ff:b9:bb:26:2e:90:c6:5b:b6:c1:aa:18:5a:
         af:8a:16:b9:a6:e1:23:e2:5b:a9:cc:f2:5d:33:e8:70:3d:73:
         80:cf:3f:0b:27:d4:b6:2f:20:e5:31:41:16:49:e1:53:31:a0:
         5d:ce:f0:1f:8a:56:6b:35:7f:d7:00:a7:e1:14:42:62:48:48:
         50:ce:c5:9c:6b:82:30:ea:a2:bb:1e:7a:9e:31:68:a7:54:a1:
         0c:67:3d:90:68:3c:fd:ad:9d:e4:95:fe:65:51:ef:f9:37:e6:
         b8:60:ff:96:d3:31:10:1d:67:bc:78:6e:c8:d4:51:fd:b5:c9:
         a0:6b:98:6c:ab:cd:0a:4c:64:bc:6b:83:43:8f:9f:50:e3:57:
         b4:03:f0:94:77:9a:b5:14:a9:23:e3:5c:58:95:f7:20:16:d5:
         33:f6:69:30:a4:2c:ab:ef:75:9f:bc:13:6f:00:23:ca:7e:9f:
         72:34:87:b1:0a:83:94:d2:03:1d:3f:3a:53:de:d6:94:86:4b:
         e3:95:0b:16:7a:c4:bf:20:cb:95:e4:0a:b9:02:23:be:43:b0:
         3f:1e:cf:6e:a1:45:b0:92:4c:45:99:16:37:39:00:04:7e:8b:
         ca:e2:ee:41:2d:c8:7c:8a:32:4c:dd:30:72:23:17:68:da:9e:
         14:8c:d8:4b:ce:a8:1b:53:be:44:19:cb:90:f5:c8:4f:10:bc:
         08:64:5a:dc:50:ee:64:cf:a5:6b:f4:bb:3e:c2:a3:02:be:85:
         50:54:8b:89:e3:61:8f:14:e0:d8:a9:6f:d8:6e:ea:19:59:5a:
         d2:3f:b3:f0:22:20:4b:be:b7:eb:aa:d7:8d:39:12:98:d7:f8:
         58:bd:15:ed:7e:25:43:e6:a7:71:76:95:2c:7c:54:96:2e:86:
         76:ec:74:16:29:36:b8:a6:6e:36:ea:7f:1b:7b:d5:01:29:b5:
         b7:05:fd:cf:b4:c2:55:19
-----BEGIN CERTIFICATE-----
MIIE4DCCAsigAwIBAgIBDDANBgkqhkiG9w0BAQsFADCBkzELMAkGA1UEBhMCVVMx
CzAJBgNVBAgMAkNBMREwDwYDVQQHDAhTdGFuZm9yZDENMAsGA1UECgwEQk1JUjEO
MAwGA1UECwwFQ0VEQVIxHDAaBgNVBAMME21ldGFkYXRhY2VudGVyLm9yZ3gxJzAl
BgkqhkiG9w0BCQEWGG1ldGFkYXRhY2VudGVyQGdtYWlsLmNvbTAeFw0yNDAxMTcy
MTUwNDRaFw0yNjA0MjAyMTUwNDRaMIGLMQswCQYDVQQGEwJVUzELMAkGA1UECAwC
Q0ExDTALBgNVBAoMBEJNSVIxDjAMBgNVBAsMBUNFREFSMScwJQYDVQQDDB5zdWJt
aXNzaW9uLm1ldGFkYXRhY2VudGVyLm9yZ3gxJzAlBgkqhkiG9w0BCQEWGG1ldGFk
YXRhY2VudGVyQGdtYWlsLmNvbTCCASIwDQYJKoZIhvcNAQEBBQADggEPADCCAQoC
ggEBAMt8elYtBzxTw4fKP/sM/RLzqU3mhgjl3vRSZs14k1qiskHBfCFlPqX9Aepn
HMjVPlWr5A2LvnrDAM51LUwwtmlFjAY3aL+e6JA5DHbYApfU5/1Iskw97qFBTo+D
XlAG1dYwWAhGXP6klYQPVfRhOQEijCHUyp3jPTckGN7scXqyNFUaMPZEZv1QB8Xu
fbmeLHBxrN8hFQdMjbbDcqQSKwvMoo9hb3Op62jGy1b4kFTDZNzl4NJqZp1912P0
lxSswE90raTUq+J0Xea/hoG7Hnt+A1v0sBe82Kr8YA8AuhfIgBY5vn0WixsTq5P2
ZcAM765FtareO4nbSLyW3V9yrXECAwEAAaNFMEMwCQYDVR0TBAIwADALBgNVHQ8E
BAMCBeAwKQYDVR0RBCIwIIIec3VibWlzc2lvbi5tZXRhZGF0YWNlbnRlci5vcmd4
MA0GCSqGSIb3DQEBCwUAA4ICAQCt4OymyEdbQ4Yzjz0wOFLfcSU5NqkCc/2NnKd1
sgXvyDqIv3Z+BheBwPpAlkAriepc2TeW1pqfQYPf58BkQ+Y7t2jw5oBztbd/HRGh
Xyun9GuvWW0W2Pbia8NzscKAOTFhYwu0yoBLDTycAuute8QtNHoQiCWcHUv6G8iM
uuJwaO10DIoBm0nOJ2vogw8hs2rMOxR2Q/+5uyYukMZbtsGqGFqviha5puEj4lup
zPJdM+hwPXOAzz8LJ9S2LyDlMUEWSeFTMaBdzvAfilZrNX/XAKfhFEJiSEhQzsWc
a4Iw6qK7HnqeMWinVKEMZz2QaDz9rZ3klf5lUe/5N+a4YP+W0zEQHWe8eG7I1FH9
tcmga5hsq80KTGS8a4NDj59Q41e0A/CUd5q1FKkj41xYlfcgFtUz9mkwpCyr73Wf
vBNvACPKfp9yNIexCoOU0gMdPzpT3taUhkvjlQsWesS/IMuV5Aq5AiO+Q7A/Hs9u
oUWwkkxFmRY3OQAEfovK4u5BLch8ijJM3TByIxdo2p4UjNhLzqgbU75EGcuQ9chP
ELwIZFrcUO5kz6Vr9Ls+wqMCvoVQVIuJ42GPFODYqW/YbuoZWVrSP7PwIiBLvrfr
qteNORKY1/hYvRXtfiVD5qdxdpUsfFSWLoZ27HQWKTa4pm426n8be9UBKbW3Bf3P
tMJVGQ==
-----END CERTIFICATE-----
