Certificate:
    Data:
        Version: 3 (0x2)
        Serial Number: 25 (0x19)
        Signature Algorithm: sha256WithRSAEncryption
        Issuer: C=US, ST=CA, L=Stanford, O=BMIR, OU=CEDAR, CN=metadatacenter.orgx/emailAddress=metadatacenter@gmail.com
        Validity
            Not Before: Mar 10 00:18:27 2023 GMT
            Not After : Jun 11 00:18:27 2025 GMT
        Subject: C=US, ST=CA, O=BMIR, OU=CEDAR, CN=demo-dist.cee.metadatacenter.orgx/emailAddress=metadatacenter@gmail.com
        Subject Public Key Info:
            Public Key Algorithm: rsaEncryption
                RSA Public-Key: (2048 bit)
                Modulus:
                    00:b5:66:ca:37:82:1e:e5:90:a5:8c:00:08:58:ed:
                    93:3e:38:b1:25:ec:b4:ea:0a:e0:ce:fe:ca:33:9c:
                    d5:49:3b:6d:d9:1d:01:fe:e1:6d:79:cb:cb:97:5b:
                    bf:4c:40:5a:5d:6a:19:d7:83:06:b3:69:d4:3b:a7:
                    e6:12:c3:b2:e7:5c:f2:a2:fd:c8:38:de:c9:7a:54:
                    9d:fe:18:5a:1e:43:b1:39:f4:df:82:62:65:7f:be:
                    f8:ec:25:33:2d:7f:74:b1:d4:5a:cb:72:0e:82:6a:
                    e3:1d:6a:8b:8b:bf:e5:3b:2e:ed:50:c1:fe:c3:25:
                    ad:aa:77:ca:e0:df:6a:eb:ea:1e:e5:a9:91:46:b8:
                    33:fb:a0:b0:d3:9b:2e:0e:c3:18:b5:5b:43:f2:b7:
                    65:97:e5:9d:a1:8e:ab:cf:ed:73:4f:d1:a0:a0:6b:
                    00:4c:49:de:16:7c:63:12:3d:e1:5a:f5:d3:99:55:
                    ce:13:b6:c7:05:88:f3:22:0b:2a:33:dc:66:3c:13:
                    45:fc:95:0b:4b:02:38:2f:7e:e3:40:f7:0e:4e:92:
                    97:19:f6:16:bd:c6:51:34:68:3a:46:0f:93:bb:9a:
                    76:3e:95:a0:bc:db:9d:e7:c7:f8:2b:18:88:6b:3a:
                    e3:0e:0a:95:0e:37:dd:7b:d8:49:43:f4:43:79:85:
                    8d:2f
                Exponent: 65537 (0x10001)
        X509v3 extensions:
            X509v3 Basic Constraints: 
                CA:FALSE
            Netscape Comment: 
                OpenSSL Generated Certificate
            X509v3 Subject Key Identifier: 
                F0:44:3A:E5:53:51:B9:18:53:E2:50:0D:85:85:52:33:71:88:F5:D9
            X509v3 Authority Key Identifier: 
                keyid:28:4B:14:74:83:1B:D1:89:D9:49:80:AF:D7:B3:45:63:AE:6E:31:A6

    Signature Algorithm: sha256WithRSAEncryption
         74:bb:14:dc:15:01:d3:9b:8e:57:8b:05:a4:66:99:0a:68:b5:
         6e:bc:8a:d3:77:87:be:f7:c5:b2:ed:51:21:b8:74:50:09:e8:
         a5:7b:c4:28:0a:ff:7b:07:4f:44:43:f6:fb:e5:ee:36:60:38:
         0f:76:a3:9c:0d:5b:52:f9:b3:40:24:89:f8:ae:7c:47:15:eb:
         fb:e2:60:3c:6b:c8:5d:47:8f:95:f7:fc:a6:1b:97:82:52:69:
         06:f5:51:54:37:2f:f7:c3:e4:fc:81:7d:e4:1d:de:5b:ed:f7:
         7d:d6:21:19:8d:16:e4:25:5f:db:09:7e:bc:1f:32:1b:28:56:
         17:0a:3d:ea:d0:9d:dd:b9:31:a1:f6:0b:ba:68:8d:81:e5:c2:
         bb:db:a6:56:87:c8:1c:b9:8d:d3:e5:41:5e:4e:3b:7c:07:ab:
         7a:e5:0b:8f:b3:cf:9a:3a:a0:b0:b5:3a:28:a4:2b:de:f8:51:
         f2:12:d5:ff:4e:05:2c:d8:55:6f:de:43:ae:72:70:2c:70:69:
         c4:52:32:1e:e1:9d:aa:8a:d3:bf:10:fc:2b:aa:e9:e2:2b:a2:
         12:c7:70:b1:03:c1:1d:90:aa:35:52:27:c8:d2:95:fa:51:2e:
         34:85:95:47:ac:43:de:86:10:50:84:14:36:47:5c:63:c3:b9:
         35:21:45:b3:1b:7b:76:18:24:86:55:05:94:ff:b0:a8:65:f7:
         9b:c3:04:4d:b3:6a:3a:4e:bd:2d:9c:36:da:95:33:71:fb:8a:
         92:52:dd:fd:5a:95:75:fc:a1:f4:ca:f5:3b:12:62:fe:80:c5:
         3b:ae:6e:fb:aa:45:ca:9c:ea:22:10:a2:ad:79:b0:c4:4b:c3:
         4e:8a:cc:53:99:cd:54:94:21:63:f0:90:6b:a1:92:13:72:6c:
         7b:ce:d4:5a:68:18:d1:9e:6c:b2:e2:a1:9c:d1:19:84:5f:df:
         8f:d8:ed:66:6a:55:0d:ef:fd:cd:bf:3e:8a:1a:78:8e:fc:2f:
         b5:01:54:a5:a0:82:46:57:3b:a6:e8:eb:2b:ad:ef:a4:8a:6b:
         24:e1:26:d1:1a:1f:b0:46:d4:64:b8:d2:b9:f1:1f:e0:29:a6:
         4e:7b:ca:29:f0:62:b0:c9:83:cf:b3:0b:bd:27:54:97:f6:43:
         1f:04:3c:a7:6d:6f:e1:36:9d:9c:11:d8:b7:49:01:10:d9:2e:
         43:20:13:0a:73:69:b0:59:ec:55:8d:22:3e:25:1a:94:f3:b4:
         80:4b:a6:07:b4:77:2b:2c:de:c4:6c:58:ca:59:c7:9b:43:45:
         b8:02:0e:f3:c6:99:9c:65:69:dd:26:e2:e1:7f:ef:fd:ab:dd:
         85:ca:57:6a:77:6e:15:e4
-----BEGIN CERTIFICATE-----
MIIFGTCCAwGgAwIBAgIBGTANBgkqhkiG9w0BAQsFADCBkzELMAkGA1UEBhMCVVMx
CzAJBgNVBAgMAkNBMREwDwYDVQQHDAhTdGFuZm9yZDENMAsGA1UECgwEQk1JUjEO
MAwGA1UECwwFQ0VEQVIxHDAaBgNVBAMME21ldGFkYXRhY2VudGVyLm9yZ3gxJzAl
BgkqhkiG9w0BCQEWGG1ldGFkYXRhY2VudGVyQGdtYWlsLmNvbTAeFw0yMzAzMTAw
MDE4MjdaFw0yNTA2MTEwMDE4MjdaMIGOMQswCQYDVQQGEwJVUzELMAkGA1UECAwC
Q0ExDTALBgNVBAoMBEJNSVIxDjAMBgNVBAsMBUNFREFSMSowKAYDVQQDDCFkZW1v
LWRpc3QuY2VlLm1ldGFkYXRhY2VudGVyLm9yZ3gxJzAlBgkqhkiG9w0BCQEWGG1l
dGFkYXRhY2VudGVyQGdtYWlsLmNvbTCCASIwDQYJKoZIhvcNAQEBBQADggEPADCC
AQoCggEBALVmyjeCHuWQpYwACFjtkz44sSXstOoK4M7+yjOc1Uk7bdkdAf7hbXnL
y5dbv0xAWl1qGdeDBrNp1Dun5hLDsudc8qL9yDjeyXpUnf4YWh5DsTn034JiZX++
+OwlMy1/dLHUWstyDoJq4x1qi4u/5Tsu7VDB/sMlrap3yuDfauvqHuWpkUa4M/ug
sNObLg7DGLVbQ/K3ZZflnaGOq8/tc0/RoKBrAExJ3hZ8YxI94Vr105lVzhO2xwWI
8yILKjPcZjwTRfyVC0sCOC9+40D3Dk6Slxn2Fr3GUTRoOkYPk7uadj6VoLzbnefH
+CsYiGs64w4KlQ433XvYSUP0Q3mFjS8CAwEAAaN7MHkwCQYDVR0TBAIwADAsBglg
hkgBhvhCAQ0EHxYdT3BlblNTTCBHZW5lcmF0ZWQgQ2VydGlmaWNhdGUwHQYDVR0O
BBYEFPBEOuVTUbkYU+JQDYWFUjNxiPXZMB8GA1UdIwQYMBaAFChLFHSDG9GJ2UmA
r9ezRWOubjGmMA0GCSqGSIb3DQEBCwUAA4ICAQB0uxTcFQHTm45XiwWkZpkKaLVu
vIrTd4e+98Wy7VEhuHRQCeile8QoCv97B09EQ/b75e42YDgPdqOcDVtS+bNAJIn4
rnxHFev74mA8a8hdR4+V9/ymG5eCUmkG9VFUNy/3w+T8gX3kHd5b7fd91iEZjRbk
JV/bCX68HzIbKFYXCj3q0J3duTGh9gu6aI2B5cK726ZWh8gcuY3T5UFeTjt8B6t6
5QuPs8+aOqCwtToopCve+FHyEtX/TgUs2FVv3kOucnAscGnEUjIe4Z2qitO/EPwr
quniK6ISx3CxA8EdkKo1UifI0pX6US40hZVHrEPehhBQhBQ2R1xjw7k1IUWzG3t2
GCSGVQWU/7CoZfebwwRNs2o6Tr0tnDbalTNx+4qSUt39WpV1/KH0yvU7EmL+gMU7
rm77qkXKnOoiEKKtebDES8NOisxTmc1UlCFj8JBroZITcmx7ztRaaBjRnmyy4qGc
0RmEX9+P2O1malUN7/3Nvz6KGniO/C+1AVSloIJGVzum6Osrre+kimsk4SbRGh+w
RtRkuNK58R/gKaZOe8op8GKwyYPPswu9J1SX9kMfBDynbW/hNp2cEdi3SQEQ2S5D
IBMKc2mwWexVjSI+JRqU87SAS6YHtHcrLN7EbFjKWcebQ0W4Ag7zxpmcZWndJuLh
f+/9q92Fyldqd24V5A==
-----END CERTIFICATE-----
