Certificate:
    Data:
        Version: 3 (0x2)
        Serial Number: 18 (0x12)
        Signature Algorithm: sha256WithRSAEncryption
        Issuer: C=US, ST=CA, L=Stanford, O=BMIR, OU=CEDAR, CN=metadatacenter.orgx/emailAddress=metadatacenter@gmail.com
        Validity
            Not Before: Jan 18 00:50:46 2024 GMT
            Not After : Apr 21 00:50:46 2026 GMT
        Subject: C=US, ST=CA, O=BMIR, OU=CEDAR, CN=openview.metadatacenter.orgx/emailAddress=metadatacenter@gmail.com
        Subject Public Key Info:
            Public Key Algorithm: rsaEncryption
                RSA Public-Key: (2048 bit)
                Modulus:
                    00:a1:8e:75:62:29:84:e8:d3:e1:c7:ce:8a:de:9c:
                    e1:1f:db:cc:c6:25:59:bf:65:4d:78:b5:39:cb:2c:
                    61:7d:e4:c9:fe:29:b1:30:8f:93:95:ba:ab:2e:2b:
                    6c:94:30:b0:2a:41:39:b1:67:12:47:2d:d7:f3:89:
                    4f:1a:09:33:cc:2b:75:30:da:ec:ad:b3:bd:4e:20:
                    75:f9:61:a8:ea:5a:aa:27:01:47:11:bf:9a:32:47:
                    e2:05:ed:e1:a2:3c:94:2c:3a:f0:83:3b:70:37:fa:
                    21:a6:e8:f7:e7:10:2e:57:87:e4:80:bf:44:ba:d0:
                    e3:59:d6:1f:84:7c:78:73:f5:ed:a7:16:d7:1d:98:
                    f0:56:cc:51:3d:7f:28:8c:06:e0:53:6b:fe:f4:d3:
                    a9:2b:cb:a6:f8:6d:c4:37:9c:c1:6e:a6:1e:27:56:
                    7b:5a:f5:7f:a3:e2:e7:56:cc:b8:09:d4:98:cf:fb:
                    0c:d7:0d:83:6f:f7:d5:b5:e1:3b:ba:9b:89:a4:d2:
                    94:d9:7c:75:50:87:45:30:6a:2c:a1:d6:a4:17:1f:
                    98:15:4c:15:ff:4b:73:c0:f1:fe:e3:3d:f3:58:e4:
                    f1:53:bd:b3:91:35:3c:82:c3:e5:b5:dd:80:28:08:
                    73:92:54:ec:4b:a0:25:89:59:3c:98:2c:e0:30:5a:
                    fa:5d
                Exponent: 65537 (0x10001)
        X509v3 extensions:
            X509v3 Basic Constraints: 
                CA:FALSE
            X509v3 Key Usage: 
                Digital Signature, Non Repudiation, Key Encipherment
            X509v3 Subject Alternative Name: 
                DNS:openview.metadatacenter.orgx
    Signature Algorithm: sha256WithRSAEncryption
         5a:4e:00:8c:fe:29:fc:b0:88:97:d4:f8:df:fb:62:77:28:4e:
         13:3b:3f:0e:9b:51:32:25:bf:ae:d7:cb:9c:f7:b2:fb:d3:a5:
         4b:55:da:f6:dc:53:1d:ea:3e:42:74:e8:98:b2:9c:33:83:c5:
         7b:b7:f4:46:e4:a7:0f:5e:e7:bb:0d:0e:f4:2c:a9:9b:82:6a:
         d7:d8:38:92:41:f2:78:51:d2:ec:d4:b1:6b:a9:cf:50:6a:21:
         4c:be:e2:e5:80:51:d2:50:d2:43:84:a8:98:6a:84:5d:6f:14:
         cf:00:09:a1:8d:e6:03:dc:d8:5f:db:67:90:81:d7:60:47:64:
         53:7c:d6:fd:36:ad:74:9d:79:fa:86:37:c7:47:93:20:80:ed:
         69:3f:6a:91:7e:99:75:fb:d6:83:78:93:6c:a4:bd:c0:a8:b1:
         04:ea:6c:c4:6a:2a:4b:81:4c:1d:24:c8:5e:af:ca:a2:e0:87:
         21:4a:d7:12:18:69:89:04:b6:33:06:27:e0:74:5b:57:fb:ac:
         dc:25:84:4c:13:83:06:49:72:94:6e:65:02:3b:31:ed:3b:93:
         57:32:f9:a9:3b:29:ce:41:49:c5:16:30:30:55:09:9a:a2:5d:
         09:b6:68:c6:7b:73:52:27:cc:ec:68:c6:e2:46:03:dd:18:67:
         fb:1a:dc:9f:39:70:d3:05:33:46:33:ba:13:6c:4f:7a:6c:71:
         7a:47:2c:6a:36:6c:ba:96:ce:d5:4b:f9:6f:be:a5:89:42:40:
         a7:d2:87:ad:2e:7b:35:9b:77:a0:d9:4c:cb:a1:1b:ab:98:15:
         9b:72:80:90:cb:e2:31:6b:53:85:42:73:6e:74:16:bd:f0:b7:
         c5:d3:34:46:d0:a0:f5:c7:0d:47:64:33:76:cc:1c:29:d1:17:
         a1:13:a6:bd:b4:f4:f5:f3:ad:b6:b8:ea:a2:e4:ad:2c:2d:92:
         85:6b:e4:12:2f:6f:34:3d:63:70:0c:52:e8:ea:23:36:9b:4e:
         4a:02:1f:a8:e4:6a:e1:25:96:30:ab:87:3a:95:a0:73:b9:fd:
         89:47:b7:77:7a:fc:14:8c:f2:8a:e7:c3:5d:4f:eb:08:1f:b9:
         4c:0d:75:5c:16:a5:c3:fe:29:02:26:44:d1:16:1f:cb:fc:0b:
         c2:90:8a:29:72:1b:a9:57:b5:07:f1:65:b0:5a:8c:73:e9:da:
         fa:fb:c5:b5:54:bf:a1:a6:5d:5e:91:9a:08:f9:17:9e:73:51:
         79:b1:d2:d5:3e:a0:94:e9:d6:b6:31:8d:a9:84:8a:09:51:e3:
         b7:5e:fa:5c:9d:b0:6c:22:a0:4e:50:cc:35:da:bf:45:7a:1f:
         30:dd:a0:a3:6e:d7:91:b0
-----BEGIN CERTIFICATE-----
MIIE3DCCAsSgAwIBAgIBEjANBgkqhkiG9w0BAQsFADCBkzELMAkGA1UEBhMCVVMx
CzAJBgNVBAgMAkNBMREwDwYDVQQHDAhTdGFuZm9yZDENMAsGA1UECgwEQk1JUjEO
MAwGA1UECwwFQ0VEQVIxHDAaBgNVBAMME21ldGFkYXRhY2VudGVyLm9yZ3gxJzAl
BgkqhkiG9w0BCQEWGG1ldGFkYXRhY2VudGVyQGdtYWlsLmNvbTAeFw0yNDAxMTgw
MDUwNDZaFw0yNjA0MjEwMDUwNDZaMIGJMQswCQYDVQQGEwJVUzELMAkGA1UECAwC
Q0ExDTALBgNVBAoMBEJNSVIxDjAMBgNVBAsMBUNFREFSMSUwIwYDVQQDDBxvcGVu
dmlldy5tZXRhZGF0YWNlbnRlci5vcmd4MScwJQYJKoZIhvcNAQkBFhhtZXRhZGF0
YWNlbnRlckBnbWFpbC5jb20wggEiMA0GCSqGSIb3DQEBAQUAA4IBDwAwggEKAoIB
AQChjnViKYTo0+HHzorenOEf28zGJVm/ZU14tTnLLGF95Mn+KbEwj5OVuqsuK2yU
MLAqQTmxZxJHLdfziU8aCTPMK3Uw2uyts71OIHX5YajqWqonAUcRv5oyR+IF7eGi
PJQsOvCDO3A3+iGm6PfnEC5Xh+SAv0S60ONZ1h+EfHhz9e2nFtcdmPBWzFE9fyiM
BuBTa/7006kry6b4bcQ3nMFuph4nVnta9X+j4udWzLgJ1JjP+wzXDYNv99W14Tu6
m4mk0pTZfHVQh0Uwaiyh1qQXH5gVTBX/S3PA8f7jPfNY5PFTvbORNTyCw+W13YAo
CHOSVOxLoCWJWTyYLOAwWvpdAgMBAAGjQzBBMAkGA1UdEwQCMAAwCwYDVR0PBAQD
AgXgMCcGA1UdEQQgMB6CHG9wZW52aWV3Lm1ldGFkYXRhY2VudGVyLm9yZ3gwDQYJ
KoZIhvcNAQELBQADggIBAFpOAIz+KfywiJfU+N/7YncoThM7Pw6bUTIlv67Xy5z3
svvTpUtV2vbcUx3qPkJ06JiynDODxXu39Ebkpw9e57sNDvQsqZuCatfYOJJB8nhR
0uzUsWupz1BqIUy+4uWAUdJQ0kOEqJhqhF1vFM8ACaGN5gPc2F/bZ5CB12BHZFN8
1v02rXSdefqGN8dHkyCA7Wk/apF+mXX71oN4k2ykvcCosQTqbMRqKkuBTB0kyF6v
yqLghyFK1xIYaYkEtjMGJ+B0W1f7rNwlhEwTgwZJcpRuZQI7Me07k1cy+ak7Kc5B
ScUWMDBVCZqiXQm2aMZ7c1InzOxoxuJGA90YZ/sa3J85cNMFM0YzuhNsT3pscXpH
LGo2bLqWztVL+W++pYlCQKfSh60uezWbd6DZTMuhG6uYFZtygJDL4jFrU4VCc250
Fr3wt8XTNEbQoPXHDUdkM3bMHCnRF6ETpr209PXzrba46qLkrSwtkoVr5BIvbzQ9
Y3AMUujqIzabTkoCH6jkauElljCrhzqVoHO5/YlHt3d6/BSM8ornw11P6wgfuUwN
dVwWpcP+KQImRNEWH8v8C8KQiilyG6lXtQfxZbBajHPp2vr7xbVUv6GmXV6Rmgj5
F55zUXmx0tU+oJTp1rYxjamEiglR47de+lydsGwioE5QzDXav0V6HzDdoKNu15Gw
-----END CERTIFICATE-----
