Certificate:
    Data:
        Version: 3 (0x2)
        Serial Number: 18 (0x12)
        Signature Algorithm: sha256WithRSAEncryption
        Issuer: C=US, ST=CA, L=Stanford, O=BMIR, OU=CEDAR, CN=metadatacenter.orgx/emailAddress=metadatacenter@gmail.com
        Validity
            Not Before: Jan 17 21:50:44 2024 GMT
            Not After : Apr 20 21:50:44 2026 GMT
        Subject: C=US, ST=CA, O=BMIR, OU=CEDAR, CN=openview.metadatacenter.orgx/emailAddress=metadatacenter@gmail.com
        Subject Public Key Info:
            Public Key Algorithm: rsaEncryption
                RSA Public-Key: (2048 bit)
                Modulus:
                    00:b6:19:00:ab:b8:97:26:f6:37:2a:be:cf:f7:40:
                    a0:0b:46:b0:63:be:0a:c9:79:47:0d:90:80:8d:61:
                    f9:f9:20:1f:7e:b8:bc:2c:03:fc:f7:00:90:b8:34:
                    14:6a:e0:f3:c2:e5:bd:1b:a0:0e:cf:fe:8a:e8:97:
                    b3:ce:61:a3:f9:a0:5b:cb:5a:f6:64:10:5e:da:02:
                    90:38:4f:c3:01:ba:90:f8:8d:4d:28:60:50:67:45:
                    63:7e:47:25:cc:6f:ac:d6:5e:a3:82:e7:c2:91:bd:
                    38:e8:eb:0b:6e:b3:de:75:24:ad:d6:45:5a:a3:c7:
                    c2:b7:0d:a5:ac:3e:0c:10:b9:8c:0d:8d:92:31:ac:
                    4a:4d:7a:7c:03:bc:10:86:fe:a9:79:62:03:f4:83:
                    f2:78:91:58:1a:1a:88:d6:84:13:98:95:8a:62:08:
                    22:b7:59:ea:e1:d0:4f:2d:9a:6a:ed:0b:b3:e8:3c:
                    71:ee:c2:51:70:08:ef:2b:59:b5:3a:e7:b8:c0:a3:
                    c9:75:18:8f:e6:86:3b:e0:45:fd:93:4c:17:77:23:
                    12:52:97:aa:61:af:4a:d0:77:6f:b9:cf:a4:93:61:
                    6e:c4:84:93:08:ba:53:40:0f:59:0e:79:c5:c7:15:
                    88:2c:af:f4:12:09:97:7b:3d:94:96:fe:87:0b:24:
                    21:f5
                Exponent: 65537 (0x10001)
        X509v3 extensions:
            X509v3 Basic Constraints: 
                CA:FALSE
            X509v3 Key Usage: 
                Digital Signature, Non Repudiation, Key Encipherment
            X509v3 Subject Alternative Name: 
                DNS:openview.metadatacenter.orgx
    Signature Algorithm: sha256WithRSAEncryption
         9e:c1:51:11:77:6c:f2:57:e3:3c:50:dd:9b:90:c7:a9:84:2f:
         a0:77:98:d1:b1:e7:07:64:c6:aa:84:e5:cd:3d:e9:bd:31:3f:
         79:71:24:d1:1e:0d:65:f4:f2:50:91:b8:8a:b1:2c:12:c2:80:
         f0:1e:86:cb:7c:bf:a8:ac:c9:c4:d9:6d:ab:a5:66:68:d9:19:
         cd:88:7b:e2:31:6a:0a:8d:a8:06:5b:03:09:35:ab:d0:ad:80:
         19:3a:a2:ff:2b:f4:f6:cf:3e:61:39:ac:82:e2:ea:e5:cb:62:
         5c:fd:dc:62:49:7a:37:e1:12:c0:f4:22:2d:ad:61:c4:e4:b5:
         65:68:cd:0b:d9:6a:d3:b6:a0:84:37:70:32:43:3f:a3:0d:31:
         45:c0:1b:21:f2:7a:54:16:7d:e3:8b:68:14:09:c4:fa:18:38:
         84:87:0a:89:c2:2c:9b:49:23:39:24:dc:e2:2d:2d:e3:ae:32:
         13:20:4a:eb:98:56:7a:28:e4:66:3d:34:55:ae:9e:da:c5:88:
         c7:a3:2c:fb:8e:8e:ca:cb:23:2a:5d:bc:22:66:2b:6b:78:ff:
         6e:c9:73:e2:b6:a8:d3:a8:8b:6e:cf:c5:69:97:1e:e5:a8:75:
         96:fa:d1:88:0e:2a:0a:f2:94:d4:20:52:3a:1e:a9:78:16:08:
         07:4c:fc:06:ba:b2:62:75:bb:cd:2e:ac:c7:53:51:1a:2f:ee:
         6a:c1:02:35:3d:99:87:92:d7:dd:aa:a6:de:19:d0:0d:96:f1:
         cf:dc:fe:15:5f:e5:14:37:58:81:60:bf:39:82:e8:c0:2c:4d:
         d2:8b:9a:c6:a8:67:81:95:3d:21:2b:d9:6f:67:c1:42:e5:5f:
         04:02:6b:7f:53:da:1e:69:08:34:96:75:21:9b:82:3a:39:9c:
         ab:37:e7:4c:f4:18:ae:3d:d1:5b:84:8c:d8:e3:e7:ee:fd:0a:
         23:82:c5:33:94:c2:67:d4:12:54:89:b4:cb:c9:1b:e4:0a:df:
         91:ab:88:95:23:a0:c1:8c:f8:cb:d0:e5:88:97:db:a9:ae:c7:
         77:b1:63:9a:59:85:24:fb:18:9b:c3:fb:4c:a5:07:4b:22:28:
         39:70:33:58:77:4d:47:2f:b0:4e:52:ae:86:a1:b7:8b:42:03:
         aa:cd:89:44:d5:11:66:6f:e0:44:4f:7f:07:65:70:49:7d:8e:
         7e:09:0c:e0:8a:80:11:57:22:e1:71:0b:40:96:c6:fe:f3:1e:
         b2:36:ce:d2:17:4a:78:cb:ff:7c:12:ab:a7:e0:5d:26:f4:4b:
         e9:bf:53:f6:ab:f1:d0:df:e4:f4:63:b0:a8:53:9f:ad:6b:0e:
         f8:45:0b:7c:e3:20:ee:3b
-----BEGIN CERTIFICATE-----
MIIE3DCCAsSgAwIBAgIBEjANBgkqhkiG9w0BAQsFADCBkzELMAkGA1UEBhMCVVMx
CzAJBgNVBAgMAkNBMREwDwYDVQQHDAhTdGFuZm9yZDENMAsGA1UECgwEQk1JUjEO
MAwGA1UECwwFQ0VEQVIxHDAaBgNVBAMME21ldGFkYXRhY2VudGVyLm9yZ3gxJzAl
BgkqhkiG9w0BCQEWGG1ldGFkYXRhY2VudGVyQGdtYWlsLmNvbTAeFw0yNDAxMTcy
MTUwNDRaFw0yNjA0MjAyMTUwNDRaMIGJMQswCQYDVQQGEwJVUzELMAkGA1UECAwC
Q0ExDTALBgNVBAoMBEJNSVIxDjAMBgNVBAsMBUNFREFSMSUwIwYDVQQDDBxvcGVu
dmlldy5tZXRhZGF0YWNlbnRlci5vcmd4MScwJQYJKoZIhvcNAQkBFhhtZXRhZGF0
YWNlbnRlckBnbWFpbC5jb20wggEiMA0GCSqGSIb3DQEBAQUAA4IBDwAwggEKAoIB
AQC2GQCruJcm9jcqvs/3QKALRrBjvgrJeUcNkICNYfn5IB9+uLwsA/z3AJC4NBRq
4PPC5b0boA7P/orol7POYaP5oFvLWvZkEF7aApA4T8MBupD4jU0oYFBnRWN+RyXM
b6zWXqOC58KRvTjo6wtus951JK3WRVqjx8K3DaWsPgwQuYwNjZIxrEpNenwDvBCG
/ql5YgP0g/J4kVgaGojWhBOYlYpiCCK3Werh0E8tmmrtC7PoPHHuwlFwCO8rWbU6
57jAo8l1GI/mhjvgRf2TTBd3IxJSl6phr0rQd2+5z6STYW7EhJMIulNAD1kOecXH
FYgsr/QSCZd7PZSW/ocLJCH1AgMBAAGjQzBBMAkGA1UdEwQCMAAwCwYDVR0PBAQD
AgXgMCcGA1UdEQQgMB6CHG9wZW52aWV3Lm1ldGFkYXRhY2VudGVyLm9yZ3gwDQYJ
KoZIhvcNAQELBQADggIBAJ7BURF3bPJX4zxQ3ZuQx6mEL6B3mNGx5wdkxqqE5c09
6b0xP3lxJNEeDWX08lCRuIqxLBLCgPAehst8v6isycTZbaulZmjZGc2Ie+IxagqN
qAZbAwk1q9CtgBk6ov8r9PbPPmE5rILi6uXLYlz93GJJejfhEsD0Ii2tYcTktWVo
zQvZatO2oIQ3cDJDP6MNMUXAGyHyelQWfeOLaBQJxPoYOISHConCLJtJIzkk3OIt
LeOuMhMgSuuYVnoo5GY9NFWuntrFiMejLPuOjsrLIypdvCJmK2t4/27Jc+K2qNOo
i27PxWmXHuWodZb60YgOKgrylNQgUjoeqXgWCAdM/Aa6smJ1u80urMdTURov7mrB
AjU9mYeS192qpt4Z0A2W8c/c/hVf5RQ3WIFgvzmC6MAsTdKLmsaoZ4GVPSEr2W9n
wULlXwQCa39T2h5pCDSWdSGbgjo5nKs350z0GK490VuEjNjj5+79CiOCxTOUwmfU
ElSJtMvJG+QK35GriJUjoMGM+MvQ5YiX26mux3exY5pZhST7GJvD+0ylB0siKDlw
M1h3TUcvsE5Sroaht4tCA6rNiUTVEWZv4ERPfwdlcEl9jn4JDOCKgBFXIuFxC0CW
xv7zHrI2ztIXSnjL/3wSq6fgXSb0S+m/U/ar8dDf5PRjsKhTn61rDvhFC3zjIO47
-----END CERTIFICATE-----
