Certificate:
    Data:
        Version: 3 (0x2)
        Serial Number: 13 (0xd)
        Signature Algorithm: sha256WithRSAEncryption
        Issuer: C=US, ST=CA, L=Stanford, O=BMIR, OU=CEDAR, CN=metadatacenter.orgx/emailAddress=metadatacenter@gmail.com
        Validity
            Not Before: Jan 17 21:50:44 2024 GMT
            Not After : Apr 20 21:50:44 2026 GMT
        Subject: C=US, ST=CA, O=BMIR, OU=CEDAR, CN=terminology.metadatacenter.orgx/emailAddress=metadatacenter@gmail.com
        Subject Public Key Info:
            Public Key Algorithm: rsaEncryption
                RSA Public-Key: (2048 bit)
                Modulus:
                    00:bb:29:15:87:73:95:26:5d:12:ad:1b:68:41:bf:
                    08:48:c5:06:7c:58:de:05:89:f1:24:fe:60:46:3c:
                    4b:89:92:5f:e1:ed:da:7f:d9:41:55:04:9c:56:68:
                    d2:6f:2a:21:4d:70:c3:55:f8:a4:b1:f9:19:6f:5c:
                    25:80:61:83:d4:43:ec:53:f7:fd:48:ff:f6:8e:f7:
                    e1:e6:c7:c7:75:82:0b:e0:a5:d5:c2:f7:d3:e7:e6:
                    e3:b2:d3:ea:8b:a4:69:2b:e7:85:7a:4a:1a:51:6f:
                    cd:ed:c6:a5:82:41:b3:cf:d0:b8:e2:05:f5:b7:08:
                    55:6d:29:c4:ae:ce:31:05:4e:e0:3d:07:56:33:ba:
                    6c:39:fc:27:7a:a2:53:0d:39:47:af:28:3f:a5:c1:
                    c5:e2:d4:a1:a6:60:ae:6e:a2:8c:61:e6:4f:87:28:
                    52:cb:fe:a3:40:5c:51:a2:ba:53:33:4b:8c:34:21:
                    ff:69:9a:d2:4a:3c:8a:96:6e:e2:40:a4:23:7a:1c:
                    45:1b:c5:22:83:c3:f0:b8:2c:88:84:1f:cd:b5:77:
                    2c:c4:4a:57:1f:c0:94:dd:3a:22:ca:14:d8:00:ba:
                    e0:80:7e:20:84:d0:e4:7e:31:47:3d:d0:9c:16:41:
                    9d:c1:9e:9b:a4:b9:4d:1d:2e:d5:a4:55:0e:ba:53:
                    93:0f
                Exponent: 65537 (0x10001)
        X509v3 extensions:
            X509v3 Basic Constraints: 
                CA:FALSE
            X509v3 Key Usage: 
                Digital Signature, Non Repudiation, Key Encipherment
            X509v3 Subject Alternative Name: 
                DNS:terminology.metadatacenter.orgx
    Signature Algorithm: sha256WithRSAEncryption
         9c:9c:75:24:21:da:79:0c:df:b7:2f:79:81:2e:0d:3a:4c:44:
         4b:26:85:0a:06:3a:cc:9d:ee:c8:67:45:4e:dd:c6:f6:ef:6a:
         dd:b8:e5:0a:bf:9a:a7:b9:75:85:ee:7a:d6:63:e6:2c:73:21:
         fa:26:c5:b4:ca:fd:9e:82:f5:65:6a:96:63:14:74:cd:4e:e5:
         ab:db:59:ae:f1:fa:bc:50:8c:29:32:b0:6c:12:35:23:58:35:
         f7:ef:b0:67:d5:8b:f3:f5:60:bd:ab:ce:0e:06:82:4c:39:93:
         71:f4:a3:1b:64:02:22:fb:35:4b:77:60:e7:69:75:50:7b:f0:
         29:18:c9:f7:ba:10:40:d0:4b:22:e8:8d:bb:9a:44:1c:59:23:
         20:50:a5:fa:1e:b6:43:af:3b:32:ad:21:38:3b:15:35:00:f3:
         b7:2c:69:e4:be:ef:54:f8:75:de:8d:8b:cd:3d:19:4a:b4:71:
         1b:92:cf:64:94:0d:44:15:aa:22:de:e2:f5:40:b4:ba:4c:c5:
         93:b9:ab:5b:fd:2b:7b:68:ba:10:8e:0e:4d:49:ee:25:d8:67:
         ac:c9:cd:84:23:aa:05:45:e0:89:25:1e:f7:e9:7d:e5:ec:96:
         24:d7:7b:bf:73:21:89:5a:7b:ad:a1:7c:01:7c:e9:bd:4b:4f:
         9a:05:47:72:4a:8c:a7:9e:29:47:37:02:46:43:ee:7d:fa:c5:
         d3:29:b8:ff:f1:99:a2:03:41:e2:0c:9c:cf:e2:f0:0e:88:03:
         2c:af:0d:cd:8a:c1:c6:d1:4c:c2:df:3a:6c:52:30:dd:79:18:
         94:15:9d:9a:39:6f:39:9f:be:c8:96:92:ce:d6:1d:d5:71:6d:
         8c:9d:58:15:a4:93:8f:96:c5:69:d9:5f:dc:f9:23:15:59:9f:
         b1:38:0a:b4:61:f3:96:da:f2:57:11:1a:e3:19:73:40:54:2c:
         c0:33:6c:80:31:60:5c:57:e1:a2:66:40:11:2b:ad:fa:9c:c7:
         06:2b:ba:f4:e9:c1:29:89:eb:08:d2:b4:02:18:3c:e3:e5:22:
         88:5d:8d:c1:cf:eb:ce:cc:8c:e2:9f:86:f9:38:67:e3:a0:a7:
         a0:23:08:ea:4a:44:35:a2:c8:2d:30:ac:49:68:3e:41:fa:37:
         d5:da:f2:a9:f2:69:3a:ee:b1:e1:1f:68:40:e9:fb:98:69:3d:
         f6:6c:ae:3e:38:a7:88:fd:64:d2:4c:3d:8d:e6:89:98:97:8c:
         e1:ed:7f:c7:a5:26:78:64:07:6f:d0:06:57:24:e3:38:90:5f:
         87:0c:75:58:26:69:c2:20:08:29:0f:75:53:bc:98:35:1a:2d:
         91:02:23:76:7f:88:2f:02
-----BEGIN CERTIFICATE-----
MIIE4jCCAsqgAwIBAgIBDTANBgkqhkiG9w0BAQsFADCBkzELMAkGA1UEBhMCVVMx
CzAJBgNVBAgMAkNBMREwDwYDVQQHDAhTdGFuZm9yZDENMAsGA1UECgwEQk1JUjEO
MAwGA1UECwwFQ0VEQVIxHDAaBgNVBAMME21ldGFkYXRhY2VudGVyLm9yZ3gxJzAl
BgkqhkiG9w0BCQEWGG1ldGFkYXRhY2VudGVyQGdtYWlsLmNvbTAeFw0yNDAxMTcy
MTUwNDRaFw0yNjA0MjAyMTUwNDRaMIGMMQswCQYDVQQGEwJVUzELMAkGA1UECAwC
Q0ExDTALBgNVBAoMBEJNSVIxDjAMBgNVBAsMBUNFREFSMSgwJgYDVQQDDB90ZXJt
aW5vbG9neS5tZXRhZGF0YWNlbnRlci5vcmd4MScwJQYJKoZIhvcNAQkBFhhtZXRh
ZGF0YWNlbnRlckBnbWFpbC5jb20wggEiMA0GCSqGSIb3DQEBAQUAA4IBDwAwggEK
AoIBAQC7KRWHc5UmXRKtG2hBvwhIxQZ8WN4FifEk/mBGPEuJkl/h7dp/2UFVBJxW
aNJvKiFNcMNV+KSx+RlvXCWAYYPUQ+xT9/1I//aO9+Hmx8d1ggvgpdXC99Pn5uOy
0+qLpGkr54V6ShpRb83txqWCQbPP0LjiBfW3CFVtKcSuzjEFTuA9B1Yzumw5/Cd6
olMNOUevKD+lwcXi1KGmYK5uooxh5k+HKFLL/qNAXFGiulMzS4w0If9pmtJKPIqW
buJApCN6HEUbxSKDw/C4LIiEH821dyzESlcfwJTdOiLKFNgAuuCAfiCE0OR+MUc9
0JwWQZ3BnpukuU0dLtWkVQ66U5MPAgMBAAGjRjBEMAkGA1UdEwQCMAAwCwYDVR0P
BAQDAgXgMCoGA1UdEQQjMCGCH3Rlcm1pbm9sb2d5Lm1ldGFkYXRhY2VudGVyLm9y
Z3gwDQYJKoZIhvcNAQELBQADggIBAJycdSQh2nkM37cveYEuDTpMREsmhQoGOsyd
7shnRU7dxvbvat245Qq/mqe5dYXuetZj5ixzIfomxbTK/Z6C9WVqlmMUdM1O5avb
Wa7x+rxQjCkysGwSNSNYNffvsGfVi/P1YL2rzg4Ggkw5k3H0oxtkAiL7NUt3YOdp
dVB78CkYyfe6EEDQSyLojbuaRBxZIyBQpfoetkOvOzKtITg7FTUA87csaeS+71T4
dd6Ni809GUq0cRuSz2SUDUQVqiLe4vVAtLpMxZO5q1v9K3touhCODk1J7iXYZ6zJ
zYQjqgVF4IklHvfpfeXsliTXe79zIYlae62hfAF86b1LT5oFR3JKjKeeKUc3AkZD
7n36xdMpuP/xmaIDQeIMnM/i8A6IAyyvDc2KwcbRTMLfOmxSMN15GJQVnZo5bzmf
vsiWks7WHdVxbYydWBWkk4+WxWnZX9z5IxVZn7E4CrRh85ba8lcRGuMZc0BULMAz
bIAxYFxX4aJmQBErrfqcxwYruvTpwSmJ6wjStAIYPOPlIohdjcHP687MjOKfhvk4
Z+Ogp6AjCOpKRDWiyC0wrEloPkH6N9Xa8qnyaTruseEfaEDp+5hpPfZsrj44p4j9
ZNJMPY3miZiXjOHtf8elJnhkB2/QBlck4ziQX4cMdVgmacIgCCkPdVO8mDUaLZEC
I3Z/iC8C
-----END CERTIFICATE-----
