Certificate:
    Data:
        Version: 3 (0x2)
        Serial Number: 0 (0x0)
        Signature Algorithm: sha256WithRSAEncryption
        Issuer: C=US, ST=CA, L=Stanford, O=BMIR, OU=CEDAR, CN=metadatacenter.orgx/emailAddress=metadatacenter@gmail.com
        Validity
            Not Before: Sep 21 18:32:11 2022 GMT
            Not After : Dec 23 18:32:11 2024 GMT
        Subject: C=US, ST=CA, O=BMIR, OU=CEDAR, CN=auth.metadatacenter.orgx/emailAddress=metadatacenter@gmail.com
        Subject Public Key Info:
            Public Key Algorithm: rsaEncryption
                RSA Public-Key: (2048 bit)
                Modulus:
                    00:ee:b1:b5:a6:8f:28:6a:a7:66:dc:85:71:40:08:
                    23:a5:fd:d9:b4:e8:81:66:38:b5:da:42:d5:b0:15:
                    75:b8:a7:13:b3:59:54:e6:09:e1:bc:df:01:62:b6:
                    50:43:f7:ed:54:70:bd:13:7f:f9:aa:12:b8:3a:cb:
                    da:80:2d:08:47:6d:41:3a:17:25:4e:f5:d8:c6:92:
                    ee:a4:a5:87:a1:8b:b5:f1:15:5c:6a:2d:c2:33:13:
                    37:a9:57:cf:46:42:76:ca:3f:17:b8:56:cf:71:2f:
                    a0:6e:69:95:75:44:4a:c6:f0:84:27:6c:12:e0:e7:
                    9f:61:bc:c9:c4:4c:86:33:34:f4:4d:bd:70:62:d6:
                    7d:c1:43:6f:7e:d9:ec:0c:29:75:52:53:fc:9b:fd:
                    24:0f:08:91:9b:ee:4f:2f:13:b5:b1:fb:b8:e5:66:
                    6f:16:f3:af:d4:b4:02:0b:28:5e:58:fb:7a:ab:bd:
                    7d:ee:25:94:da:4e:3e:6e:b7:2c:a0:8d:fa:19:a2:
                    75:30:1e:a8:7e:2a:0b:30:09:8d:11:39:ff:56:ab:
                    58:d0:f6:48:a8:05:cd:52:2d:3d:fd:55:12:4c:37:
                    20:cf:e9:53:15:24:07:b1:93:31:16:9f:bc:5e:5f:
                    57:ed:39:e8:47:b2:dc:90:48:08:9b:30:54:82:b4:
                    31:03
                Exponent: 65537 (0x10001)
        X509v3 extensions:
            X509v3 Basic Constraints: 
                CA:FALSE
            X509v3 Key Usage: 
                Digital Signature, Non Repudiation, Key Encipherment
            X509v3 Subject Alternative Name: 
                DNS:artifact.metadatacenter.orgx, DNS:auth.metadatacenter.orgx, DNS:cedar.metadatacenter.orgx, DNS:component.metadatacenter.orgx, DNS:group.metadatacenter.orgx, DNS:impex.metadatacenter.orgx, DNS:internals.metadatacenter.orgx, DNS:messaging.metadatacenter.orgx, DNS:open.metadatacenter.orgx, DNS:openview.metadatacenter.orgx, DNS:repo.metadatacenter.orgx, DNS:resource.metadatacenter.orgx, DNS:schema.metadatacenter.orgx, DNS:submission.metadatacenter.orgx, DNS:terminology.metadatacenter.orgx, DNS:user.metadatacenter.orgx, DNS:valuerecommender.metadatacenter.orgx, DNS:worker.metadatacenter.orgx
    Signature Algorithm: sha256WithRSAEncryption
         a3:2c:ec:1b:d1:d4:be:1a:a6:f6:f4:93:b4:86:e8:2d:13:5a:
         16:fc:56:dc:a5:15:89:32:0e:71:45:49:6d:5d:5b:f3:ae:c4:
         6d:fd:c5:9f:ce:cd:3a:4e:d3:96:03:78:99:7b:a2:37:47:1a:
         c0:78:9b:96:88:7b:69:25:ea:19:30:c6:c4:32:2a:94:69:ba:
         b1:45:f8:2c:d4:c6:8c:9d:50:aa:ec:00:ea:ae:43:0e:10:1e:
         99:27:cc:35:ca:89:9f:f2:a1:af:3b:cb:fa:09:b8:36:3b:ae:
         68:c8:8f:ce:88:ae:be:7d:90:1d:4e:d4:60:90:66:3c:ff:bd:
         3f:18:17:db:10:32:86:eb:b4:51:8a:13:02:51:f6:4e:57:03:
         e1:69:cf:87:3a:93:3e:c9:20:13:e8:36:13:44:ad:00:f2:bd:
         5e:78:f6:28:59:91:d9:e2:24:6b:ae:32:cb:32:3e:3d:6f:99:
         b3:28:72:00:98:18:38:02:d4:3f:15:aa:4c:24:24:ff:f5:99:
         f1:96:94:51:2a:4a:f7:ba:4c:40:04:0b:7a:97:1e:f5:f3:f0:
         b6:67:4e:ad:f7:1c:35:02:a0:f6:a2:92:1a:34:d0:99:a2:a7:
         11:bf:ff:62:cf:50:e9:1f:99:c4:29:a8:63:10:6a:de:3d:bc:
         63:1a:41:dd:17:4b:04:31:86:6c:c4:ab:da:f7:5a:e2:66:e0:
         09:e2:09:ac:86:fd:18:b5:dc:4e:ea:95:25:41:45:46:76:d2:
         ef:39:de:b9:d8:57:f5:f1:66:2d:8e:13:9d:15:4f:46:ef:63:
         96:4d:f3:a7:1c:e1:be:57:be:4b:81:88:fa:f6:fd:e6:8e:a9:
         34:97:40:35:54:cc:51:46:4a:18:89:f4:d9:7e:9d:07:5f:49:
         ca:fe:5e:c0:50:9f:c2:30:a0:e0:b1:7d:c6:b6:38:80:36:33:
         db:e6:8d:62:b4:63:09:c8:6e:49:a9:32:3b:01:f8:a3:97:b0:
         5f:7c:b4:47:db:08:a9:4f:4d:f5:a8:44:8f:02:2e:bb:40:28:
         45:3d:0a:2e:83:01:e2:6f:28:0a:cd:df:4f:d6:35:aa:32:2e:
         d9:b0:41:f9:9b:97:d5:ab:e1:56:72:f6:7c:4a:35:b4:a7:28:
         41:af:f4:aa:df:df:d9:d0:77:3b:27:05:eb:85:66:29:b6:a1:
         a7:4c:13:53:14:b8:37:13:46:7f:a1:cc:43:d0:24:27:dd:fe:
         e2:78:b6:dc:a1:9c:db:7f:13:6d:b3:a2:37:1a:af:a0:3c:95:
         d3:e8:64:c7:f6:6b:d1:b2:15:5f:1f:e2:b7:41:a0:a6:2b:86:
         64:61:b5:57:0d:9b:42:e5
-----BEGIN CERTIFICATE-----
MIIG0zCCBLugAwIBAgIBADANBgkqhkiG9w0BAQsFADCBkzELMAkGA1UEBhMCVVMx
CzAJBgNVBAgMAkNBMREwDwYDVQQHDAhTdGFuZm9yZDENMAsGA1UECgwEQk1JUjEO
MAwGA1UECwwFQ0VEQVIxHDAaBgNVBAMME21ldGFkYXRhY2VudGVyLm9yZ3gxJzAl
BgkqhkiG9w0BCQEWGG1ldGFkYXRhY2VudGVyQGdtYWlsLmNvbTAeFw0yMjA5MjEx
ODMyMTFaFw0yNDEyMjMxODMyMTFaMIGFMQswCQYDVQQGEwJVUzELMAkGA1UECAwC
Q0ExDTALBgNVBAoMBEJNSVIxDjAMBgNVBAsMBUNFREFSMSEwHwYDVQQDDBhhdXRo
Lm1ldGFkYXRhY2VudGVyLm9yZ3gxJzAlBgkqhkiG9w0BCQEWGG1ldGFkYXRhY2Vu
dGVyQGdtYWlsLmNvbTCCASIwDQYJKoZIhvcNAQEBBQADggEPADCCAQoCggEBAO6x
taaPKGqnZtyFcUAII6X92bTogWY4tdpC1bAVdbinE7NZVOYJ4bzfAWK2UEP37VRw
vRN/+aoSuDrL2oAtCEdtQToXJU712MaS7qSlh6GLtfEVXGotwjMTN6lXz0ZCdso/
F7hWz3EvoG5plXVESsbwhCdsEuDnn2G8ycRMhjM09E29cGLWfcFDb37Z7AwpdVJT
/Jv9JA8IkZvuTy8TtbH7uOVmbxbzr9S0AgsoXlj7equ9fe4llNpOPm63LKCN+hmi
dTAeqH4qCzAJjRE5/1arWND2SKgFzVItPf1VEkw3IM/pUxUkB7GTMRafvF5fV+05
6Eey3JBICJswVIK0MQMCAwEAAaOCAjwwggI4MAkGA1UdEwQCMAAwCwYDVR0PBAQD
AgXgMIICHAYDVR0RBIICEzCCAg+CHGFydGlmYWN0Lm1ldGFkYXRhY2VudGVyLm9y
Z3iCGGF1dGgubWV0YWRhdGFjZW50ZXIub3JneIIZY2VkYXIubWV0YWRhdGFjZW50
ZXIub3JneIIdY29tcG9uZW50Lm1ldGFkYXRhY2VudGVyLm9yZ3iCGWdyb3VwLm1l
dGFkYXRhY2VudGVyLm9yZ3iCGWltcGV4Lm1ldGFkYXRhY2VudGVyLm9yZ3iCHWlu
dGVybmFscy5tZXRhZGF0YWNlbnRlci5vcmd4gh1tZXNzYWdpbmcubWV0YWRhdGFj
ZW50ZXIub3JneIIYb3Blbi5tZXRhZGF0YWNlbnRlci5vcmd4ghxvcGVudmlldy5t
ZXRhZGF0YWNlbnRlci5vcmd4ghhyZXBvLm1ldGFkYXRhY2VudGVyLm9yZ3iCHHJl
c291cmNlLm1ldGFkYXRhY2VudGVyLm9yZ3iCGnNjaGVtYS5tZXRhZGF0YWNlbnRl
ci5vcmd4gh5zdWJtaXNzaW9uLm1ldGFkYXRhY2VudGVyLm9yZ3iCH3Rlcm1pbm9s
b2d5Lm1ldGFkYXRhY2VudGVyLm9yZ3iCGHVzZXIubWV0YWRhdGFjZW50ZXIub3Jn
eIIkdmFsdWVyZWNvbW1lbmRlci5tZXRhZGF0YWNlbnRlci5vcmd4ghp3b3JrZXIu
bWV0YWRhdGFjZW50ZXIub3JneDANBgkqhkiG9w0BAQsFAAOCAgEAoyzsG9HUvhqm
9vSTtIboLRNaFvxW3KUViTIOcUVJbV1b867Ebf3Fn87NOk7TlgN4mXuiN0cawHib
loh7aSXqGTDGxDIqlGm6sUX4LNTGjJ1QquwA6q5DDhAemSfMNcqJn/KhrzvL+gm4
NjuuaMiPzoiuvn2QHU7UYJBmPP+9PxgX2xAyhuu0UYoTAlH2TlcD4WnPhzqTPskg
E+g2E0StAPK9Xnj2KFmR2eIka64yyzI+PW+ZsyhyAJgYOALUPxWqTCQk//WZ8ZaU
USpK97pMQAQLepce9fPwtmdOrfccNQKg9qKSGjTQmaKnEb//Ys9Q6R+ZxCmoYxBq
3j28YxpB3RdLBDGGbMSr2vda4mbgCeIJrIb9GLXcTuqVJUFFRnbS7zneudhX9fFm
LY4TnRVPRu9jlk3zpxzhvle+S4GI+vb95o6pNJdANVTMUUZKGIn02X6dB19Jyv5e
wFCfwjCg4LF9xrY4gDYz2+aNYrRjCchuSakyOwH4o5ewX3y0R9sIqU9N9ahEjwIu
u0AoRT0KLoMB4m8oCs3fT9Y1qjIu2bBB+ZuX1avhVnL2fEo1tKcoQa/0qt/f2dB3
OycF64VmKbahp0wTUxS4NxNGf6HMQ9AkJ93+4ni23KGc238TbbOiNxqvoDyV0+hk
x/Zr0bIVXx/it0GgpiuGZGG1Vw2bQuU=
-----END CERTIFICATE-----
