Certificate:
    Data:
        Version: 3 (0x2)
        Serial Number: 5 (0x5)
        Signature Algorithm: sha256WithRSAEncryption
        Issuer: C=US, ST=CA, L=Stanford, O=BMIR, OU=CEDAR, CN=metadatacenter.orgx/emailAddress=metadatacenter@gmail.com
        Validity
            Not Before: Jan 18 18:04:06 2023 GMT
            Not After : Apr 21 18:04:06 2025 GMT
        Subject: C=US, ST=CA, O=BMIR, OU=CEDAR, CN=group.metadatacenter.orgx/emailAddress=metadatacenter@gmail.com
        Subject Public Key Info:
            Public Key Algorithm: rsaEncryption
                RSA Public-Key: (2048 bit)
                Modulus:
                    00:d7:43:f6:36:e8:c6:3b:94:5f:d7:41:ec:cc:eb:
                    23:61:ae:4c:fd:99:cb:9d:f7:68:9d:bc:07:0f:7d:
                    22:6f:e2:5c:87:c1:1e:eb:24:d2:0e:16:1e:8c:db:
                    2b:da:14:0a:fa:3a:0c:05:6e:91:c5:ac:6e:fd:df:
                    a9:5a:20:3b:a7:a2:2a:7a:2f:52:73:e3:11:e5:02:
                    d7:b9:41:8e:ad:42:dd:70:47:8a:ca:17:bc:b0:52:
                    33:22:82:e3:cb:5b:b0:b4:b4:46:2b:e1:25:a2:4d:
                    ea:45:52:6c:ab:5c:2e:d3:77:1b:70:40:a0:3e:f0:
                    91:fa:66:bf:04:4b:39:3f:0d:a4:de:7e:db:96:6e:
                    4c:da:83:66:40:0b:91:82:c9:ee:b0:83:8c:d6:99:
                    d1:70:f6:2b:f8:11:76:72:0f:a8:51:99:da:5e:db:
                    4c:6b:d7:85:d6:79:d0:c2:83:5c:26:ef:09:5e:ce:
                    15:74:be:e4:3f:ed:81:1f:9e:e6:28:ff:a5:7d:13:
                    97:59:69:9b:22:db:4a:89:8d:3e:d5:4a:0c:34:0b:
                    9a:22:a0:8f:b2:90:7e:c4:b3:ec:35:c7:90:d5:54:
                    5d:9b:59:3d:36:4b:40:8f:2d:5c:34:06:ee:32:8f:
                    62:d0:dd:6f:0c:a3:b2:06:a5:1f:1b:11:02:19:94:
                    18:8f
                Exponent: 65537 (0x10001)
        X509v3 extensions:
            X509v3 Basic Constraints: 
                CA:FALSE
            X509v3 Key Usage: 
                Digital Signature, Non Repudiation, Key Encipherment
            X509v3 Subject Alternative Name: 
                DNS:group.metadatacenter.orgx
    Signature Algorithm: sha256WithRSAEncryption
         83:8f:68:43:95:86:77:40:13:59:b4:68:59:ef:7a:ad:c2:c5:
         4a:b3:3c:28:f8:d3:00:cf:f3:81:15:8c:63:1e:5c:4e:54:9a:
         a6:06:31:c0:c2:0e:14:97:77:90:f5:3f:d5:92:ce:96:63:7c:
         4f:a0:ee:e0:14:b3:09:2a:55:11:a3:cd:bf:36:47:11:5c:3b:
         d3:4e:d3:be:e5:cb:2f:bd:c4:0d:19:7e:87:37:ad:bb:7e:4e:
         3b:fc:65:f1:39:83:24:3e:71:d5:83:b2:46:ca:3b:0e:07:86:
         7a:6f:e6:8e:8a:e2:cc:39:4d:06:c1:af:b9:c4:12:63:0e:90:
         41:46:b6:7e:75:4a:82:40:4b:74:52:68:8e:79:4c:1c:f9:0b:
         18:71:4b:35:f8:6d:33:e4:c7:f4:23:6c:10:c2:c8:bd:c2:27:
         bc:36:db:51:ff:bc:83:80:6f:7c:81:64:1e:bd:e6:99:5d:f6:
         bc:7f:29:53:39:d5:ec:db:80:15:ea:9d:09:72:d8:a4:7e:b0:
         2c:3e:a9:86:d1:bc:97:01:b6:67:ca:7b:cb:db:3f:47:94:ee:
         d4:0a:30:23:05:08:bb:f0:ef:96:1f:e0:40:f7:c6:46:55:8f:
         f7:40:86:2f:58:2f:50:66:a2:f4:a9:99:f0:4a:b1:cc:65:07:
         13:95:27:e0:95:61:ab:9e:be:73:83:87:cd:37:43:f2:0c:6a:
         e9:e5:fe:3d:de:2e:34:a9:cf:41:5d:5f:ea:95:b1:c7:5e:38:
         23:da:8d:a2:03:ac:bc:f6:9c:0b:b9:0b:73:39:f8:7d:d4:59:
         73:de:3c:22:12:5f:c8:e7:64:9f:2d:80:7d:3a:5b:cb:51:02:
         21:4b:98:81:34:73:61:8d:21:a4:4b:cf:18:34:8b:47:e0:a6:
         02:17:a9:a1:11:3b:29:87:6b:1d:7d:cf:be:4b:8d:b0:4f:7f:
         b6:0c:45:1e:fc:59:61:e8:80:ac:57:c2:2b:10:05:20:e2:45:
         92:45:cb:6d:5b:1a:c9:b1:9c:05:0f:b9:bd:89:35:ea:5e:e1:
         69:74:65:79:98:98:05:52:12:0d:11:88:51:68:9f:cc:45:ab:
         65:ca:a6:25:46:42:5c:dc:ef:4a:54:cc:14:c3:2d:67:9f:c8:
         4d:79:f0:8d:dc:ff:d2:23:e3:08:e6:34:b4:0e:47:24:98:b3:
         60:46:0c:7b:35:0c:76:57:d5:9d:c0:38:3e:f8:20:89:6b:89:
         df:31:9c:3c:0a:f0:39:9b:8d:b5:29:35:b5:27:ac:54:f2:75:
         bd:67:3a:a9:4a:f6:3d:c7:10:47:68:83:11:6f:4c:89:1e:ec:
         4d:32:6c:ba:46:fa:b3:65
-----BEGIN CERTIFICATE-----
MIIE1jCCAr6gAwIBAgIBBTANBgkqhkiG9w0BAQsFADCBkzELMAkGA1UEBhMCVVMx
CzAJBgNVBAgMAkNBMREwDwYDVQQHDAhTdGFuZm9yZDENMAsGA1UECgwEQk1JUjEO
MAwGA1UECwwFQ0VEQVIxHDAaBgNVBAMME21ldGFkYXRhY2VudGVyLm9yZ3gxJzAl
BgkqhkiG9w0BCQEWGG1ldGFkYXRhY2VudGVyQGdtYWlsLmNvbTAeFw0yMzAxMTgx
ODA0MDZaFw0yNTA0MjExODA0MDZaMIGGMQswCQYDVQQGEwJVUzELMAkGA1UECAwC
Q0ExDTALBgNVBAoMBEJNSVIxDjAMBgNVBAsMBUNFREFSMSIwIAYDVQQDDBlncm91
cC5tZXRhZGF0YWNlbnRlci5vcmd4MScwJQYJKoZIhvcNAQkBFhhtZXRhZGF0YWNl
bnRlckBnbWFpbC5jb20wggEiMA0GCSqGSIb3DQEBAQUAA4IBDwAwggEKAoIBAQDX
Q/Y26MY7lF/XQezM6yNhrkz9mcud92idvAcPfSJv4lyHwR7rJNIOFh6M2yvaFAr6
OgwFbpHFrG7936laIDunoip6L1Jz4xHlAte5QY6tQt1wR4rKF7ywUjMiguPLW7C0
tEYr4SWiTepFUmyrXC7TdxtwQKA+8JH6Zr8ESzk/DaTeftuWbkzag2ZAC5GCye6w
g4zWmdFw9iv4EXZyD6hRmdpe20xr14XWedDCg1wm7wlezhV0vuQ/7YEfnuYo/6V9
E5dZaZsi20qJjT7VSgw0C5oioI+ykH7Es+w1x5DVVF2bWT02S0CPLVw0Bu4yj2LQ
3W8Mo7IGpR8bEQIZlBiPAgMBAAGjQDA+MAkGA1UdEwQCMAAwCwYDVR0PBAQDAgXg
MCQGA1UdEQQdMBuCGWdyb3VwLm1ldGFkYXRhY2VudGVyLm9yZ3gwDQYJKoZIhvcN
AQELBQADggIBAIOPaEOVhndAE1m0aFnveq3CxUqzPCj40wDP84EVjGMeXE5UmqYG
McDCDhSXd5D1P9WSzpZjfE+g7uAUswkqVRGjzb82RxFcO9NO077lyy+9xA0Zfoc3
rbt+Tjv8ZfE5gyQ+cdWDskbKOw4Hhnpv5o6K4sw5TQbBr7nEEmMOkEFGtn51SoJA
S3RSaI55TBz5CxhxSzX4bTPkx/QjbBDCyL3CJ7w221H/vIOAb3yBZB695pld9rx/
KVM51ezbgBXqnQly2KR+sCw+qYbRvJcBtmfKe8vbP0eU7tQKMCMFCLvw75Yf4ED3
xkZVj/dAhi9YL1BmovSpmfBKscxlBxOVJ+CVYauevnODh803Q/IMaunl/j3eLjSp
z0FdX+qVscdeOCPajaIDrLz2nAu5C3M5+H3UWXPePCISX8jnZJ8tgH06W8tRAiFL
mIE0c2GNIaRLzxg0i0fgpgIXqaEROymHax19z75LjbBPf7YMRR78WWHogKxXwisQ
BSDiRZJFy21bGsmxnAUPub2JNepe4Wl0ZXmYmAVSEg0RiFFon8xFq2XKpiVGQlzc
70pUzBTDLWefyE158I3c/9Ij4wjmNLQORySYs2BGDHs1DHZX1Z3AOD74IIlrid8x
nDwK8DmbjbUpNbUnrFTydb1nOqlK9j3HEEdogxFvTIke7E0ybLpG+rNl
-----END CERTIFICATE-----
