Certificate:
    Data:
        Version: 3 (0x2)
        Serial Number: 13 (0xd)
        Signature Algorithm: sha256WithRSAEncryption
        Issuer: C=US, ST=CA, L=Stanford, O=BMIR, OU=CEDAR, CN=metadatacenter.orgx/emailAddress=metadatacenter@gmail.com
        Validity
            Not Before: Jan 18 00:50:45 2024 GMT
            Not After : Apr 21 00:50:45 2026 GMT
        Subject: C=US, ST=CA, O=BMIR, OU=CEDAR, CN=terminology.metadatacenter.orgx/emailAddress=metadatacenter@gmail.com
        Subject Public Key Info:
            Public Key Algorithm: rsaEncryption
                RSA Public-Key: (2048 bit)
                Modulus:
                    00:d8:6c:19:9e:59:83:71:cd:8b:f9:1d:17:5c:84:
                    57:61:67:58:cf:c7:74:7e:d7:47:6c:9c:92:47:14:
                    38:59:3d:8d:69:6a:80:e2:e2:f6:dd:46:1d:1b:fd:
                    6c:89:c2:d6:12:44:7a:c3:1f:ba:15:d9:ff:b3:60:
                    03:58:e1:30:d0:3c:77:9e:21:00:6c:42:fd:f1:85:
                    d9:e3:8b:4d:a9:5a:96:1c:1e:12:6e:90:f5:dd:78:
                    f9:a1:f3:d3:fa:63:b9:05:dd:9b:d7:93:e6:98:3f:
                    42:21:27:f1:95:8e:b4:21:e5:df:64:fc:96:e2:62:
                    ad:c7:15:dc:17:1d:1f:df:c8:4e:7f:88:5e:4f:00:
                    9c:aa:a8:84:8e:ac:ee:2f:80:e9:67:62:2a:62:6e:
                    d0:16:d7:ca:a8:38:9a:19:fc:8c:34:56:89:44:41:
                    fd:e8:f7:c6:1f:9e:d5:8c:f6:2f:cc:95:fd:97:d1:
                    ec:49:67:cd:28:46:ea:21:71:91:17:34:19:1a:53:
                    d1:d2:99:16:bd:8a:f4:ee:02:ec:52:68:d2:37:f6:
                    1d:82:6f:15:29:7a:64:ed:67:ca:15:ce:08:71:9c:
                    68:38:5c:14:74:63:93:08:a6:9a:cd:66:ab:10:fd:
                    34:e9:1f:cc:eb:fb:0f:9e:24:32:0c:c7:3c:98:1e:
                    29:dd
                Exponent: 65537 (0x10001)
        X509v3 extensions:
            X509v3 Basic Constraints: 
                CA:FALSE
            X509v3 Key Usage: 
                Digital Signature, Non Repudiation, Key Encipherment
            X509v3 Subject Alternative Name: 
                DNS:terminology.metadatacenter.orgx
    Signature Algorithm: sha256WithRSAEncryption
         4b:28:80:73:04:78:5d:ef:97:38:d1:82:63:a9:2e:89:7b:f6:
         92:8c:e9:08:9c:88:3f:b8:df:52:03:71:bf:c5:16:c5:01:8a:
         cd:51:f0:3a:b5:80:29:55:42:21:b9:2a:73:73:c7:4d:0a:73:
         3a:aa:2d:2d:bd:1a:d1:53:47:1f:dc:36:f2:ca:1e:68:b0:9d:
         fe:e9:be:40:1f:90:63:32:24:9e:e8:2d:13:48:ca:21:f9:c9:
         53:2d:48:ab:8f:95:62:84:62:d6:8d:0b:25:1d:a0:ed:cb:9e:
         2e:a7:41:ae:0b:66:66:f9:3e:f1:8c:3b:e9:8a:76:49:12:55:
         08:db:28:00:a0:e5:4b:3c:a8:32:ef:da:8e:b9:38:ea:49:b6:
         56:3a:e5:fa:df:cd:e8:08:04:97:41:c3:0f:c9:2c:8c:03:6e:
         be:44:f2:fc:0d:0b:7a:0f:f1:2e:0d:72:aa:7b:a5:d8:f1:29:
         54:cd:51:1c:dc:88:73:d0:6d:35:24:2e:c6:00:a1:33:94:80:
         09:0d:bf:3e:10:08:c3:06:24:33:b3:5e:45:65:48:9e:18:19:
         b5:67:6b:27:d4:2e:15:0d:99:69:91:79:a2:8a:3b:fb:5b:85:
         0f:c1:9c:bb:f5:46:cc:93:16:42:f1:1c:6f:0b:72:3b:49:c2:
         3a:f7:eb:88:c9:f4:03:18:93:7e:07:14:87:f3:f2:87:b0:5a:
         d4:30:2b:aa:98:66:df:47:ac:c8:20:42:3c:66:ad:c8:f0:1f:
         3c:c8:e2:6d:d5:27:3a:da:a9:0b:a0:29:c5:df:43:54:23:ac:
         b8:7d:f2:bc:1a:28:f6:f2:40:1d:df:7f:4f:4b:93:40:c5:39:
         19:47:65:d9:02:23:fa:3c:2c:35:e6:72:7a:cc:56:2c:48:94:
         77:0d:82:0d:62:63:af:96:e2:58:8d:ba:a8:f3:d9:af:95:4c:
         bb:3b:58:86:71:0a:da:d8:8c:94:48:44:cf:3b:9f:09:63:fe:
         fd:d8:96:67:78:80:a4:42:a9:84:b5:cf:fe:8d:4f:62:67:78:
         76:a9:28:41:16:7b:a8:2a:0c:cb:c2:a3:a0:d3:2d:07:89:e8:
         fb:63:c7:79:54:90:4a:2d:5b:6d:36:3f:d9:30:8e:64:50:0e:
         7f:16:71:a1:7e:52:57:02:17:42:d8:22:94:35:2a:8d:d1:5d:
         ab:31:75:d0:c3:07:8f:0e:f3:ed:ae:15:61:e0:44:ed:61:d5:
         d3:e3:38:76:f6:c6:43:3d:ae:aa:49:07:48:f0:7f:6d:11:f3:
         5a:23:8e:af:84:ec:86:54:62:74:53:a5:fc:c7:21:44:36:56:
         98:53:46:73:e1:ae:a1:26
-----BEGIN CERTIFICATE-----
MIIE4jCCAsqgAwIBAgIBDTANBgkqhkiG9w0BAQsFADCBkzELMAkGA1UEBhMCVVMx
CzAJBgNVBAgMAkNBMREwDwYDVQQHDAhTdGFuZm9yZDENMAsGA1UECgwEQk1JUjEO
MAwGA1UECwwFQ0VEQVIxHDAaBgNVBAMME21ldGFkYXRhY2VudGVyLm9yZ3gxJzAl
BgkqhkiG9w0BCQEWGG1ldGFkYXRhY2VudGVyQGdtYWlsLmNvbTAeFw0yNDAxMTgw
MDUwNDVaFw0yNjA0MjEwMDUwNDVaMIGMMQswCQYDVQQGEwJVUzELMAkGA1UECAwC
Q0ExDTALBgNVBAoMBEJNSVIxDjAMBgNVBAsMBUNFREFSMSgwJgYDVQQDDB90ZXJt
aW5vbG9neS5tZXRhZGF0YWNlbnRlci5vcmd4MScwJQYJKoZIhvcNAQkBFhhtZXRh
ZGF0YWNlbnRlckBnbWFpbC5jb20wggEiMA0GCSqGSIb3DQEBAQUAA4IBDwAwggEK
AoIBAQDYbBmeWYNxzYv5HRdchFdhZ1jPx3R+10dsnJJHFDhZPY1paoDi4vbdRh0b
/WyJwtYSRHrDH7oV2f+zYANY4TDQPHeeIQBsQv3xhdnji02pWpYcHhJukPXdePmh
89P6Y7kF3ZvXk+aYP0IhJ/GVjrQh5d9k/JbiYq3HFdwXHR/fyE5/iF5PAJyqqISO
rO4vgOlnYipibtAW18qoOJoZ/Iw0VolEQf3o98YfntWM9i/Mlf2X0exJZ80oRuoh
cZEXNBkaU9HSmRa9ivTuAuxSaNI39h2CbxUpemTtZ8oVzghxnGg4XBR0Y5MIpprN
ZqsQ/TTpH8zr+w+eJDIMxzyYHindAgMBAAGjRjBEMAkGA1UdEwQCMAAwCwYDVR0P
BAQDAgXgMCoGA1UdEQQjMCGCH3Rlcm1pbm9sb2d5Lm1ldGFkYXRhY2VudGVyLm9y
Z3gwDQYJKoZIhvcNAQELBQADggIBAEsogHMEeF3vlzjRgmOpLol79pKM6QiciD+4
31IDcb/FFsUBis1R8Dq1gClVQiG5KnNzx00KczqqLS29GtFTRx/cNvLKHmiwnf7p
vkAfkGMyJJ7oLRNIyiH5yVMtSKuPlWKEYtaNCyUdoO3Lni6nQa4LZmb5PvGMO+mK
dkkSVQjbKACg5Us8qDLv2o65OOpJtlY65frfzegIBJdBww/JLIwDbr5E8vwNC3oP
8S4Ncqp7pdjxKVTNURzciHPQbTUkLsYAoTOUgAkNvz4QCMMGJDOzXkVlSJ4YGbVn
ayfULhUNmWmReaKKO/tbhQ/BnLv1RsyTFkLxHG8LcjtJwjr364jJ9AMYk34HFIfz
8oewWtQwK6qYZt9HrMggQjxmrcjwHzzI4m3VJzraqQugKcXfQ1QjrLh98rwaKPby
QB3ff09Lk0DFORlHZdkCI/o8LDXmcnrMVixIlHcNgg1iY6+W4liNuqjz2a+VTLs7
WIZxCtrYjJRIRM87nwlj/v3Ylmd4gKRCqYS1z/6NT2JneHapKEEWe6gqDMvCo6DT
LQeJ6Ptjx3lUkEotW202P9kwjmRQDn8WcaF+UlcCF0LYIpQ1Ko3RXasxddDDB48O
8+2uFWHgRO1h1dPjOHb2xkM9rqpJB0jwf20R81ojjq+E7IZUYnRTpfzHIUQ2VphT
RnPhrqEm
-----END CERTIFICATE-----
