Certificate:
    Data:
        Version: 3 (0x2)
        Serial Number: 16 (0x10)
        Signature Algorithm: sha256WithRSAEncryption
        Issuer: C=US, ST=CA, L=Stanford, O=BMIR, OU=CEDAR, CN=metadatacenter.orgx/emailAddress=metadatacenter@gmail.com
        Validity
            Not Before: Jan 18 19:17:58 2023 GMT
            Not After : Apr 21 19:17:58 2025 GMT
        Subject: C=US, ST=CA, O=BMIR, OU=CEDAR, CN=terminology.metadatacenter.orgx/emailAddress=metadatacenter@gmail.com
        Subject Public Key Info:
            Public Key Algorithm: rsaEncryption
                RSA Public-Key: (2048 bit)
                Modulus:
                    00:c0:bc:48:52:38:fc:87:30:39:60:2b:14:d3:03:
                    8a:44:2d:95:7c:be:33:6d:40:4b:fb:5e:67:30:e0:
                    c6:f3:77:ff:97:a1:3e:06:cf:ce:b5:e4:e3:50:19:
                    17:d9:01:57:18:3c:dc:b2:51:31:77:8c:f3:f6:32:
                    4b:b5:bc:39:c7:c8:26:53:ab:ff:77:16:9c:ef:5e:
                    c1:0f:cd:31:0c:a0:a8:d7:5f:19:35:7b:8d:1e:71:
                    18:c3:64:58:31:99:97:9d:a5:0c:fc:d0:8e:5f:bd:
                    aa:e4:c9:5a:62:e4:eb:5e:52:0a:39:23:17:ff:4a:
                    b4:ad:c7:df:ba:7a:a7:90:fb:ae:e3:1c:30:21:69:
                    8f:e3:82:3d:ea:00:8f:85:bf:de:e4:76:00:24:01:
                    14:a5:ea:5c:c6:0c:cf:1e:31:3b:77:02:47:67:a6:
                    8e:18:02:3b:7d:57:89:24:e4:16:0e:c4:c2:3d:c9:
                    77:4f:ee:2c:fb:5e:36:d9:3e:a9:e5:f4:fe:03:01:
                    7b:63:dd:0e:95:d9:05:65:20:be:ef:3e:66:70:0d:
                    99:ce:9d:b4:a2:b8:ff:19:77:76:19:57:a1:c3:b1:
                    cf:41:74:c3:43:31:d3:91:ae:38:75:e5:f4:2f:cb:
                    00:28:40:26:d5:73:95:f4:c9:0b:d7:93:7e:91:7d:
                    cd:39
                Exponent: 65537 (0x10001)
        X509v3 extensions:
            X509v3 Basic Constraints: 
                CA:FALSE
            X509v3 Key Usage: 
                Digital Signature, Non Repudiation, Key Encipherment
            X509v3 Subject Alternative Name: 
                DNS:terminology.metadatacenter.orgx
    Signature Algorithm: sha256WithRSAEncryption
         7c:e2:7c:59:70:7c:c2:1e:fa:26:3f:57:8e:96:03:77:bc:44:
         e0:2c:de:0e:6c:cd:fc:e0:84:5d:56:6d:aa:2b:11:2a:51:9f:
         fa:0f:2d:af:e4:24:da:23:38:61:39:be:34:a9:de:fc:d5:9b:
         59:5e:0e:5b:01:ed:48:0c:7e:12:86:80:7c:dd:69:17:21:08:
         bc:0d:52:70:c2:07:1c:d6:8a:14:53:d3:75:c6:b6:3f:17:a5:
         4d:2e:2b:57:47:c5:62:1d:27:3a:fe:be:ce:e3:57:04:74:0d:
         52:1c:aa:06:9a:63:3b:cf:16:6f:3b:7f:fb:7e:6a:cf:2d:65:
         20:ad:8e:1e:ca:d2:a2:1c:0a:88:34:72:72:b6:74:9a:63:eb:
         c6:4c:7a:27:2b:67:54:23:eb:58:2d:cf:82:8c:29:5a:9c:c0:
         64:7e:77:6d:0a:7e:d1:fd:1a:05:d6:27:e0:23:aa:bf:35:1d:
         fb:29:ec:72:b2:56:13:05:02:2e:68:07:40:04:0c:df:ff:c1:
         97:e1:84:00:7f:86:33:fb:6f:40:f5:27:9c:ec:89:3a:ea:c8:
         89:c6:82:3f:04:0d:55:b7:b5:5e:25:49:5e:b7:4c:93:9f:52:
         bb:1c:3a:ea:0a:9a:d4:c2:1c:b3:c4:a0:57:94:6c:58:3e:17:
         90:38:c8:e1:41:24:80:b6:31:2d:13:05:02:46:43:ff:c8:78:
         d6:69:a4:af:09:4b:65:f8:ed:62:ef:6e:7d:b8:ee:68:81:65:
         3c:95:7a:12:79:2e:94:1b:c3:cf:4c:83:a6:23:7e:8f:53:d5:
         82:d4:ca:54:38:c5:d9:c3:8b:00:8d:97:27:90:27:08:c5:99:
         6f:2b:76:04:ef:93:4e:28:9c:6f:ad:bd:33:10:19:28:e1:c9:
         81:a8:73:e3:43:2f:59:34:7d:13:90:d6:0e:cc:32:66:79:35:
         5c:7a:1b:41:34:68:78:1c:6f:ee:f2:ba:1b:90:26:e0:04:df:
         88:a5:e6:65:a1:53:3a:3d:88:15:4c:33:1c:00:84:6f:d2:4c:
         97:5f:a1:20:63:05:0d:73:fe:9f:67:af:1c:e3:94:80:f2:65:
         27:9b:5b:17:31:e9:53:fd:87:4d:53:32:03:8e:03:1a:7c:3b:
         ca:07:91:7f:c7:56:f1:c4:dc:eb:5c:90:d9:25:ff:9e:84:99:
         f3:2c:02:e9:8b:79:5c:fd:f7:4b:14:de:af:6a:a2:f6:3f:e9:
         a5:2c:42:32:34:c6:61:ab:5d:15:7d:8c:67:d0:6f:76:34:f6:
         7a:f6:d3:e0:1d:59:ba:1b:23:4b:f4:d0:f7:ac:74:f4:d9:d5:
         2d:ba:d0:e0:53:41:55:9f
-----BEGIN CERTIFICATE-----
MIIE4jCCAsqgAwIBAgIBEDANBgkqhkiG9w0BAQsFADCBkzELMAkGA1UEBhMCVVMx
CzAJBgNVBAgMAkNBMREwDwYDVQQHDAhTdGFuZm9yZDENMAsGA1UECgwEQk1JUjEO
MAwGA1UECwwFQ0VEQVIxHDAaBgNVBAMME21ldGFkYXRhY2VudGVyLm9yZ3gxJzAl
BgkqhkiG9w0BCQEWGG1ldGFkYXRhY2VudGVyQGdtYWlsLmNvbTAeFw0yMzAxMTgx
OTE3NThaFw0yNTA0MjExOTE3NThaMIGMMQswCQYDVQQGEwJVUzELMAkGA1UECAwC
Q0ExDTALBgNVBAoMBEJNSVIxDjAMBgNVBAsMBUNFREFSMSgwJgYDVQQDDB90ZXJt
aW5vbG9neS5tZXRhZGF0YWNlbnRlci5vcmd4MScwJQYJKoZIhvcNAQkBFhhtZXRh
ZGF0YWNlbnRlckBnbWFpbC5jb20wggEiMA0GCSqGSIb3DQEBAQUAA4IBDwAwggEK
AoIBAQDAvEhSOPyHMDlgKxTTA4pELZV8vjNtQEv7Xmcw4Mbzd/+XoT4Gz8615ONQ
GRfZAVcYPNyyUTF3jPP2Mku1vDnHyCZTq/93FpzvXsEPzTEMoKjXXxk1e40ecRjD
ZFgxmZedpQz80I5fvarkyVpi5OteUgo5Ixf/SrStx9+6eqeQ+67jHDAhaY/jgj3q
AI+Fv97kdgAkARSl6lzGDM8eMTt3Akdnpo4YAjt9V4kk5BYOxMI9yXdP7iz7XjbZ
Pqnl9P4DAXtj3Q6V2QVlIL7vPmZwDZnOnbSiuP8Zd3YZV6HDsc9BdMNDMdORrjh1
5fQvywAoQCbVc5X0yQvXk36Rfc05AgMBAAGjRjBEMAkGA1UdEwQCMAAwCwYDVR0P
BAQDAgXgMCoGA1UdEQQjMCGCH3Rlcm1pbm9sb2d5Lm1ldGFkYXRhY2VudGVyLm9y
Z3gwDQYJKoZIhvcNAQELBQADggIBAHzifFlwfMIe+iY/V46WA3e8ROAs3g5szfzg
hF1WbaorESpRn/oPLa/kJNojOGE5vjSp3vzVm1leDlsB7UgMfhKGgHzdaRchCLwN
UnDCBxzWihRT03XGtj8XpU0uK1dHxWIdJzr+vs7jVwR0DVIcqgaaYzvPFm87f/t+
as8tZSCtjh7K0qIcCog0cnK2dJpj68ZMeicrZ1Qj61gtz4KMKVqcwGR+d20KftH9
GgXWJ+Ajqr81Hfsp7HKyVhMFAi5oB0AEDN//wZfhhAB/hjP7b0D1J5zsiTrqyInG
gj8EDVW3tV4lSV63TJOfUrscOuoKmtTCHLPEoFeUbFg+F5A4yOFBJIC2MS0TBQJG
Q//IeNZppK8JS2X47WLvbn247miBZTyVehJ5LpQbw89Mg6Yjfo9T1YLUylQ4xdnD
iwCNlyeQJwjFmW8rdgTvk04onG+tvTMQGSjhyYGoc+NDL1k0fROQ1g7MMmZ5NVx6
G0E0aHgcb+7yuhuQJuAE34il5mWhUzo9iBVMMxwAhG/STJdfoSBjBQ1z/p9nrxzj
lIDyZSebWxcx6VP9h01TMgOOAxp8O8oHkX/HVvHE3OtckNkl/56EmfMsAumLeVz9
90sU3q9qovY/6aUsQjI0xmGrXRV9jGfQb3Y09nr20+AdWbobI0v00PesdPTZ1S26
0OBTQVWf
-----END CERTIFICATE-----
