Certificate:
    Data:
        Version: 3 (0x2)
        Serial Number: 6 (0x6)
        Signature Algorithm: sha256WithRSAEncryption
        Issuer: C=US, ST=CA, L=Stanford, O=BMIR, OU=CEDAR, CN=metadatacenter.orgx/emailAddress=metadatacenter@gmail.com
        Validity
            Not Before: Jan 18 00:50:44 2024 GMT
            Not After : Apr 21 00:50:44 2026 GMT
        Subject: C=US, ST=CA, O=BMIR, OU=CEDAR, CN=messaging.metadatacenter.orgx/emailAddress=metadatacenter@gmail.com
        Subject Public Key Info:
            Public Key Algorithm: rsaEncryption
                RSA Public-Key: (2048 bit)
                Modulus:
                    00:c5:52:e3:9e:f8:e4:d5:9d:34:8c:2e:0c:97:12:
                    5c:85:25:bf:f3:dd:01:f8:d0:c6:0b:ea:69:9c:b6:
                    2b:c8:91:57:02:b3:68:7f:3e:d5:4f:f4:1a:97:55:
                    a2:09:19:c6:bb:97:50:0f:fb:19:b2:84:18:94:16:
                    46:bb:11:18:aa:f4:c5:eb:85:7c:6c:b1:fa:eb:93:
                    d3:a3:c7:79:20:43:49:ae:06:5a:9a:04:08:45:a6:
                    4e:39:32:40:d0:34:b9:b7:6d:88:83:47:df:d5:1c:
                    2b:f8:0a:70:cc:9d:6a:8b:40:fb:1a:f4:52:1e:ac:
                    1c:0c:18:4d:dd:f5:95:cc:00:a5:23:3e:83:c7:4f:
                    be:9e:5b:3d:b5:4e:d5:85:72:3a:13:59:c5:b2:85:
                    a7:91:e7:ce:a3:c5:5f:c2:dd:8c:1d:82:0d:f4:fb:
                    0e:81:cc:a8:bf:b4:cc:08:d7:cb:f6:f4:54:6a:51:
                    7f:00:5f:3a:de:85:af:ef:85:d1:59:9f:3d:a6:bf:
                    1c:e9:a9:4a:5c:20:84:ea:f7:02:3f:ec:02:7c:9d:
                    54:1a:14:23:8f:76:7c:27:b1:04:cb:71:ff:cc:96:
                    5b:4b:40:8a:6e:53:61:8d:61:b2:d1:8c:11:62:c3:
                    5f:e2:bf:69:88:ef:3c:58:8f:ac:5f:63:1f:b5:54:
                    f6:5b
                Exponent: 65537 (0x10001)
        X509v3 extensions:
            X509v3 Basic Constraints: 
                CA:FALSE
            X509v3 Key Usage: 
                Digital Signature, Non Repudiation, Key Encipherment
            X509v3 Subject Alternative Name: 
                DNS:messaging.metadatacenter.orgx
    Signature Algorithm: sha256WithRSAEncryption
         0a:4f:c2:01:e7:13:ae:b3:52:b0:fd:45:0d:c1:37:e5:01:e2:
         dc:6a:99:22:32:62:54:4c:75:58:4e:85:cb:2c:05:9f:f3:8b:
         10:20:58:15:89:e8:ba:54:ba:b9:75:46:91:03:ac:29:54:39:
         f4:6f:37:46:7a:7d:fe:65:33:d6:50:98:3e:ee:3a:b2:98:6f:
         e2:8a:f4:71:ed:f0:b3:5b:45:19:96:d9:7d:19:23:4c:31:d0:
         6c:2f:81:3c:af:ef:23:e8:02:a2:c6:23:3d:bb:31:75:f5:d0:
         ee:48:c2:09:3a:35:38:45:10:78:7d:35:f1:80:74:b2:7f:52:
         2d:d5:69:fc:f0:03:cb:d2:7f:ff:c2:d4:6b:53:5b:e7:e5:69:
         8c:4c:a4:9e:73:13:e4:02:6e:39:60:31:7a:3c:bf:c0:8d:2f:
         6a:50:b8:0e:aa:aa:cf:28:94:9c:e9:3e:a0:c6:ba:51:d8:2d:
         73:6a:48:0e:c9:fb:bd:f6:a1:9f:b6:5b:46:07:83:fe:15:56:
         5b:ac:d2:fc:fd:64:c5:cc:59:df:f6:ad:f2:97:64:47:d8:cf:
         78:7f:1c:ab:29:21:f4:fa:f7:d1:4b:59:50:03:e3:63:e6:a1:
         9d:f4:02:51:02:f0:26:3d:3b:a3:05:83:94:1d:5b:98:51:68:
         e6:94:d1:1a:57:f1:be:c3:bc:d0:eb:4c:7a:ea:d5:13:36:60:
         e3:b0:b9:fa:77:e0:94:0d:a1:a7:5b:e7:e5:a6:91:be:7e:ef:
         68:40:8a:a1:99:eb:69:bf:99:4b:aa:d1:ae:a1:09:43:22:c4:
         ea:e3:74:9f:c6:8d:2b:f7:12:05:f7:06:66:e9:72:67:f8:fb:
         ea:8f:85:1c:72:3a:f7:c3:57:44:be:72:d1:02:06:e4:38:d1:
         25:4e:91:8d:11:fe:33:79:27:b6:e6:a2:a8:30:f4:a3:90:4b:
         b5:db:04:96:d2:70:a4:8e:32:b4:3c:fc:5b:44:c2:f0:78:da:
         c5:17:71:46:65:65:85:f1:c2:89:89:d0:cc:e1:85:0f:22:32:
         d6:6e:f9:c9:cf:c6:64:f9:5f:7c:de:73:21:8e:a4:2f:71:3b:
         4a:c8:ed:4e:17:25:35:6b:2b:06:f0:cb:12:6e:7d:da:22:68:
         f0:e8:6b:1e:15:e9:33:66:4f:dc:60:c1:7f:9c:a5:a1:0c:1b:
         17:25:ec:60:07:5e:2e:8e:da:f2:47:2b:1f:d3:84:c4:c1:23:
         6c:11:b7:59:9e:21:df:28:9f:46:6e:19:0f:79:46:56:e1:ef:
         bb:d4:9f:18:a9:28:fa:b0:88:bc:bd:8b:25:23:30:0b:34:31:
         a1:c9:fe:2b:a5:8d:c2:f7
-----BEGIN CERTIFICATE-----
MIIE3jCCAsagAwIBAgIBBjANBgkqhkiG9w0BAQsFADCBkzELMAkGA1UEBhMCVVMx
CzAJBgNVBAgMAkNBMREwDwYDVQQHDAhTdGFuZm9yZDENMAsGA1UECgwEQk1JUjEO
MAwGA1UECwwFQ0VEQVIxHDAaBgNVBAMME21ldGFkYXRhY2VudGVyLm9yZ3gxJzAl
BgkqhkiG9w0BCQEWGG1ldGFkYXRhY2VudGVyQGdtYWlsLmNvbTAeFw0yNDAxMTgw
MDUwNDRaFw0yNjA0MjEwMDUwNDRaMIGKMQswCQYDVQQGEwJVUzELMAkGA1UECAwC
Q0ExDTALBgNVBAoMBEJNSVIxDjAMBgNVBAsMBUNFREFSMSYwJAYDVQQDDB1tZXNz
YWdpbmcubWV0YWRhdGFjZW50ZXIub3JneDEnMCUGCSqGSIb3DQEJARYYbWV0YWRh
dGFjZW50ZXJAZ21haWwuY29tMIIBIjANBgkqhkiG9w0BAQEFAAOCAQ8AMIIBCgKC
AQEAxVLjnvjk1Z00jC4MlxJchSW/890B+NDGC+ppnLYryJFXArNofz7VT/Qal1Wi
CRnGu5dQD/sZsoQYlBZGuxEYqvTF64V8bLH665PTo8d5IENJrgZamgQIRaZOOTJA
0DS5t22Ig0ff1Rwr+ApwzJ1qi0D7GvRSHqwcDBhN3fWVzAClIz6Dx0++nls9tU7V
hXI6E1nFsoWnkefOo8Vfwt2MHYIN9PsOgcyov7TMCNfL9vRUalF/AF863oWv74XR
WZ89pr8c6alKXCCE6vcCP+wCfJ1UGhQjj3Z8J7EEy3H/zJZbS0CKblNhjWGy0YwR
YsNf4r9piO88WI+sX2MftVT2WwIDAQABo0QwQjAJBgNVHRMEAjAAMAsGA1UdDwQE
AwIF4DAoBgNVHREEITAfgh1tZXNzYWdpbmcubWV0YWRhdGFjZW50ZXIub3JneDAN
BgkqhkiG9w0BAQsFAAOCAgEACk/CAecTrrNSsP1FDcE35QHi3GqZIjJiVEx1WE6F
yywFn/OLECBYFYnoulS6uXVGkQOsKVQ59G83Rnp9/mUz1lCYPu46sphv4or0ce3w
s1tFGZbZfRkjTDHQbC+BPK/vI+gCosYjPbsxdfXQ7kjCCTo1OEUQeH018YB0sn9S
LdVp/PADy9J//8LUa1Nb5+VpjEyknnMT5AJuOWAxejy/wI0valC4DqqqzyiUnOk+
oMa6Udgtc2pIDsn7vfahn7ZbRgeD/hVWW6zS/P1kxcxZ3/at8pdkR9jPeH8cqykh
9Pr30UtZUAPjY+ahnfQCUQLwJj07owWDlB1bmFFo5pTRGlfxvsO80OtMeurVEzZg
47C5+nfglA2hp1vn5aaRvn7vaECKoZnrab+ZS6rRrqEJQyLE6uN0n8aNK/cSBfcG
ZulyZ/j76o+FHHI698NXRL5y0QIG5DjRJU6RjRH+M3kntuaiqDD0o5BLtdsEltJw
pI4ytDz8W0TC8HjaxRdxRmVlhfHCiYnQzOGFDyIy1m75yc/GZPlffN5zIY6kL3E7
SsjtThclNWsrBvDLEm592iJo8OhrHhXpM2ZP3GDBf5yloQwbFyXsYAdeLo7a8kcr
H9OExMEjbBG3WZ4h3yifRm4ZD3lGVuHvu9SfGKko+rCIvL2LJSMwCzQxocn+K6WN
wvc=
-----END CERTIFICATE-----
