Certificate:
    Data:
        Version: 3 (0x2)
        Serial Number: 8 (0x8)
        Signature Algorithm: sha256WithRSAEncryption
        Issuer: C=US, ST=CA, L=Stanford, O=BMIR, OU=CEDAR, CN=metadatacenter.orgx/emailAddress=metadatacenter@gmail.com
        Validity
            Not Before: Jan 18 18:36:44 2023 GMT
            Not After : Apr 21 18:36:44 2025 GMT
        Subject: C=US, ST=CA, O=BMIR, OU=CEDAR, CN=messaging.metadatacenter.orgx/emailAddress=metadatacenter@gmail.com
        Subject Public Key Info:
            Public Key Algorithm: rsaEncryption
                RSA Public-Key: (2048 bit)
                Modulus:
                    00:a5:27:a6:2f:f0:0f:77:2f:0d:3f:bf:b1:70:70:
                    11:56:d8:92:a6:6b:67:04:3d:f2:0d:ff:66:06:2f:
                    c6:e7:58:cf:86:4b:63:f9:6a:d8:b0:76:cb:86:03:
                    3c:bd:bc:db:30:b2:86:62:2e:93:2a:6f:85:15:09:
                    01:ea:7f:84:a2:eb:56:6e:df:af:c2:21:2b:62:6f:
                    12:77:c2:d1:47:f6:df:1a:0e:bb:e4:e1:ab:ba:2c:
                    e1:d2:4d:cd:5e:39:b6:e8:25:46:fa:98:c3:8c:0b:
                    7b:1d:a7:df:46:9d:ef:d5:dd:07:b3:91:97:4f:1d:
                    5d:01:69:5f:aa:2e:3d:96:cb:a4:5b:21:e1:ba:8d:
                    39:91:af:72:62:33:df:82:09:98:3d:78:35:52:ca:
                    f8:6a:20:27:00:d0:ff:a8:9b:d5:ff:1d:72:50:bd:
                    e3:a3:f2:b9:6e:ed:c8:fe:74:8f:f4:99:f9:cf:44:
                    8c:e2:17:a4:11:7d:fb:0b:47:ca:2a:8b:d4:99:49:
                    65:7c:0c:21:3b:6c:be:b1:01:e2:f4:c3:ac:0e:69:
                    9a:0d:d3:53:62:83:47:ef:17:f9:24:b2:fd:67:ef:
                    f8:8e:5d:82:2f:8f:3f:45:f1:88:d9:e5:cf:31:b4:
                    71:81:fb:75:de:82:97:04:6a:70:d1:67:0f:31:6f:
                    cc:bd
                Exponent: 65537 (0x10001)
        X509v3 extensions:
            X509v3 Basic Constraints: 
                CA:FALSE
            X509v3 Key Usage: 
                Digital Signature, Non Repudiation, Key Encipherment
            X509v3 Subject Alternative Name: 
                DNS:messaging.metadatacenter.orgx
    Signature Algorithm: sha256WithRSAEncryption
         29:01:80:aa:38:4f:7a:9e:02:d9:bc:b2:74:20:d2:54:72:8a:
         41:b4:08:15:cb:97:d1:3f:dc:47:de:12:fa:54:83:ff:92:26:
         ab:b0:de:19:89:48:12:fa:ca:a4:c6:51:d6:91:bc:b0:ea:31:
         93:0a:f2:ff:15:48:8c:57:9a:99:4a:9c:6b:a8:35:17:d6:ab:
         b5:d5:cf:f6:82:5d:5f:4d:b1:13:70:49:f0:9a:a5:0c:a5:5b:
         04:0e:d6:22:9e:5a:a3:97:3b:40:ca:61:95:91:22:4c:fd:73:
         52:d0:03:22:ff:65:3f:2d:9d:c6:2c:c3:5a:de:70:aa:28:4f:
         8c:72:4c:08:8c:5e:2a:4c:89:27:f6:0e:8e:00:4d:93:45:42:
         f5:14:a8:37:e2:e8:5b:27:d9:68:a7:71:af:be:e4:3d:3d:b7:
         2d:64:64:c8:c6:7a:8e:12:6f:8f:6a:61:ed:94:cc:b9:79:3e:
         dd:a6:45:cd:8c:86:1c:43:d0:9d:4b:ae:7b:f5:a1:50:5d:14:
         72:dd:e0:35:49:0e:31:4d:43:e8:fd:06:ff:84:b3:c5:c6:d5:
         9c:b1:a3:59:3c:85:52:33:33:65:f8:56:9b:9e:fd:86:f1:e7:
         97:81:8a:e6:6b:5a:2a:a8:6b:b2:01:59:87:13:cd:23:ee:08:
         d4:61:f1:db:4d:27:09:97:3f:bd:7a:c8:2f:6f:09:6c:0f:b2:
         92:69:5d:5e:51:76:a9:b0:3d:82:76:f1:aa:95:8b:d5:a8:dd:
         98:66:cc:dc:df:55:94:20:d1:bb:2b:b9:3c:61:aa:30:65:1b:
         66:86:1c:76:eb:2e:ab:60:9a:33:08:48:e9:1c:65:2b:a0:05:
         4c:b6:82:77:1c:40:cd:63:83:f1:73:7c:8c:73:21:a4:66:b0:
         cc:56:1e:2b:ce:94:97:30:bf:05:64:ee:f4:0b:76:96:24:0a:
         e8:08:84:84:24:a7:49:8c:ed:8a:be:9b:ec:5b:ca:6c:b6:11:
         9b:c0:ac:91:0d:5c:e1:e1:40:ff:16:2a:e8:49:27:0e:23:3b:
         33:d8:44:71:38:32:b1:8e:59:2f:1c:54:5a:23:34:96:c7:fe:
         97:f1:d7:45:a7:59:f4:7d:34:cb:7d:ca:52:d5:ab:fc:97:5b:
         43:6c:89:6a:7b:9e:9f:9c:fb:be:f9:a6:56:fb:ba:62:27:97:
         49:fc:ed:d8:79:77:c5:0d:2d:f2:28:41:87:ff:a1:a5:95:be:
         63:59:89:54:82:73:67:36:39:8d:bf:1e:b5:b7:8e:3d:02:7d:
         c9:83:66:88:49:c3:8b:44:f9:51:ec:78:8b:1c:d4:53:ad:0c:
         9f:95:9b:d1:38:17:0c:cb
-----BEGIN CERTIFICATE-----
MIIE3jCCAsagAwIBAgIBCDANBgkqhkiG9w0BAQsFADCBkzELMAkGA1UEBhMCVVMx
CzAJBgNVBAgMAkNBMREwDwYDVQQHDAhTdGFuZm9yZDENMAsGA1UECgwEQk1JUjEO
MAwGA1UECwwFQ0VEQVIxHDAaBgNVBAMME21ldGFkYXRhY2VudGVyLm9yZ3gxJzAl
BgkqhkiG9w0BCQEWGG1ldGFkYXRhY2VudGVyQGdtYWlsLmNvbTAeFw0yMzAxMTgx
ODM2NDRaFw0yNTA0MjExODM2NDRaMIGKMQswCQYDVQQGEwJVUzELMAkGA1UECAwC
Q0ExDTALBgNVBAoMBEJNSVIxDjAMBgNVBAsMBUNFREFSMSYwJAYDVQQDDB1tZXNz
YWdpbmcubWV0YWRhdGFjZW50ZXIub3JneDEnMCUGCSqGSIb3DQEJARYYbWV0YWRh
dGFjZW50ZXJAZ21haWwuY29tMIIBIjANBgkqhkiG9w0BAQEFAAOCAQ8AMIIBCgKC
AQEApSemL/APdy8NP7+xcHARVtiSpmtnBD3yDf9mBi/G51jPhktj+WrYsHbLhgM8
vbzbMLKGYi6TKm+FFQkB6n+EoutWbt+vwiErYm8Sd8LRR/bfGg675OGruizh0k3N
Xjm26CVG+pjDjAt7HaffRp3v1d0Hs5GXTx1dAWlfqi49lsukWyHhuo05ka9yYjPf
ggmYPXg1Usr4aiAnAND/qJvV/x1yUL3jo/K5bu3I/nSP9Jn5z0SM4hekEX37C0fK
KovUmUllfAwhO2y+sQHi9MOsDmmaDdNTYoNH7xf5JLL9Z+/4jl2CL48/RfGI2eXP
MbRxgft13oKXBGpw0WcPMW/MvQIDAQABo0QwQjAJBgNVHRMEAjAAMAsGA1UdDwQE
AwIF4DAoBgNVHREEITAfgh1tZXNzYWdpbmcubWV0YWRhdGFjZW50ZXIub3JneDAN
BgkqhkiG9w0BAQsFAAOCAgEAKQGAqjhPep4C2byydCDSVHKKQbQIFcuX0T/cR94S
+lSD/5Imq7DeGYlIEvrKpMZR1pG8sOoxkwry/xVIjFeamUqca6g1F9artdXP9oJd
X02xE3BJ8JqlDKVbBA7WIp5ao5c7QMphlZEiTP1zUtADIv9lPy2dxizDWt5wqihP
jHJMCIxeKkyJJ/YOjgBNk0VC9RSoN+LoWyfZaKdxr77kPT23LWRkyMZ6jhJvj2ph
7ZTMuXk+3aZFzYyGHEPQnUuue/WhUF0Uct3gNUkOMU1D6P0G/4SzxcbVnLGjWTyF
UjMzZfhWm579hvHnl4GK5mtaKqhrsgFZhxPNI+4I1GHx200nCZc/vXrIL28JbA+y
kmldXlF2qbA9gnbxqpWL1ajdmGbM3N9VlCDRuyu5PGGqMGUbZoYcdusuq2CaMwhI
6RxlK6AFTLaCdxxAzWOD8XN8jHMhpGawzFYeK86UlzC/BWTu9At2liQK6AiEhCSn
SYztir6b7FvKbLYRm8CskQ1c4eFA/xYq6EknDiM7M9hEcTgysY5ZLxxUWiM0lsf+
l/HXRadZ9H00y33KUtWr/JdbQ2yJanuen5z7vvmmVvu6YieXSfzt2Hl3xQ0t8ihB
h/+hpZW+Y1mJVIJzZzY5jb8etbeOPQJ9yYNmiEnDi0T5Uex4ixzUU60Mn5Wb0TgX
DMs=
-----END CERTIFICATE-----
