Certificate:
    Data:
        Version: 3 (0x2)
        Serial Number: 14 (0xe)
        Signature Algorithm: sha256WithRSAEncryption
        Issuer: C=US, ST=CA, L=Stanford, O=BMIR, OU=CEDAR, CN=metadatacenter.orgx/emailAddress=metadatacenter@gmail.com
        Validity
            Not Before: Jan 18 18:51:06 2023 GMT
            Not After : Apr 21 18:51:06 2025 GMT
        Subject: C=US, ST=CA, O=BMIR, OU=CEDAR, CN=schema.metadatacenter.orgx/emailAddress=metadatacenter@gmail.com
        Subject Public Key Info:
            Public Key Algorithm: rsaEncryption
                RSA Public-Key: (2048 bit)
                Modulus:
                    00:a6:73:ec:5a:70:2a:17:84:73:29:ca:b6:48:09:
                    23:eb:f2:35:78:d8:93:0b:25:6b:0f:ad:fc:e5:39:
                    23:d4:c8:0a:3c:e1:f9:d2:9e:4e:b6:87:a5:0a:9c:
                    c1:ca:9b:57:dd:8b:04:53:31:21:80:e9:8e:d8:fa:
                    70:92:09:e4:af:13:07:9e:d1:a6:58:0d:ef:86:73:
                    1b:18:07:ab:1c:1e:14:cc:79:35:aa:39:97:f1:9f:
                    c4:f3:79:19:22:9a:74:27:c7:8a:ac:5c:b8:81:b1:
                    da:db:c3:54:ef:c1:8a:ef:76:3b:de:e0:45:fa:59:
                    d9:ae:b0:fa:15:75:66:75:06:18:10:6a:40:de:b9:
                    7b:c0:be:18:bd:2d:5e:ac:b9:00:8a:3b:ba:b9:03:
                    fe:d5:09:59:b3:26:1e:cb:15:7a:d7:f0:d4:cc:70:
                    ec:a0:c4:c7:5b:6a:53:e2:0c:9e:65:d4:14:8d:7e:
                    1f:78:c3:0e:41:e9:f7:74:14:9c:ed:2a:e3:12:65:
                    14:b7:99:18:6d:40:da:99:7d:b8:ac:07:54:ac:42:
                    49:2f:a7:78:6d:8f:88:7b:34:9e:da:14:13:69:22:
                    74:d1:87:6f:13:5f:dd:b2:0a:20:99:06:72:7d:ef:
                    e6:0b:9d:30:c2:2e:13:26:44:ce:0e:7c:39:7c:65:
                    8d:bd
                Exponent: 65537 (0x10001)
        X509v3 extensions:
            X509v3 Basic Constraints: 
                CA:FALSE
            X509v3 Key Usage: 
                Digital Signature, Non Repudiation, Key Encipherment
            X509v3 Subject Alternative Name: 
                DNS:schema.metadatacenter.orgx
    Signature Algorithm: sha256WithRSAEncryption
         1b:a0:e8:95:21:5a:03:86:66:4f:2c:31:ff:e1:99:57:a5:4e:
         a1:1b:d0:1f:c5:03:1d:b8:d1:e3:11:3d:f6:17:0d:4b:76:cb:
         19:83:f5:49:87:3c:2d:26:5b:2c:10:95:55:69:5d:5c:2a:00:
         c3:91:fa:2e:3d:4c:72:16:f5:87:1c:a6:2e:5d:7b:cb:8a:9b:
         c0:86:a2:a1:53:ca:30:80:ae:1d:07:d9:21:51:b3:76:c3:d4:
         93:26:50:27:28:5b:52:e6:e9:02:92:d7:ee:95:37:58:a0:4b:
         e7:9c:13:c4:6c:61:2c:ff:87:36:64:50:fa:b5:cd:98:b8:6d:
         91:9e:59:12:0b:ef:be:5d:c1:37:d7:b3:43:67:60:34:ca:c1:
         19:b6:c7:ca:ef:86:26:f6:cc:ee:69:a4:93:c0:71:84:53:ea:
         1b:a5:be:aa:8e:59:e9:28:f4:ee:5a:d5:8b:43:b4:ff:69:10:
         43:bd:ed:e6:9d:3a:02:fd:a5:0f:90:67:d8:7a:e6:8a:73:c4:
         97:76:6e:a9:cd:b2:40:bf:8f:ba:6d:b7:76:bb:d9:25:d1:4f:
         e5:ad:5f:e7:8f:8e:6c:f8:23:6e:76:9b:87:1c:99:88:a2:80:
         a5:9f:60:c8:ae:b2:a7:75:1c:c5:29:35:81:ac:ac:c0:5d:51:
         0a:a3:de:5d:c2:f9:b9:10:bd:27:aa:53:5c:07:ff:4e:be:bf:
         98:f4:8a:14:c6:2a:6c:b2:cb:9f:a9:2f:92:22:87:06:8b:78:
         c2:c9:74:89:5d:2c:cc:eb:c1:db:38:82:4f:7a:6d:28:f1:1c:
         a1:dc:13:b0:33:f4:91:91:93:84:a5:28:ab:2e:f1:29:3d:81:
         3f:72:41:4a:0b:60:a0:70:3c:8a:cd:9e:5d:ac:42:42:77:26:
         4c:1d:90:b4:a1:c0:f3:c2:d3:4a:36:6f:ba:5c:47:99:e3:4e:
         42:79:6a:3e:3c:b1:0f:1f:8f:41:d8:83:b9:2a:21:53:f7:59:
         9e:8e:7a:f6:6b:37:9f:f7:58:ad:aa:a3:11:19:91:14:06:48:
         8a:47:28:ad:0e:b4:a1:7c:94:cd:dd:42:3f:74:e4:a7:b8:94:
         9f:23:98:57:e6:aa:f1:77:ee:d9:a0:4a:72:7a:2d:f6:f4:b8:
         c0:70:6c:64:fe:7e:12:48:d4:0e:c2:f3:0b:37:24:d0:9c:4a:
         2c:f5:9a:81:f1:58:ab:7e:77:91:f4:a0:b9:41:8c:ed:16:01:
         e3:44:12:9d:7b:d2:6c:e8:a0:16:7f:a8:b1:71:dc:99:e8:5f:
         56:0e:11:fb:f4:85:9a:ce:43:a9:ee:e7:9c:e4:e9:37:3e:c6:
         a0:df:19:82:ff:45:30:8d
-----BEGIN CERTIFICATE-----
MIIE2DCCAsCgAwIBAgIBDjANBgkqhkiG9w0BAQsFADCBkzELMAkGA1UEBhMCVVMx
CzAJBgNVBAgMAkNBMREwDwYDVQQHDAhTdGFuZm9yZDENMAsGA1UECgwEQk1JUjEO
MAwGA1UECwwFQ0VEQVIxHDAaBgNVBAMME21ldGFkYXRhY2VudGVyLm9yZ3gxJzAl
BgkqhkiG9w0BCQEWGG1ldGFkYXRhY2VudGVyQGdtYWlsLmNvbTAeFw0yMzAxMTgx
ODUxMDZaFw0yNTA0MjExODUxMDZaMIGHMQswCQYDVQQGEwJVUzELMAkGA1UECAwC
Q0ExDTALBgNVBAoMBEJNSVIxDjAMBgNVBAsMBUNFREFSMSMwIQYDVQQDDBpzY2hl
bWEubWV0YWRhdGFjZW50ZXIub3JneDEnMCUGCSqGSIb3DQEJARYYbWV0YWRhdGFj
ZW50ZXJAZ21haWwuY29tMIIBIjANBgkqhkiG9w0BAQEFAAOCAQ8AMIIBCgKCAQEA
pnPsWnAqF4RzKcq2SAkj6/I1eNiTCyVrD6385Tkj1MgKPOH50p5OtoelCpzByptX
3YsEUzEhgOmO2PpwkgnkrxMHntGmWA3vhnMbGAerHB4UzHk1qjmX8Z/E83kZIpp0
J8eKrFy4gbHa28NU78GK73Y73uBF+lnZrrD6FXVmdQYYEGpA3rl7wL4YvS1erLkA
iju6uQP+1QlZsyYeyxV61/DUzHDsoMTHW2pT4gyeZdQUjX4feMMOQen3dBSc7Srj
EmUUt5kYbUDamX24rAdUrEJJL6d4bY+IezSe2hQTaSJ00YdvE1/dsgogmQZyfe/m
C50wwi4TJkTODnw5fGWNvQIDAQABo0EwPzAJBgNVHRMEAjAAMAsGA1UdDwQEAwIF
4DAlBgNVHREEHjAcghpzY2hlbWEubWV0YWRhdGFjZW50ZXIub3JneDANBgkqhkiG
9w0BAQsFAAOCAgEAG6DolSFaA4ZmTywx/+GZV6VOoRvQH8UDHbjR4xE99hcNS3bL
GYP1SYc8LSZbLBCVVWldXCoAw5H6Lj1Mchb1hxymLl17y4qbwIaioVPKMICuHQfZ
IVGzdsPUkyZQJyhbUubpApLX7pU3WKBL55wTxGxhLP+HNmRQ+rXNmLhtkZ5ZEgvv
vl3BN9ezQ2dgNMrBGbbHyu+GJvbM7mmkk8BxhFPqG6W+qo5Z6Sj07lrVi0O0/2kQ
Q73t5p06Av2lD5Bn2HrminPEl3Zuqc2yQL+Pum23drvZJdFP5a1f54+ObPgjbnab
hxyZiKKApZ9gyK6yp3UcxSk1gayswF1RCqPeXcL5uRC9J6pTXAf/Tr6/mPSKFMYq
bLLLn6kvkiKHBot4wsl0iV0szOvB2ziCT3ptKPEcodwTsDP0kZGThKUoqy7xKT2B
P3JBSgtgoHA8is2eXaxCQncmTB2QtKHA88LTSjZvulxHmeNOQnlqPjyxDx+PQdiD
uSohU/dZno569ms3n/dYraqjERmRFAZIikcorQ60oXyUzd1CP3Tkp7iUnyOYV+aq
8Xfu2aBKcnot9vS4wHBsZP5+EkjUDsLzCzck0JxKLPWagfFYq353kfSguUGM7RYB
40QSnXvSbOigFn+osXHcmehfVg4R+/SFms5Dqe7nnOTpNz7GoN8Zgv9FMI0=
-----END CERTIFICATE-----
