Certificate:
    Data:
        Version: 3 (0x2)
        Serial Number: 11 (0xb)
        Signature Algorithm: sha256WithRSAEncryption
        Issuer: C=US, ST=CA, L=Stanford, O=BMIR, OU=CEDAR, CN=metadatacenter.orgx/emailAddress=metadatacenter@gmail.com
        Validity
            Not Before: Jan 17 21:50:43 2024 GMT
            Not After : Apr 20 21:50:43 2026 GMT
        Subject: C=US, ST=CA, O=BMIR, OU=CEDAR, CN=schema.metadatacenter.orgx/emailAddress=metadatacenter@gmail.com
        Subject Public Key Info:
            Public Key Algorithm: rsaEncryption
                RSA Public-Key: (2048 bit)
                Modulus:
                    00:b4:ee:cf:6f:fb:3e:35:f9:a4:41:a7:a6:d1:2a:
                    66:fd:d6:1f:93:2d:13:3e:3b:2f:99:0c:5e:fe:ef:
                    81:2d:6e:a8:b0:d5:50:33:dd:95:47:7e:f1:f2:9a:
                    61:00:76:72:6e:6b:e0:74:b3:0b:b0:06:b2:93:ba:
                    9d:bd:28:21:cf:fe:60:ed:f6:fa:0c:1b:8e:c6:7e:
                    86:03:22:a7:6f:02:2f:a6:c4:3a:f0:5e:02:9f:e8:
                    22:bc:93:7c:40:80:3f:71:f6:9f:2b:f4:44:65:cf:
                    ba:61:00:d4:59:aa:b0:87:2d:ec:7c:0d:e4:c3:c6:
                    c0:13:f9:cb:f3:c9:f1:a5:cd:ef:24:db:ef:d1:3d:
                    be:fe:8f:2d:41:dd:fc:8b:62:b4:64:4e:33:89:a6:
                    7a:c4:cf:c2:53:85:b7:a8:b9:6e:8b:77:56:8a:9a:
                    64:88:8f:fe:35:64:8c:1e:53:1c:09:5d:bf:b0:f8:
                    17:f6:c7:4b:70:62:14:8c:b9:92:bc:2f:f1:57:7d:
                    4e:c9:6e:d6:fb:f9:f0:15:16:e6:07:0e:4e:26:35:
                    18:3a:50:6f:13:65:c4:16:1e:2d:27:70:4d:6f:f3:
                    be:34:bb:57:d6:b5:99:5f:55:36:da:a5:60:e8:2b:
                    33:a8:bb:b5:ef:1c:de:a6:eb:cf:2e:bc:4b:53:60:
                    18:0b
                Exponent: 65537 (0x10001)
        X509v3 extensions:
            X509v3 Basic Constraints: 
                CA:FALSE
            X509v3 Key Usage: 
                Digital Signature, Non Repudiation, Key Encipherment
            X509v3 Subject Alternative Name: 
                DNS:schema.metadatacenter.orgx
    Signature Algorithm: sha256WithRSAEncryption
         45:22:b1:01:33:d2:c0:66:00:ec:6e:82:1a:cc:44:b4:f1:aa:
         99:4b:12:04:23:cd:3d:da:8f:f1:70:8c:ff:74:f2:89:ab:d1:
         4e:75:69:28:77:fe:ee:f6:de:e1:b3:11:03:05:94:df:0a:01:
         01:c6:80:99:66:ef:da:a2:42:15:be:9e:0e:ba:ef:17:ea:74:
         dc:e7:a8:a8:f4:7e:cc:1e:bd:85:b1:a6:6b:44:60:e7:1f:68:
         cf:56:f8:d7:ae:45:f1:5e:65:9d:e8:4b:91:d7:5b:cc:75:ce:
         50:5c:3f:3d:9e:4d:f5:8b:4d:3d:ac:20:3b:21:a7:57:42:7c:
         5c:ed:3b:c0:e3:f3:a3:a7:69:b8:09:7c:f3:fb:f3:3a:84:25:
         0c:4d:e6:c2:fc:6e:a2:e2:2b:bf:10:89:ac:f3:65:7f:cf:d7:
         d8:3f:d9:43:07:4d:e5:dd:08:1b:72:5f:74:b3:93:dc:46:12:
         e7:be:48:00:04:20:fe:02:96:77:ba:62:f5:dc:49:c8:81:66:
         14:e4:06:14:32:db:f4:8d:97:3f:67:37:e5:1a:ad:2b:b6:1e:
         61:47:8b:00:75:aa:83:5a:3c:e4:d6:a0:16:42:7f:cb:eb:cf:
         73:26:1b:c5:0d:8e:08:0a:b0:57:93:87:d0:0f:ba:28:e3:56:
         34:71:b5:d2:80:25:3d:7d:10:73:25:12:57:b4:85:6e:e2:43:
         e2:49:c6:9f:b7:79:9f:26:09:4b:3e:37:5d:c9:ae:df:07:62:
         b0:db:0d:9c:dc:74:14:59:49:c3:ff:a3:36:1d:54:62:76:34:
         97:af:d4:9c:58:09:97:c8:db:f6:a4:64:8c:0e:5d:ad:a5:89:
         1e:70:d5:da:cf:79:5c:f8:c9:79:47:7d:62:07:61:cb:ab:46:
         ce:00:9c:ed:df:a1:63:b3:da:ce:8f:6a:b4:41:ae:9f:99:bc:
         8e:b0:2d:09:50:82:1e:d8:66:fc:4d:7c:d0:4d:fc:1a:39:6e:
         ec:83:71:9b:c8:65:34:60:ff:0e:84:64:85:72:53:7b:01:f5:
         54:92:f0:0a:df:88:96:95:30:60:02:3d:7d:58:76:d9:9c:55:
         f1:f1:0c:37:8d:0e:88:7f:9e:01:fd:64:0a:6d:e7:40:5c:a0:
         41:67:71:38:ef:7a:a0:8e:97:13:9c:60:0d:7f:60:d4:79:98:
         0c:83:dd:6e:f5:8f:13:6e:c0:77:10:51:c3:e0:78:68:4c:11:
         c8:4a:b8:ef:f7:d4:8c:91:84:cf:e9:4e:5c:e1:53:fa:21:5c:
         3b:13:f6:0b:8b:95:5a:6f:5f:d1:2a:30:e6:a4:64:a3:11:1d:
         6b:c9:cb:fe:e4:fc:f5:24
-----BEGIN CERTIFICATE-----
MIIE2DCCAsCgAwIBAgIBCzANBgkqhkiG9w0BAQsFADCBkzELMAkGA1UEBhMCVVMx
CzAJBgNVBAgMAkNBMREwDwYDVQQHDAhTdGFuZm9yZDENMAsGA1UECgwEQk1JUjEO
MAwGA1UECwwFQ0VEQVIxHDAaBgNVBAMME21ldGFkYXRhY2VudGVyLm9yZ3gxJzAl
BgkqhkiG9w0BCQEWGG1ldGFkYXRhY2VudGVyQGdtYWlsLmNvbTAeFw0yNDAxMTcy
MTUwNDNaFw0yNjA0MjAyMTUwNDNaMIGHMQswCQYDVQQGEwJVUzELMAkGA1UECAwC
Q0ExDTALBgNVBAoMBEJNSVIxDjAMBgNVBAsMBUNFREFSMSMwIQYDVQQDDBpzY2hl
bWEubWV0YWRhdGFjZW50ZXIub3JneDEnMCUGCSqGSIb3DQEJARYYbWV0YWRhdGFj
ZW50ZXJAZ21haWwuY29tMIIBIjANBgkqhkiG9w0BAQEFAAOCAQ8AMIIBCgKCAQEA
tO7Pb/s+NfmkQaem0Spm/dYfky0TPjsvmQxe/u+BLW6osNVQM92VR37x8pphAHZy
bmvgdLMLsAayk7qdvSghz/5g7fb6DBuOxn6GAyKnbwIvpsQ68F4Cn+givJN8QIA/
cfafK/REZc+6YQDUWaqwhy3sfA3kw8bAE/nL88nxpc3vJNvv0T2+/o8tQd38i2K0
ZE4ziaZ6xM/CU4W3qLlui3dWippkiI/+NWSMHlMcCV2/sPgX9sdLcGIUjLmSvC/x
V31OyW7W+/nwFRbmBw5OJjUYOlBvE2XEFh4tJ3BNb/O+NLtX1rWZX1U22qVg6Csz
qLu17xzepuvPLrxLU2AYCwIDAQABo0EwPzAJBgNVHRMEAjAAMAsGA1UdDwQEAwIF
4DAlBgNVHREEHjAcghpzY2hlbWEubWV0YWRhdGFjZW50ZXIub3JneDANBgkqhkiG
9w0BAQsFAAOCAgEARSKxATPSwGYA7G6CGsxEtPGqmUsSBCPNPdqP8XCM/3TyiavR
TnVpKHf+7vbe4bMRAwWU3woBAcaAmWbv2qJCFb6eDrrvF+p03OeoqPR+zB69hbGm
a0Rg5x9oz1b4165F8V5lnehLkddbzHXOUFw/PZ5N9YtNPawgOyGnV0J8XO07wOPz
o6dpuAl88/vzOoQlDE3mwvxuouIrvxCJrPNlf8/X2D/ZQwdN5d0IG3JfdLOT3EYS
575IAAQg/gKWd7pi9dxJyIFmFOQGFDLb9I2XP2c35RqtK7YeYUeLAHWqg1o85Nag
FkJ/y+vPcyYbxQ2OCAqwV5OH0A+6KONWNHG10oAlPX0QcyUSV7SFbuJD4knGn7d5
nyYJSz43Xcmu3wdisNsNnNx0FFlJw/+jNh1UYnY0l6/UnFgJl8jb9qRkjA5draWJ
HnDV2s95XPjJeUd9Ygdhy6tGzgCc7d+hY7Pazo9qtEGun5m8jrAtCVCCHthm/E18
0E38Gjlu7INxm8hlNGD/DoRkhXJTewH1VJLwCt+IlpUwYAI9fVh22ZxV8fEMN40O
iH+eAf1kCm3nQFygQWdxOO96oI6XE5xgDX9g1HmYDIPdbvWPE27AdxBRw+B4aEwR
yEq47/fUjJGEz+lOXOFT+iFcOxP2C4uVWm9f0Sow5qRkoxEda8nL/uT89SQ=
-----END CERTIFICATE-----
