Certificate:
    Data:
        Version: 3 (0x2)
        Serial Number: 17 (0x11)
        Signature Algorithm: sha256WithRSAEncryption
        Issuer: C=US, ST=CA, L=Stanford, O=BMIR, OU=CEDAR, CN=metadatacenter.orgx/emailAddress=metadatacenter@gmail.com
        Validity
            Not Before: Jan 18 00:50:46 2024 GMT
            Not After : Apr 21 00:50:46 2026 GMT
        Subject: C=US, ST=CA, O=BMIR, OU=CEDAR, CN=cedar.metadatacenter.orgx/emailAddress=metadatacenter@gmail.com
        Subject Public Key Info:
            Public Key Algorithm: rsaEncryption
                RSA Public-Key: (2048 bit)
                Modulus:
                    00:b6:8a:a0:2c:6b:d8:d7:3d:34:c1:4e:4f:b9:38:
                    56:bb:24:2d:79:45:c0:3e:56:44:77:be:91:d1:62:
                    fd:ef:50:bf:f2:71:2c:9b:47:17:8a:e2:11:c5:ca:
                    47:0a:63:a2:28:7f:93:8a:98:c3:1c:36:3c:f8:f2:
                    99:a9:d7:2e:58:68:7f:91:45:c9:00:92:87:ba:4a:
                    e0:30:7d:3d:8f:7e:56:6a:32:2d:be:db:31:7c:63:
                    00:e3:18:91:f9:ed:6e:68:04:c4:8e:4e:ca:59:8a:
                    c4:38:fa:42:ab:aa:09:d0:fe:dc:67:03:2c:de:0f:
                    6d:3a:bf:49:c0:d6:87:ee:68:a0:ad:e6:9f:d3:59:
                    2c:0b:8e:00:cb:43:ad:8f:11:ba:5a:e6:6e:75:a2:
                    02:d4:d6:b1:c8:d7:2a:bf:79:42:e9:f8:e6:dc:c8:
                    21:d6:bd:b0:7a:6a:6b:a0:66:04:e9:74:bb:f9:a0:
                    01:2b:13:f2:fc:34:d5:cb:3a:30:e0:53:6e:c3:e3:
                    e9:32:55:28:26:40:61:27:78:12:a1:1f:58:69:85:
                    0c:3b:b0:63:e1:3d:b4:3a:3a:c2:52:3d:d4:54:b7:
                    31:0b:5f:d5:ff:8d:16:85:77:b2:4c:39:c6:02:d0:
                    3c:48:9b:a0:72:00:f9:49:5b:f1:e3:a3:f9:97:97:
                    da:a7
                Exponent: 65537 (0x10001)
        X509v3 extensions:
            X509v3 Basic Constraints: 
                CA:FALSE
            X509v3 Key Usage: 
                Digital Signature, Non Repudiation, Key Encipherment
            X509v3 Subject Alternative Name: 
                DNS:cedar.metadatacenter.orgx
    Signature Algorithm: sha256WithRSAEncryption
         8c:17:96:1b:7a:a0:eb:c8:9d:b0:b3:63:e7:8a:71:d8:7a:77:
         b3:41:3a:ad:c2:fb:2b:18:ff:d7:bf:48:e7:2f:00:59:47:4c:
         04:66:66:d2:30:d4:04:93:5b:55:00:d4:39:05:af:61:1c:d2:
         34:35:60:b3:6c:b7:ec:a6:f2:39:d1:5d:3c:dd:39:f6:3f:2a:
         aa:cc:a3:c8:51:ae:9b:0c:d4:78:ec:3f:03:bf:69:6a:6f:9b:
         45:11:7c:ff:fb:78:e7:e0:62:e8:77:a0:86:98:9b:b8:c3:56:
         01:40:d2:dc:b4:46:19:9d:52:89:6f:53:ec:e0:05:2f:9f:c5:
         06:06:3e:50:e4:6c:32:a5:53:93:24:7e:be:cc:17:65:ba:d3:
         0e:71:44:59:2d:31:62:3b:49:5c:9e:db:e9:f8:0d:6d:ce:31:
         26:2c:1a:86:aa:76:a1:cb:62:ca:33:3e:7d:4c:71:41:8a:c6:
         f2:3e:e7:1b:cc:fe:a9:fd:75:27:de:fd:6e:4c:b3:a4:4a:b7:
         28:d2:94:d7:58:92:ca:e9:a5:ec:ab:3f:78:e5:3f:29:71:58:
         b7:0f:21:a9:cb:1f:7b:e7:96:cd:89:b9:1c:4e:24:85:9b:5d:
         40:42:de:1d:bb:25:a0:0c:63:f5:93:c1:04:3b:21:0d:2e:a2:
         16:51:d5:44:22:37:05:c4:45:02:c0:73:58:e6:a0:49:28:bc:
         42:a5:e2:9d:d7:0d:54:70:a4:b4:e4:0f:ad:29:5b:08:f5:77:
         df:1e:93:6e:fc:c6:b7:a6:22:42:13:21:96:b0:f9:2f:6b:f7:
         e2:0a:a2:dd:3d:ec:1e:01:04:99:0d:9a:95:6c:6d:6d:eb:f1:
         ac:03:44:37:cf:53:75:e4:5d:b1:3e:ed:10:4b:3d:fe:3a:14:
         bd:60:e7:11:35:2b:62:99:8b:71:e9:a1:a8:94:69:3f:29:67:
         d6:13:31:c7:76:b9:92:06:7b:5e:b4:c2:6b:6f:8b:22:08:76:
         2c:d8:b0:29:ff:03:da:bd:66:01:0a:de:a4:c4:1c:24:62:95:
         50:4c:2c:99:9f:cd:34:2a:f4:72:b9:c7:9c:ec:9c:2f:79:74:
         11:7e:19:8f:1c:91:5c:f7:b1:08:eb:50:bc:5c:44:10:97:b3:
         3b:d1:5e:3f:1d:f3:ef:28:2e:5d:18:ca:10:38:84:41:43:36:
         0c:80:e5:14:21:32:97:73:c3:67:dd:24:29:ca:8b:b9:be:db:
         c3:96:19:79:67:42:2e:47:79:57:dd:9c:ca:ab:f8:b8:77:26:
         c8:ca:07:1a:e1:74:6a:13:15:5a:d9:79:7e:ef:93:9b:6e:fb:
         7e:a5:6f:bd:fc:ce:b4:1f
-----BEGIN CERTIFICATE-----
MIIE1jCCAr6gAwIBAgIBETANBgkqhkiG9w0BAQsFADCBkzELMAkGA1UEBhMCVVMx
CzAJBgNVBAgMAkNBMREwDwYDVQQHDAhTdGFuZm9yZDENMAsGA1UECgwEQk1JUjEO
MAwGA1UECwwFQ0VEQVIxHDAaBgNVBAMME21ldGFkYXRhY2VudGVyLm9yZ3gxJzAl
BgkqhkiG9w0BCQEWGG1ldGFkYXRhY2VudGVyQGdtYWlsLmNvbTAeFw0yNDAxMTgw
MDUwNDZaFw0yNjA0MjEwMDUwNDZaMIGGMQswCQYDVQQGEwJVUzELMAkGA1UECAwC
Q0ExDTALBgNVBAoMBEJNSVIxDjAMBgNVBAsMBUNFREFSMSIwIAYDVQQDDBljZWRh
ci5tZXRhZGF0YWNlbnRlci5vcmd4MScwJQYJKoZIhvcNAQkBFhhtZXRhZGF0YWNl
bnRlckBnbWFpbC5jb20wggEiMA0GCSqGSIb3DQEBAQUAA4IBDwAwggEKAoIBAQC2
iqAsa9jXPTTBTk+5OFa7JC15RcA+VkR3vpHRYv3vUL/ycSybRxeK4hHFykcKY6Io
f5OKmMMcNjz48pmp1y5YaH+RRckAkoe6SuAwfT2PflZqMi2+2zF8YwDjGJH57W5o
BMSOTspZisQ4+kKrqgnQ/txnAyzeD206v0nA1ofuaKCt5p/TWSwLjgDLQ62PEbpa
5m51ogLU1rHI1yq/eULp+ObcyCHWvbB6amugZgTpdLv5oAErE/L8NNXLOjDgU27D
4+kyVSgmQGEneBKhH1hphQw7sGPhPbQ6OsJSPdRUtzELX9X/jRaFd7JMOcYC0DxI
m6ByAPlJW/Hjo/mXl9qnAgMBAAGjQDA+MAkGA1UdEwQCMAAwCwYDVR0PBAQDAgXg
MCQGA1UdEQQdMBuCGWNlZGFyLm1ldGFkYXRhY2VudGVyLm9yZ3gwDQYJKoZIhvcN
AQELBQADggIBAIwXlht6oOvInbCzY+eKcdh6d7NBOq3C+ysY/9e/SOcvAFlHTARm
ZtIw1ASTW1UA1DkFr2Ec0jQ1YLNst+ym8jnRXTzdOfY/KqrMo8hRrpsM1HjsPwO/
aWpvm0URfP/7eOfgYuh3oIaYm7jDVgFA0ty0RhmdUolvU+zgBS+fxQYGPlDkbDKl
U5Mkfr7MF2W60w5xRFktMWI7SVye2+n4DW3OMSYsGoaqdqHLYsozPn1McUGKxvI+
5xvM/qn9dSfe/W5Ms6RKtyjSlNdYksrppeyrP3jlPylxWLcPIanLH3vnls2JuRxO
JIWbXUBC3h27JaAMY/WTwQQ7IQ0uohZR1UQiNwXERQLAc1jmoEkovEKl4p3XDVRw
pLTkD60pWwj1d98ek278xremIkITIZaw+S9r9+IKot097B4BBJkNmpVsbW3r8awD
RDfPU3XkXbE+7RBLPf46FL1g5xE1K2KZi3HpoaiUaT8pZ9YTMcd2uZIGe160wmtv
iyIIdizYsCn/A9q9ZgEK3qTEHCRilVBMLJmfzTQq9HK5x5zsnC95dBF+GY8ckVz3
sQjrULxcRBCXszvRXj8d8+8oLl0YyhA4hEFDNgyA5RQhMpdzw2fdJCnKi7m+28OW
GXlnQi5HeVfdnMqr+Lh3JsjKBxrhdGoTFVrZeX7vk5tu+36lb738zrQf
-----END CERTIFICATE-----
