Certificate:
    Data:
        Version: 3 (0x2)
        Serial Number: 3 (0x3)
        Signature Algorithm: sha256WithRSAEncryption
        Issuer: C=US, ST=CA, L=Stanford, O=BMIR, OU=CEDAR, CN=metadatacenter.orgx/emailAddress=metadatacenter@gmail.com
        Validity
            Not Before: Jan 18 17:58:00 2023 GMT
            Not After : Apr 21 17:58:00 2025 GMT
        Subject: C=US, ST=CA, O=BMIR, OU=CEDAR, CN=cedar.metadatacenter.orgx/emailAddress=metadatacenter@gmail.com
        Subject Public Key Info:
            Public Key Algorithm: rsaEncryption
                RSA Public-Key: (2048 bit)
                Modulus:
                    00:a6:eb:ca:de:bc:8b:29:43:cd:35:1f:ed:fc:08:
                    e0:c1:0e:04:27:c0:b7:6a:7a:ef:aa:e5:ee:4c:d6:
                    56:8e:00:1d:ab:ae:cf:46:7b:c8:56:fd:38:15:17:
                    06:46:29:93:71:8b:32:c0:a0:08:9b:88:0b:40:b1:
                    72:31:61:65:73:2f:b2:6c:9f:92:a9:cb:c1:5d:06:
                    57:7b:e0:54:c7:1e:d6:99:fa:29:34:1d:2f:82:4f:
                    85:56:19:b3:1c:ce:29:a3:71:ce:35:37:3a:80:0f:
                    f0:54:2c:3a:d4:67:df:6d:33:2f:7d:82:56:62:9f:
                    7f:7c:92:4f:03:ce:b8:bb:94:f4:44:41:54:3c:c8:
                    d7:fc:81:f7:54:12:d9:99:37:35:8d:55:02:79:a4:
                    bb:2b:92:b4:c3:56:65:ab:88:7b:01:55:94:80:6f:
                    c8:35:f1:81:e0:4c:b7:75:94:f7:b3:3b:10:d9:0b:
                    89:de:b0:f3:d0:d0:99:7a:e2:c9:97:46:1c:a7:dd:
                    53:d7:d1:d6:4b:77:c2:c5:d1:bd:65:6d:18:d6:49:
                    d6:ff:fc:f9:38:4b:e8:78:15:ea:62:01:6c:b8:5b:
                    da:8d:e8:29:10:f9:e3:1d:41:1b:f0:a5:d6:d6:d1:
                    31:ae:ba:a8:34:1e:6d:98:b1:c4:3b:f9:ec:c6:a0:
                    6f:a9
                Exponent: 65537 (0x10001)
        X509v3 extensions:
            X509v3 Basic Constraints: 
                CA:FALSE
            X509v3 Key Usage: 
                Digital Signature, Non Repudiation, Key Encipherment
            X509v3 Subject Alternative Name: 
                DNS:cedar.metadatacenter.orgx
    Signature Algorithm: sha256WithRSAEncryption
         08:21:f6:b1:34:97:cf:5f:55:8d:04:35:fe:26:a5:40:49:bd:
         84:dd:39:cb:ea:13:08:f7:12:63:a1:ff:81:98:fe:82:de:38:
         6a:62:95:f1:4f:5b:6c:2f:7b:ee:c7:82:a7:8b:f9:1a:b0:0f:
         a7:ab:d0:4c:3d:bd:62:e1:f7:23:b5:32:4a:ad:86:26:d6:87:
         9f:e7:ca:a5:26:86:1c:77:1c:20:8b:c9:ba:cb:69:63:71:fd:
         f8:6b:fb:a0:3c:25:eb:ea:7f:da:30:a4:0f:8c:95:41:47:60:
         94:da:88:d5:74:25:39:99:3e:6a:91:8c:57:61:9c:de:58:f5:
         4a:64:7c:3f:17:82:73:66:d2:37:ab:2d:f1:7d:d8:04:e6:98:
         62:b9:0a:79:da:de:aa:e4:1d:a5:39:ee:fa:1f:38:cd:56:25:
         26:16:ad:f7:85:92:8a:fc:fd:17:17:18:26:d5:57:3c:d0:a5:
         6a:4c:c0:bc:7a:a0:b0:0d:98:3d:ee:63:f9:73:35:f0:5e:ba:
         d3:69:d7:f8:3a:3c:35:cc:34:e5:0f:16:e0:3d:70:0a:1d:1f:
         a7:1d:40:85:49:9b:12:3b:2a:af:87:11:54:1d:1b:36:a0:58:
         87:6e:82:11:34:54:dd:4a:21:e0:6d:3b:11:6b:cd:08:73:73:
         e3:02:d4:ba:ac:ff:c9:62:4b:ff:e3:9e:a7:f8:35:b8:bd:e8:
         5a:db:78:ad:a0:e3:80:bc:12:ab:46:15:2f:51:df:70:48:51:
         30:0e:c0:c6:35:42:fd:54:b8:56:f6:af:b5:21:05:78:33:ba:
         f5:0f:56:9c:05:43:0b:e0:7d:f5:28:b9:79:e2:28:e3:a7:f2:
         94:48:46:e8:21:c9:55:7a:61:fb:83:e8:9e:45:d5:a6:01:5b:
         7e:19:b5:05:10:d2:33:5e:ad:42:d5:b8:30:0d:8a:ba:a7:55:
         cb:2f:4b:df:ad:c8:79:41:e5:17:bf:45:e0:86:af:ac:67:6d:
         19:e6:c7:3b:ef:ef:fe:e9:2c:0d:b4:1b:35:3d:48:c5:2f:e3:
         35:68:da:f0:0a:2f:f7:89:af:40:33:b2:38:c3:93:16:7b:ea:
         6a:31:4e:c5:16:d5:ad:84:a7:4a:81:99:30:09:d3:d0:d0:a4:
         ba:78:13:16:e2:0f:24:01:9c:74:33:c4:10:33:17:2b:25:62:
         df:f3:33:20:5f:fe:c7:8a:5e:16:8a:a6:61:eb:97:5c:21:4f:
         a6:2c:03:fe:27:a9:97:14:49:33:28:ba:44:53:e7:74:8f:3d:
         20:59:c0:a8:8a:02:11:ba:f2:5e:dc:92:4c:c2:04:25:66:61:
         75:10:0f:0f:ec:bb:9a:34
-----BEGIN CERTIFICATE-----
MIIE1jCCAr6gAwIBAgIBAzANBgkqhkiG9w0BAQsFADCBkzELMAkGA1UEBhMCVVMx
CzAJBgNVBAgMAkNBMREwDwYDVQQHDAhTdGFuZm9yZDENMAsGA1UECgwEQk1JUjEO
MAwGA1UECwwFQ0VEQVIxHDAaBgNVBAMME21ldGFkYXRhY2VudGVyLm9yZ3gxJzAl
BgkqhkiG9w0BCQEWGG1ldGFkYXRhY2VudGVyQGdtYWlsLmNvbTAeFw0yMzAxMTgx
NzU4MDBaFw0yNTA0MjExNzU4MDBaMIGGMQswCQYDVQQGEwJVUzELMAkGA1UECAwC
Q0ExDTALBgNVBAoMBEJNSVIxDjAMBgNVBAsMBUNFREFSMSIwIAYDVQQDDBljZWRh
ci5tZXRhZGF0YWNlbnRlci5vcmd4MScwJQYJKoZIhvcNAQkBFhhtZXRhZGF0YWNl
bnRlckBnbWFpbC5jb20wggEiMA0GCSqGSIb3DQEBAQUAA4IBDwAwggEKAoIBAQCm
68revIspQ801H+38CODBDgQnwLdqeu+q5e5M1laOAB2rrs9Ge8hW/TgVFwZGKZNx
izLAoAibiAtAsXIxYWVzL7Jsn5Kpy8FdBld74FTHHtaZ+ik0HS+CT4VWGbMczimj
cc41NzqAD/BULDrUZ99tMy99glZin398kk8Dzri7lPREQVQ8yNf8gfdUEtmZNzWN
VQJ5pLsrkrTDVmWriHsBVZSAb8g18YHgTLd1lPezOxDZC4nesPPQ0Jl64smXRhyn
3VPX0dZLd8LF0b1lbRjWSdb//Pk4S+h4FepiAWy4W9qN6CkQ+eMdQRvwpdbW0TGu
uqg0Hm2YscQ7+ezGoG+pAgMBAAGjQDA+MAkGA1UdEwQCMAAwCwYDVR0PBAQDAgXg
MCQGA1UdEQQdMBuCGWNlZGFyLm1ldGFkYXRhY2VudGVyLm9yZ3gwDQYJKoZIhvcN
AQELBQADggIBAAgh9rE0l89fVY0ENf4mpUBJvYTdOcvqEwj3EmOh/4GY/oLeOGpi
lfFPW2wve+7HgqeL+RqwD6er0Ew9vWLh9yO1MkqthibWh5/nyqUmhhx3HCCLybrL
aWNx/fhr+6A8Jevqf9owpA+MlUFHYJTaiNV0JTmZPmqRjFdhnN5Y9UpkfD8XgnNm
0jerLfF92ATmmGK5Cnna3qrkHaU57vofOM1WJSYWrfeFkor8/RcXGCbVVzzQpWpM
wLx6oLANmD3uY/lzNfBeutNp1/g6PDXMNOUPFuA9cAodH6cdQIVJmxI7Kq+HEVQd
GzagWIdughE0VN1KIeBtOxFrzQhzc+MC1Lqs/8liS//jnqf4Nbi96FrbeK2g44C8
EqtGFS9R33BIUTAOwMY1Qv1UuFb2r7UhBXgzuvUPVpwFQwvgffUouXniKOOn8pRI
RughyVV6YfuD6J5F1aYBW34ZtQUQ0jNerULVuDANirqnVcsvS9+tyHlB5Re/ReCG
r6xnbRnmxzvv7/7pLA20GzU9SMUv4zVo2vAKL/eJr0AzsjjDkxZ76moxTsUW1a2E
p0qBmTAJ09DQpLp4ExbiDyQBnHQzxBAzFyslYt/zMyBf/seKXhaKpmHrl1whT6Ys
A/4nqZcUSTMoukRT53SPPSBZwKiKAhG68l7ckkzCBCVmYXUQDw/su5o0
-----END CERTIFICATE-----
