Certificate:
    Data:
        Version: 3 (0x2)
        Serial Number: 8 (0x8)
        Signature Algorithm: sha256WithRSAEncryption
        Issuer: C=US, ST=CA, L=Stanford, O=BMIR, OU=CEDAR, CN=metadatacenter.orgx/emailAddress=metadatacenter@gmail.com
        Validity
            Not Before: Jan 17 21:50:43 2024 GMT
            Not After : Apr 20 21:50:43 2026 GMT
        Subject: C=US, ST=CA, O=BMIR, OU=CEDAR, CN=open.metadatacenter.orgx/emailAddress=metadatacenter@gmail.com
        Subject Public Key Info:
            Public Key Algorithm: rsaEncryption
                RSA Public-Key: (2048 bit)
                Modulus:
                    00:dd:4f:e9:36:d9:38:7e:ea:71:e2:d6:8f:a2:b4:
                    fe:9c:58:6f:05:62:5b:7f:b1:d9:3a:70:86:0b:3d:
                    62:85:20:89:04:a1:4a:1e:46:07:94:7f:f9:53:80:
                    1f:e6:a4:86:e5:f9:e1:08:bd:ea:81:5b:b3:15:3a:
                    79:2d:06:67:4a:10:03:dd:32:e7:5f:fe:16:50:aa:
                    a3:a2:69:78:d2:3e:7c:4d:17:d2:c1:11:fd:b4:a5:
                    6a:a3:51:7f:51:78:24:13:0c:39:e5:86:2a:c1:78:
                    de:12:3c:6d:cd:f8:5e:20:15:8f:e9:24:bb:7b:26:
                    9b:f2:84:a8:8b:f4:b0:57:37:73:71:aa:85:ef:30:
                    e0:98:1d:09:57:b5:e7:91:c3:3e:44:8c:75:9d:20:
                    1e:79:51:aa:3b:a3:39:eb:c5:d3:3d:41:a4:9b:59:
                    4a:d8:ae:20:d8:d9:1d:9f:32:29:e1:8f:79:98:bc:
                    76:a3:a6:3b:94:ce:74:ae:dd:6e:6e:a2:17:7f:90:
                    e2:c4:ff:c0:5c:79:32:4c:aa:8c:b9:fc:ce:c9:9b:
                    ed:c2:fc:a7:a2:63:35:c9:7d:c2:b4:0d:76:b1:9c:
                    87:ba:04:89:19:b5:fd:6b:cc:1f:a1:f0:ab:03:3a:
                    ad:29:70:b7:c4:54:23:8a:df:de:ab:0d:00:10:60:
                    47:37
                Exponent: 65537 (0x10001)
        X509v3 extensions:
            X509v3 Basic Constraints: 
                CA:FALSE
            X509v3 Key Usage: 
                Digital Signature, Non Repudiation, Key Encipherment
            X509v3 Subject Alternative Name: 
                DNS:open.metadatacenter.orgx
    Signature Algorithm: sha256WithRSAEncryption
         b5:ca:43:51:f8:71:a2:03:cb:66:f5:e8:ba:56:73:c7:9b:dd:
         ed:db:02:7a:b2:50:7d:e5:6b:a7:3f:c8:5e:2b:7b:5d:4f:28:
         f4:c6:c0:d3:4a:58:f3:e3:18:90:96:2c:90:8a:59:cb:d9:2f:
         fb:5b:cf:be:95:3e:37:9f:47:50:f8:ab:70:f8:bc:e5:ea:1d:
         73:ed:53:e5:22:02:56:e7:08:6e:d3:ab:ee:aa:7d:68:c0:d2:
         17:2d:a8:8c:3c:a1:f7:12:f5:b0:07:e4:c9:a2:37:35:3b:0c:
         14:97:cf:f7:79:bf:9f:f5:53:03:01:1e:83:12:8a:42:c7:6b:
         af:57:50:1b:42:9f:50:14:07:0f:8b:e9:4b:52:1e:f3:92:3a:
         48:b2:e0:2d:28:29:d5:ec:d5:c5:97:cb:f5:25:fd:7a:ac:e0:
         07:42:9a:b9:95:a2:83:a0:f5:04:96:b5:11:97:09:e1:b0:5a:
         ce:cc:dd:40:a4:39:bf:16:51:1f:5a:22:3d:51:a3:90:59:a4:
         a8:9c:4b:a7:14:35:11:c2:95:ed:a9:52:aa:4a:62:6a:88:9f:
         6a:bb:9d:f4:77:b0:65:22:0b:79:93:08:64:7b:4d:06:1a:81:
         8a:e2:bc:1a:d4:ed:b6:9e:72:c5:c4:be:e5:a9:ac:de:3b:dc:
         a4:cb:fd:d0:6b:8e:5e:c1:fa:67:71:b6:74:4b:df:6e:c1:ba:
         a2:36:89:5a:b4:6e:fa:f6:b2:69:77:0e:b7:d9:b0:54:98:86:
         84:75:31:93:8a:b0:c6:6c:4a:35:92:c4:16:16:a7:13:9a:53:
         c5:3c:cd:5f:7d:49:1e:38:8c:1d:a6:f4:3f:c6:44:ca:06:44:
         80:45:2d:73:1d:d7:45:70:a5:40:a5:19:d3:6e:cb:6e:a4:93:
         e4:ff:2a:e6:80:9c:85:6f:b7:63:e3:07:d7:44:86:2d:6c:25:
         29:48:12:0b:ee:15:ec:60:1c:2e:bf:36:4a:1c:e4:3a:b0:06:
         7f:3e:51:3f:bc:1d:24:f7:83:07:d1:be:9c:ae:8b:78:4d:21:
         80:db:34:c7:38:76:90:53:89:74:0e:f5:6a:c8:bb:6d:73:06:
         00:0b:af:d4:cb:7e:93:91:9f:a1:94:03:5e:e1:da:48:b5:52:
         34:8f:e3:61:c2:69:32:67:a5:d5:58:35:4e:77:19:f6:74:45:
         d0:6c:1e:e9:70:d3:1c:e8:ec:66:53:39:33:5b:9e:91:b2:db:
         17:fa:6d:37:bc:4c:94:8f:d4:08:81:8a:f5:ad:19:bc:42:21:
         3d:8e:13:38:c3:c4:5b:f5:ce:d5:28:55:dd:1e:11:74:ae:d4:
         dc:5d:22:5b:69:1c:7b:cf
-----BEGIN CERTIFICATE-----
MIIE1DCCArygAwIBAgIBCDANBgkqhkiG9w0BAQsFADCBkzELMAkGA1UEBhMCVVMx
CzAJBgNVBAgMAkNBMREwDwYDVQQHDAhTdGFuZm9yZDENMAsGA1UECgwEQk1JUjEO
MAwGA1UECwwFQ0VEQVIxHDAaBgNVBAMME21ldGFkYXRhY2VudGVyLm9yZ3gxJzAl
BgkqhkiG9w0BCQEWGG1ldGFkYXRhY2VudGVyQGdtYWlsLmNvbTAeFw0yNDAxMTcy
MTUwNDNaFw0yNjA0MjAyMTUwNDNaMIGFMQswCQYDVQQGEwJVUzELMAkGA1UECAwC
Q0ExDTALBgNVBAoMBEJNSVIxDjAMBgNVBAsMBUNFREFSMSEwHwYDVQQDDBhvcGVu
Lm1ldGFkYXRhY2VudGVyLm9yZ3gxJzAlBgkqhkiG9w0BCQEWGG1ldGFkYXRhY2Vu
dGVyQGdtYWlsLmNvbTCCASIwDQYJKoZIhvcNAQEBBQADggEPADCCAQoCggEBAN1P
6TbZOH7qceLWj6K0/pxYbwViW3+x2Tpwhgs9YoUgiQShSh5GB5R/+VOAH+akhuX5
4Qi96oFbsxU6eS0GZ0oQA90y51/+FlCqo6JpeNI+fE0X0sER/bSlaqNRf1F4JBMM
OeWGKsF43hI8bc34XiAVj+kku3smm/KEqIv0sFc3c3Gqhe8w4JgdCVe155HDPkSM
dZ0gHnlRqjujOevF0z1BpJtZStiuINjZHZ8yKeGPeZi8dqOmO5TOdK7dbm6iF3+Q
4sT/wFx5MkyqjLn8zsmb7cL8p6JjNcl9wrQNdrGch7oEiRm1/WvMH6HwqwM6rSlw
t8RUI4rf3qsNABBgRzcCAwEAAaM/MD0wCQYDVR0TBAIwADALBgNVHQ8EBAMCBeAw
IwYDVR0RBBwwGoIYb3Blbi5tZXRhZGF0YWNlbnRlci5vcmd4MA0GCSqGSIb3DQEB
CwUAA4ICAQC1ykNR+HGiA8tm9ei6VnPHm93t2wJ6slB95WunP8heK3tdTyj0xsDT
Sljz4xiQliyQilnL2S/7W8++lT43n0dQ+Ktw+Lzl6h1z7VPlIgJW5whu06vuqn1o
wNIXLaiMPKH3EvWwB+TJojc1OwwUl8/3eb+f9VMDAR6DEopCx2uvV1AbQp9QFAcP
i+lLUh7zkjpIsuAtKCnV7NXFl8v1Jf16rOAHQpq5laKDoPUElrURlwnhsFrOzN1A
pDm/FlEfWiI9UaOQWaSonEunFDURwpXtqVKqSmJqiJ9qu530d7BlIgt5kwhke00G
GoGK4rwa1O22nnLFxL7lqazeO9yky/3Qa45ewfpncbZ0S99uwbqiNolatG769rJp
dw632bBUmIaEdTGTirDGbEo1ksQWFqcTmlPFPM1ffUkeOIwdpvQ/xkTKBkSARS1z
HddFcKVApRnTbstupJPk/yrmgJyFb7dj4wfXRIYtbCUpSBIL7hXsYBwuvzZKHOQ6
sAZ/PlE/vB0k94MH0b6crot4TSGA2zTHOHaQU4l0DvVqyLttcwYAC6/Uy36TkZ+h
lANe4dpItVI0j+NhwmkyZ6XVWDVOdxn2dEXQbB7pcNMc6OxmUzkzW56RstsX+m03
vEyUj9QIgYr1rRm8QiE9jhM4w8Rb9c7VKFXdHhF0rtTcXSJbaRx7zw==
-----END CERTIFICATE-----
