Certificate:
    Data:
        Version: 3 (0x2)
        Serial Number: 10 (0xa)
        Signature Algorithm: sha256WithRSAEncryption
        Issuer: C=US, ST=CA, L=Stanford, O=BMIR, OU=CEDAR, CN=metadatacenter.orgx/emailAddress=metadatacenter@gmail.com
        Validity
            Not Before: Jan 18 18:41:34 2023 GMT
            Not After : Apr 21 18:41:34 2025 GMT
        Subject: C=US, ST=CA, O=BMIR, OU=CEDAR, CN=open.metadatacenter.orgx/emailAddress=metadatacenter@gmail.com
        Subject Public Key Info:
            Public Key Algorithm: rsaEncryption
                RSA Public-Key: (2048 bit)
                Modulus:
                    00:be:7d:b0:30:4a:2c:50:96:21:29:82:ef:2d:f3:
                    90:c9:de:3f:33:d0:a8:fa:f7:74:7a:f1:f0:44:07:
                    bf:e4:96:d8:9f:b5:fd:2c:dd:dc:4f:b6:15:a1:94:
                    2c:61:46:c3:94:66:3f:e4:15:b4:0f:0d:b9:ce:5a:
                    5c:b3:d9:a6:f0:f0:0a:38:6f:a4:6a:1b:97:cb:60:
                    ea:d0:1d:2e:e6:48:01:26:dd:3f:56:7f:7a:33:4d:
                    95:4e:15:a7:9e:4e:87:0d:7d:a3:c5:16:07:a8:e5:
                    29:cc:44:56:62:52:93:aa:44:01:1c:f3:4c:08:f8:
                    98:df:f2:c9:df:96:f6:cc:01:0e:47:50:0f:01:56:
                    dd:52:73:49:41:55:a4:a6:6e:e7:f4:9a:42:e4:9a:
                    a7:13:b6:bd:17:d2:53:99:33:ef:be:d0:d6:2b:2b:
                    3b:5c:d5:a3:52:cd:5c:53:82:8c:97:aa:55:81:ff:
                    27:a0:f3:f2:0f:32:60:f6:e7:32:36:b0:4e:2e:d6:
                    9f:d4:e8:d9:65:55:e9:01:b4:8c:f6:a2:70:e4:68:
                    74:3c:e5:74:c1:91:2f:6d:6b:c0:b7:5a:3d:b5:a6:
                    9f:1d:fc:e3:32:88:26:4f:e9:82:f5:84:04:52:52:
                    22:31:aa:44:82:d6:e6:82:77:60:f0:61:6d:b5:dd:
                    9c:51
                Exponent: 65537 (0x10001)
        X509v3 extensions:
            X509v3 Basic Constraints: 
                CA:FALSE
            X509v3 Key Usage: 
                Digital Signature, Non Repudiation, Key Encipherment
            X509v3 Subject Alternative Name: 
                DNS:open.metadatacenter.orgx
    Signature Algorithm: sha256WithRSAEncryption
         5a:71:01:a1:b7:b9:87:fe:34:6f:4c:e7:3b:39:65:e0:ab:96:
         57:d6:ef:51:67:bc:24:94:77:d8:a1:44:88:08:12:7c:dc:0a:
         95:ae:d8:72:9d:02:17:e9:59:b7:79:8e:d2:2b:1e:7b:65:9c:
         c4:a3:d1:b2:da:ce:b6:76:09:56:9b:c1:bf:cd:29:4c:e7:fb:
         f3:59:ab:b8:b1:33:33:db:01:5b:7f:41:24:68:51:f3:3a:cf:
         95:24:96:b5:8a:ee:a7:b6:0a:79:3d:d0:8e:19:b0:e1:a9:c9:
         53:06:9e:00:0a:3c:26:53:18:f5:b3:d3:2f:c5:51:6e:be:b9:
         a4:70:c5:fe:67:3b:e2:b5:79:39:98:cb:75:3d:3e:16:85:34:
         f8:e5:42:93:f2:10:06:26:bb:0e:55:37:7a:fa:db:da:02:91:
         01:1d:ed:c1:4f:fa:8b:29:99:e6:d0:49:6e:7c:61:e5:ad:72:
         54:38:3c:0c:64:c1:fa:ef:5e:dc:42:46:db:17:2b:63:4b:0b:
         31:46:c9:ba:9e:fb:ab:8e:53:3e:ae:a7:32:39:db:45:14:a0:
         9f:aa:53:56:92:ca:45:05:26:49:a5:a5:07:e2:b5:2a:32:04:
         61:73:85:d2:a5:25:0f:be:59:09:69:2f:68:1a:74:76:ea:cb:
         21:01:e1:88:e8:82:74:b7:0c:29:1b:30:36:8a:fe:0c:6d:d9:
         3e:a0:43:4f:fa:7a:b3:a3:ad:a3:55:1b:f8:9e:76:09:22:94:
         21:fa:31:77:38:fe:96:e6:88:e6:f2:fc:50:fe:03:d2:0d:d7:
         b3:95:3d:14:b2:a3:d1:92:05:65:85:58:7f:f4:7a:ca:8b:45:
         25:12:78:45:dd:88:3a:e5:97:c2:1a:4e:b0:9d:79:b3:e2:37:
         fa:e5:d2:56:2e:d0:b5:b3:f5:e6:8c:e2:3b:0c:f8:67:64:80:
         02:18:7f:69:37:82:9c:c5:63:88:5a:da:a2:5d:a0:75:ab:49:
         05:96:84:85:30:27:6d:18:36:8f:94:49:96:2b:96:57:17:ca:
         ed:00:d8:85:a9:74:aa:c7:c2:e1:59:c3:bb:7a:58:69:9a:43:
         e0:36:8a:43:8f:82:d0:37:c4:dc:e4:2f:83:94:1d:aa:53:9d:
         c7:17:59:e7:96:ce:bd:1d:d4:2f:0d:96:a5:08:35:64:83:be:
         14:6d:f5:25:b9:d9:8b:32:db:c0:aa:3b:e7:8a:1c:7c:f4:df:
         19:b8:8d:f2:3b:fb:e4:d7:92:04:1b:fc:7c:bc:e2:64:c9:f5:
         f9:e3:05:b5:31:14:df:93:08:4d:db:f0:d8:43:b4:77:fb:c7:
         fa:5d:7f:50:c1:7d:61:78
-----BEGIN CERTIFICATE-----
MIIE1DCCArygAwIBAgIBCjANBgkqhkiG9w0BAQsFADCBkzELMAkGA1UEBhMCVVMx
CzAJBgNVBAgMAkNBMREwDwYDVQQHDAhTdGFuZm9yZDENMAsGA1UECgwEQk1JUjEO
MAwGA1UECwwFQ0VEQVIxHDAaBgNVBAMME21ldGFkYXRhY2VudGVyLm9yZ3gxJzAl
BgkqhkiG9w0BCQEWGG1ldGFkYXRhY2VudGVyQGdtYWlsLmNvbTAeFw0yMzAxMTgx
ODQxMzRaFw0yNTA0MjExODQxMzRaMIGFMQswCQYDVQQGEwJVUzELMAkGA1UECAwC
Q0ExDTALBgNVBAoMBEJNSVIxDjAMBgNVBAsMBUNFREFSMSEwHwYDVQQDDBhvcGVu
Lm1ldGFkYXRhY2VudGVyLm9yZ3gxJzAlBgkqhkiG9w0BCQEWGG1ldGFkYXRhY2Vu
dGVyQGdtYWlsLmNvbTCCASIwDQYJKoZIhvcNAQEBBQADggEPADCCAQoCggEBAL59
sDBKLFCWISmC7y3zkMnePzPQqPr3dHrx8EQHv+SW2J+1/Szd3E+2FaGULGFGw5Rm
P+QVtA8Nuc5aXLPZpvDwCjhvpGobl8tg6tAdLuZIASbdP1Z/ejNNlU4Vp55Ohw19
o8UWB6jlKcxEVmJSk6pEARzzTAj4mN/yyd+W9swBDkdQDwFW3VJzSUFVpKZu5/Sa
QuSapxO2vRfSU5kz777Q1isrO1zVo1LNXFOCjJeqVYH/J6Dz8g8yYPbnMjawTi7W
n9To2WVV6QG0jPaicORodDzldMGRL21rwLdaPbWmnx384zKIJk/pgvWEBFJSIjGq
RILW5oJ3YPBhbbXdnFECAwEAAaM/MD0wCQYDVR0TBAIwADALBgNVHQ8EBAMCBeAw
IwYDVR0RBBwwGoIYb3Blbi5tZXRhZGF0YWNlbnRlci5vcmd4MA0GCSqGSIb3DQEB
CwUAA4ICAQBacQGht7mH/jRvTOc7OWXgq5ZX1u9RZ7wklHfYoUSICBJ83AqVrthy
nQIX6Vm3eY7SKx57ZZzEo9Gy2s62dglWm8G/zSlM5/vzWau4sTMz2wFbf0EkaFHz
Os+VJJa1iu6ntgp5PdCOGbDhqclTBp4ACjwmUxj1s9MvxVFuvrmkcMX+ZzvitXk5
mMt1PT4WhTT45UKT8hAGJrsOVTd6+tvaApEBHe3BT/qLKZnm0ElufGHlrXJUODwM
ZMH6717cQkbbFytjSwsxRsm6nvurjlM+rqcyOdtFFKCfqlNWkspFBSZJpaUH4rUq
MgRhc4XSpSUPvlkJaS9oGnR26sshAeGI6IJ0twwpGzA2iv4Mbdk+oENP+nqzo62j
VRv4nnYJIpQh+jF3OP6W5ojm8vxQ/gPSDdezlT0UsqPRkgVlhVh/9HrKi0UlEnhF
3Yg65ZfCGk6wnXmz4jf65dJWLtC1s/XmjOI7DPhnZIACGH9pN4KcxWOIWtqiXaB1
q0kFloSFMCdtGDaPlEmWK5ZXF8rtANiFqXSqx8LhWcO7elhpmkPgNopDj4LQN8Tc
5C+DlB2qU53HF1nnls69HdQvDZalCDVkg74UbfUludmLMtvAqjvnihx89N8ZuI3y
O/vk15IEG/x8vOJkyfX54wW1MRTfkwhN2/DYQ7R3+8f6XX9QwX1heA==
-----END CERTIFICATE-----
