Certificate:
    Data:
        Version: 3 (0x2)
        Serial Number: 20 (0x14)
        Signature Algorithm: sha256WithRSAEncryption
        Issuer: C=US, ST=CA, L=Stanford, O=BMIR, OU=CEDAR, CN=metadatacenter.orgx/emailAddress=metadatacenter@gmail.com
        Validity
            Not Before: Mar 10 01:24:14 2023 GMT
            Not After : Jun 11 01:24:14 2025 GMT
        Subject: C=US, ST=CA, O=BMIR, OU=CEDAR, CN=artifacts.metadatacenter.orgx/emailAddress=metadatacenter@gmail.com
        Subject Public Key Info:
            Public Key Algorithm: rsaEncryption
                RSA Public-Key: (2048 bit)
                Modulus:
                    00:ec:41:70:66:83:65:f9:b0:e1:05:a5:36:ba:90:
                    1a:dc:5e:74:87:ca:54:ce:49:c5:c2:ea:dd:e7:8f:
                    48:31:fb:52:6d:01:63:c7:6f:bc:a9:e5:ad:7c:eb:
                    8f:fe:3e:ae:70:17:94:34:60:78:5d:93:d4:8a:73:
                    be:0a:cb:48:18:6a:30:c0:5d:ee:49:da:eb:d8:3d:
                    71:b2:88:5f:ba:ac:6a:c7:8d:da:86:33:af:b0:82:
                    1f:61:2a:b6:49:48:40:6e:3e:f4:d8:22:2c:0e:4d:
                    d6:d0:fa:58:6c:d2:6d:e0:34:65:9e:ef:a0:a8:47:
                    c6:2e:d5:23:f1:09:b2:9b:1c:e2:97:30:b7:37:8c:
                    32:95:21:db:91:ee:32:a3:ea:3c:e9:98:9d:02:7c:
                    b0:d7:b1:ee:2f:69:85:37:0e:f7:25:fe:21:c4:0f:
                    20:d4:b6:21:0b:5e:b9:b8:73:ef:c9:6e:29:ed:0a:
                    7f:5d:20:07:33:53:c2:40:f0:dd:d0:4d:79:48:57:
                    41:95:bb:da:45:2e:c0:8a:29:ab:3b:09:bb:a0:23:
                    08:fa:7b:d6:2b:b5:6f:70:4d:42:a1:a7:ea:fb:26:
                    c5:19:f5:e6:47:db:93:91:ef:84:6d:41:a9:35:40:
                    17:b0:d0:9b:c5:e0:fb:a9:13:63:fa:5f:e7:82:3f:
                    6b:e1
                Exponent: 65537 (0x10001)
        X509v3 extensions:
            X509v3 Basic Constraints: 
                CA:FALSE
            X509v3 Key Usage: 
                Digital Signature, Non Repudiation, Key Encipherment
            X509v3 Subject Alternative Name: 
                DNS:artifacts.metadatacenter.orgx
    Signature Algorithm: sha256WithRSAEncryption
         63:22:cc:17:a7:43:58:29:4a:04:b9:dd:53:2b:d5:dd:22:6b:
         71:4c:60:2b:f4:fd:0c:48:74:e1:73:b3:a8:a1:b2:6d:74:13:
         cc:5b:b4:74:45:f0:3b:ec:fe:90:8c:8e:58:70:05:d8:6f:8a:
         62:18:48:49:a0:c6:de:18:40:bc:6f:63:6a:dd:19:7d:44:12:
         88:7e:fe:f2:f7:28:99:a7:6f:f3:42:a5:cb:f3:b8:37:f3:b2:
         85:4e:4c:43:86:28:63:03:f5:09:b8:10:02:8e:b5:13:ca:c0:
         4d:11:af:67:aa:7b:2c:b5:9e:88:9e:fd:26:8c:b9:cf:b1:ed:
         b8:e2:09:78:15:d5:52:e4:87:5c:13:c3:20:50:38:d6:ba:f0:
         0f:6c:4d:0a:1e:34:3a:15:8d:5f:90:5b:1b:10:4b:49:6d:7a:
         85:04:c0:91:25:27:5f:b6:e3:36:80:a0:70:b8:60:93:4a:40:
         f9:57:69:2b:4e:f5:03:d8:a0:a1:00:b8:12:73:8c:a9:f0:2e:
         34:92:d8:ec:9c:25:22:86:fd:b0:e9:2b:e6:35:a1:b8:ea:e7:
         7c:cf:cc:86:86:dd:2c:c6:4e:b5:e7:f7:4e:d9:51:64:0b:ac:
         92:37:c9:f5:e6:96:48:35:12:11:04:ec:7d:ca:33:94:2f:54:
         8c:79:51:af:56:9a:1c:d3:7c:f8:a0:d1:ae:03:65:04:3e:81:
         55:44:87:3a:9d:40:5c:9e:a7:ce:6c:42:5f:54:4d:f9:6e:42:
         9d:2a:d2:a8:75:9b:02:76:84:91:20:41:79:c8:d7:bd:c3:ed:
         3e:81:93:97:44:18:6c:70:f0:a1:9a:cf:90:c1:1f:2d:57:07:
         8b:79:18:04:41:fd:67:c0:00:12:9b:07:7a:25:21:21:9d:bc:
         4f:b5:b3:19:dc:da:2f:c9:cf:1a:b3:19:bf:f9:54:26:19:43:
         a2:43:3e:17:a8:c2:58:36:38:8b:76:3e:71:96:fc:08:75:04:
         46:c7:ab:8a:f2:23:ae:26:99:59:95:69:2a:40:66:d5:fe:c9:
         ed:d9:24:4f:ba:14:8d:70:cc:1e:4a:79:0f:cc:c0:4a:20:65:
         61:a4:e1:1d:65:56:ab:2d:6c:cd:70:6b:f5:50:15:c9:85:1e:
         de:10:12:c6:2e:f2:3e:56:03:e9:8c:a4:2a:df:64:9e:21:ec:
         1a:35:e2:64:e4:b9:46:a4:65:e7:ea:11:3c:23:56:d0:1c:6c:
         23:d3:00:c5:a1:7a:a9:55:52:3a:79:ff:66:4d:34:ae:31:1f:
         11:2f:1a:72:fd:af:6a:30:98:27:19:08:9d:b4:d4:42:2d:38:
         d0:f3:9a:00:b9:20:b6:99
-----BEGIN CERTIFICATE-----
MIIE3jCCAsagAwIBAgIBFDANBgkqhkiG9w0BAQsFADCBkzELMAkGA1UEBhMCVVMx
CzAJBgNVBAgMAkNBMREwDwYDVQQHDAhTdGFuZm9yZDENMAsGA1UECgwEQk1JUjEO
MAwGA1UECwwFQ0VEQVIxHDAaBgNVBAMME21ldGFkYXRhY2VudGVyLm9yZ3gxJzAl
BgkqhkiG9w0BCQEWGG1ldGFkYXRhY2VudGVyQGdtYWlsLmNvbTAeFw0yMzAzMTAw
MTI0MTRaFw0yNTA2MTEwMTI0MTRaMIGKMQswCQYDVQQGEwJVUzELMAkGA1UECAwC
Q0ExDTALBgNVBAoMBEJNSVIxDjAMBgNVBAsMBUNFREFSMSYwJAYDVQQDDB1hcnRp
ZmFjdHMubWV0YWRhdGFjZW50ZXIub3JneDEnMCUGCSqGSIb3DQEJARYYbWV0YWRh
dGFjZW50ZXJAZ21haWwuY29tMIIBIjANBgkqhkiG9w0BAQEFAAOCAQ8AMIIBCgKC
AQEA7EFwZoNl+bDhBaU2upAa3F50h8pUzknFwurd549IMftSbQFjx2+8qeWtfOuP
/j6ucBeUNGB4XZPUinO+CstIGGowwF3uSdrr2D1xsohfuqxqx43ahjOvsIIfYSq2
SUhAbj702CIsDk3W0PpYbNJt4DRlnu+gqEfGLtUj8QmymxzilzC3N4wylSHbke4y
o+o86ZidAnyw17HuL2mFNw73Jf4hxA8g1LYhC165uHPvyW4p7Qp/XSAHM1PCQPDd
0E15SFdBlbvaRS7AiimrOwm7oCMI+nvWK7VvcE1Coafq+ybFGfXmR9uTke+EbUGp
NUAXsNCbxeD7qRNj+l/ngj9r4QIDAQABo0QwQjAJBgNVHRMEAjAAMAsGA1UdDwQE
AwIF4DAoBgNVHREEITAfgh1hcnRpZmFjdHMubWV0YWRhdGFjZW50ZXIub3JneDAN
BgkqhkiG9w0BAQsFAAOCAgEAYyLMF6dDWClKBLndUyvV3SJrcUxgK/T9DEh04XOz
qKGybXQTzFu0dEXwO+z+kIyOWHAF2G+KYhhISaDG3hhAvG9jat0ZfUQSiH7+8vco
madv80Kly/O4N/OyhU5MQ4YoYwP1CbgQAo61E8rATRGvZ6p7LLWeiJ79Joy5z7Ht
uOIJeBXVUuSHXBPDIFA41rrwD2xNCh40OhWNX5BbGxBLSW16hQTAkSUnX7bjNoCg
cLhgk0pA+VdpK071A9igoQC4EnOMqfAuNJLY7JwlIob9sOkr5jWhuOrnfM/Mhobd
LMZOtef3TtlRZAuskjfJ9eaWSDUSEQTsfcozlC9UjHlRr1aaHNN8+KDRrgNlBD6B
VUSHOp1AXJ6nzmxCX1RN+W5CnSrSqHWbAnaEkSBBecjXvcPtPoGTl0QYbHDwoZrP
kMEfLVcHi3kYBEH9Z8AAEpsHeiUhIZ28T7WzGdzaL8nPGrMZv/lUJhlDokM+F6jC
WDY4i3Y+cZb8CHUERserivIjriaZWZVpKkBm1f7J7dkkT7oUjXDMHkp5D8zASiBl
YaThHWVWqy1szXBr9VAVyYUe3hASxi7yPlYD6YykKt9kniHsGjXiZOS5RqRl5+oR
PCNW0BxsI9MAxaF6qVVSOnn/Zk00rjEfES8acv2vajCYJxkInbTUQi040POaALkg
tpk=
-----END CERTIFICATE-----
