Certificate:
    Data:
        Version: 3 (0x2)
        Serial Number: 21 (0x15)
        Signature Algorithm: sha256WithRSAEncryption
        Issuer: C=US, ST=CA, L=Stanford, O=BMIR, OU=CEDAR, CN=metadatacenter.orgx/emailAddress=metadatacenter@gmail.com
        Validity
            Not Before: Jan 18 00:50:46 2024 GMT
            Not After : Apr 21 00:50:46 2026 GMT
        Subject: C=US, ST=CA, O=BMIR, OU=CEDAR, CN=artifacts.metadatacenter.orgx/emailAddress=metadatacenter@gmail.com
        Subject Public Key Info:
            Public Key Algorithm: rsaEncryption
                RSA Public-Key: (2048 bit)
                Modulus:
                    00:de:79:bc:3d:c3:96:b4:73:1f:63:2f:e0:8c:d5:
                    f8:59:c8:43:12:a5:fe:39:4d:91:f7:ed:51:e1:d9:
                    4a:71:1c:95:be:d2:bf:31:0b:8a:1c:70:f7:61:bc:
                    93:db:59:3b:59:68:55:c3:5c:39:b7:67:b2:0c:ff:
                    b7:23:a1:16:1c:4f:a0:98:97:f6:9d:2a:b4:84:be:
                    0d:90:d3:4d:c2:f4:c0:f8:4e:78:df:1f:d3:61:01:
                    71:d9:b2:4d:3f:d1:40:d3:a3:34:d4:2f:a7:20:dd:
                    18:78:61:8c:7a:d6:5c:6c:cc:6e:2e:e8:2b:95:84:
                    ed:e6:d7:ed:37:3d:c7:d6:e2:d2:4b:98:18:8b:b5:
                    50:21:5d:6d:40:b0:58:be:98:60:c5:02:56:15:af:
                    fd:30:1a:28:64:58:d1:a9:5c:02:99:57:dc:11:cf:
                    97:0a:67:a2:55:56:c2:a2:a7:f6:db:ec:de:c7:30:
                    bb:7c:bf:d0:92:b3:47:cd:b3:c4:25:e4:0b:f3:60:
                    4e:81:f7:4b:5f:49:de:a1:4b:83:47:89:23:a0:6c:
                    13:7a:71:2a:22:bc:5a:a3:02:df:56:5a:43:40:82:
                    9a:6a:3c:dc:51:d1:57:ab:d0:21:8d:93:45:f1:95:
                    e5:54:5e:a8:ef:88:58:d4:38:f7:cb:28:60:f9:41:
                    dd:49
                Exponent: 65537 (0x10001)
        X509v3 extensions:
            X509v3 Basic Constraints: 
                CA:FALSE
            X509v3 Key Usage: 
                Digital Signature, Non Repudiation, Key Encipherment
            X509v3 Subject Alternative Name: 
                DNS:artifacts.metadatacenter.orgx
    Signature Algorithm: sha256WithRSAEncryption
         80:68:1a:fa:ff:b3:85:e6:f2:46:e5:7b:34:fa:2c:55:b9:82:
         28:1d:63:97:8c:91:eb:63:17:2b:3c:91:53:72:c5:17:7c:61:
         e1:db:84:5b:83:1b:73:a2:49:d5:5c:1d:e7:21:14:5e:1b:a6:
         f5:45:1f:4f:86:c5:ca:23:52:c9:d8:8f:6b:86:eb:dd:6f:62:
         02:92:83:04:18:f9:f6:32:38:77:22:a8:d9:1e:ca:ab:72:03:
         2f:f1:fa:4d:d7:9b:8c:89:61:18:95:2b:4c:c2:0a:21:9a:07:
         88:aa:66:c6:b5:64:3d:1a:0f:6a:6a:59:f6:38:c4:9c:0e:19:
         5e:9b:9e:e9:c3:37:c8:9c:e5:ec:e5:f9:e0:42:d7:d7:53:df:
         dd:f2:8a:64:f6:dd:48:38:c7:13:86:82:ee:a2:0a:c0:7d:d9:
         30:d4:86:92:62:48:ba:6f:fc:31:1b:6d:54:c0:5d:d5:5e:7c:
         ec:1b:0f:bd:1d:7c:e2:2b:82:c4:2a:93:92:23:14:dd:c0:58:
         07:a3:b6:0e:b7:ff:65:5b:02:c6:cb:ca:c7:39:4e:55:ca:62:
         76:aa:a5:d7:9e:70:1a:a0:27:74:6b:e4:e7:77:7d:b1:47:c7:
         4e:9a:89:27:6e:64:78:69:cf:ad:c3:40:0a:42:0a:26:55:a1:
         99:65:85:6c:cf:a9:1b:e9:ad:e2:16:c9:65:eb:73:a3:44:c8:
         5c:00:a8:76:d3:fa:48:eb:86:70:12:f2:1a:75:31:95:84:03:
         ab:f1:05:e8:73:f0:78:08:38:f7:ae:c9:03:28:91:c4:de:3a:
         d9:1e:ec:95:22:1f:b1:1e:05:bc:6e:33:b8:a6:4c:6e:9f:dc:
         e2:0b:53:2f:d6:03:8f:e1:cb:3e:21:c2:e0:4b:48:df:ee:51:
         44:20:6c:a4:63:d7:75:cd:57:32:db:a1:eb:89:65:68:6c:1f:
         93:d2:fe:68:d1:18:ff:4f:53:e0:f6:29:0c:cb:a7:b3:b5:65:
         32:57:b8:79:3b:fa:fc:0c:b5:ef:0c:2f:de:cf:03:4a:30:ef:
         88:bf:24:5c:81:fe:d0:98:1c:2b:57:2d:3e:f1:f4:e7:64:7d:
         9b:22:ab:08:48:28:fd:03:a5:2e:4e:5b:32:76:d6:5b:21:5a:
         7f:9f:31:ac:c4:bc:6c:cc:2c:0c:ac:e6:42:ee:2b:e6:02:6b:
         43:01:99:d6:84:11:ce:8f:11:a0:4d:b5:aa:f3:10:31:df:dc:
         a4:60:68:91:43:38:c1:22:80:3d:d8:96:03:4a:c6:ee:df:00:
         d0:f8:6e:68:a3:a4:f6:f3:d3:3b:f1:d9:e0:51:74:44:26:20:
         4c:8d:a7:43:76:da:d4:f3
-----BEGIN CERTIFICATE-----
MIIE3jCCAsagAwIBAgIBFTANBgkqhkiG9w0BAQsFADCBkzELMAkGA1UEBhMCVVMx
CzAJBgNVBAgMAkNBMREwDwYDVQQHDAhTdGFuZm9yZDENMAsGA1UECgwEQk1JUjEO
MAwGA1UECwwFQ0VEQVIxHDAaBgNVBAMME21ldGFkYXRhY2VudGVyLm9yZ3gxJzAl
BgkqhkiG9w0BCQEWGG1ldGFkYXRhY2VudGVyQGdtYWlsLmNvbTAeFw0yNDAxMTgw
MDUwNDZaFw0yNjA0MjEwMDUwNDZaMIGKMQswCQYDVQQGEwJVUzELMAkGA1UECAwC
Q0ExDTALBgNVBAoMBEJNSVIxDjAMBgNVBAsMBUNFREFSMSYwJAYDVQQDDB1hcnRp
ZmFjdHMubWV0YWRhdGFjZW50ZXIub3JneDEnMCUGCSqGSIb3DQEJARYYbWV0YWRh
dGFjZW50ZXJAZ21haWwuY29tMIIBIjANBgkqhkiG9w0BAQEFAAOCAQ8AMIIBCgKC
AQEA3nm8PcOWtHMfYy/gjNX4WchDEqX+OU2R9+1R4dlKcRyVvtK/MQuKHHD3YbyT
21k7WWhVw1w5t2eyDP+3I6EWHE+gmJf2nSq0hL4NkNNNwvTA+E543x/TYQFx2bJN
P9FA06M01C+nIN0YeGGMetZcbMxuLugrlYTt5tftNz3H1uLSS5gYi7VQIV1tQLBY
vphgxQJWFa/9MBooZFjRqVwCmVfcEc+XCmeiVVbCoqf22+zexzC7fL/QkrNHzbPE
JeQL82BOgfdLX0neoUuDR4kjoGwTenEqIrxaowLfVlpDQIKaajzcUdFXq9AhjZNF
8ZXlVF6o74hY1Dj3yyhg+UHdSQIDAQABo0QwQjAJBgNVHRMEAjAAMAsGA1UdDwQE
AwIF4DAoBgNVHREEITAfgh1hcnRpZmFjdHMubWV0YWRhdGFjZW50ZXIub3JneDAN
BgkqhkiG9w0BAQsFAAOCAgEAgGga+v+zhebyRuV7NPosVbmCKB1jl4yR62MXKzyR
U3LFF3xh4duEW4Mbc6JJ1Vwd5yEUXhum9UUfT4bFyiNSydiPa4br3W9iApKDBBj5
9jI4dyKo2R7Kq3IDL/H6TdebjIlhGJUrTMIKIZoHiKpmxrVkPRoPampZ9jjEnA4Z
Xpue6cM3yJzl7OX54ELX11Pf3fKKZPbdSDjHE4aC7qIKwH3ZMNSGkmJIum/8MRtt
VMBd1V587BsPvR184iuCxCqTkiMU3cBYB6O2Drf/ZVsCxsvKxzlOVcpidqql155w
GqAndGvk53d9sUfHTpqJJ25keGnPrcNACkIKJlWhmWWFbM+pG+mt4hbJZetzo0TI
XACodtP6SOuGcBLyGnUxlYQDq/EF6HPweAg4967JAyiRxN462R7slSIfsR4FvG4z
uKZMbp/c4gtTL9YDj+HLPiHC4EtI3+5RRCBspGPXdc1XMtuh64llaGwfk9L+aNEY
/09T4PYpDMuns7VlMle4eTv6/Ay17wwv3s8DSjDviL8kXIH+0JgcK1ctPvH052R9
myKrCEgo/QOlLk5bMnbWWyFaf58xrMS8bMwsDKzmQu4r5gJrQwGZ1oQRzo8RoE21
qvMQMd/cpGBokUM4wSKAPdiWA0rG7t8A0PhuaKOk9vPTO/HZ4FF0RCYgTI2nQ3ba
1PM=
-----END CERTIFICATE-----
