Certificate:
    Data:
        Version: 3 (0x2)
        Serial Number: 21 (0x15)
        Signature Algorithm: sha256WithRSAEncryption
        Issuer: C=US, ST=CA, L=Stanford, O=BMIR, OU=CEDAR, CN=metadatacenter.orgx/emailAddress=metadatacenter@gmail.com
        Validity
            Not Before: Jan 17 21:50:44 2024 GMT
            Not After : Apr 20 21:50:44 2026 GMT
        Subject: C=US, ST=CA, O=BMIR, OU=CEDAR, CN=artifacts.metadatacenter.orgx/emailAddress=metadatacenter@gmail.com
        Subject Public Key Info:
            Public Key Algorithm: rsaEncryption
                RSA Public-Key: (2048 bit)
                Modulus:
                    00:ba:c3:4f:22:c8:b7:51:2b:37:d9:5d:91:31:26:
                    79:75:cb:d9:b5:6b:2f:02:74:4a:86:3e:f4:05:70:
                    38:0f:45:03:71:d8:0c:19:ab:f7:d7:0d:13:3f:02:
                    d4:ac:43:2a:cc:16:61:96:6b:19:bb:ae:d8:65:a0:
                    d7:a6:15:12:c4:8b:52:45:6c:b2:ae:16:19:69:46:
                    1d:a8:ff:50:26:3e:95:51:63:c3:6d:cc:bd:88:f3:
                    50:63:b4:94:7e:fc:48:fe:7c:ad:7f:8c:db:6e:19:
                    a7:7e:9d:ab:98:3e:68:9e:2d:32:36:45:a6:df:c4:
                    ac:1d:50:91:e5:ab:6f:e5:a2:ae:62:14:33:e5:73:
                    a2:f1:34:88:ed:6a:07:85:aa:9e:14:e2:0a:3d:dc:
                    06:50:12:40:92:09:6b:67:4e:5e:c1:68:4f:e2:87:
                    70:94:ea:7f:75:6e:2d:db:34:6e:24:8a:c8:49:31:
                    da:2c:2c:57:79:20:30:fb:31:88:a0:20:12:9f:ea:
                    48:da:3a:bf:33:4b:b6:87:37:cf:0e:33:c4:d6:55:
                    68:cf:fa:00:94:00:81:2c:80:91:60:7e:27:2b:d5:
                    f4:46:40:ba:c0:e5:7f:be:a0:a5:ce:e4:fe:e2:f5:
                    4f:bb:33:a1:a5:78:2c:36:5d:1b:b7:64:fc:6d:1d:
                    c1:ef
                Exponent: 65537 (0x10001)
        X509v3 extensions:
            X509v3 Basic Constraints: 
                CA:FALSE
            X509v3 Key Usage: 
                Digital Signature, Non Repudiation, Key Encipherment
            X509v3 Subject Alternative Name: 
                DNS:artifacts.metadatacenter.orgx
    Signature Algorithm: sha256WithRSAEncryption
         53:e1:5e:8a:f0:14:0c:2a:86:30:af:ca:77:ac:35:45:67:31:
         bf:56:78:3f:86:d9:f5:50:44:93:5e:91:c7:77:f0:8a:26:25:
         a9:05:56:21:cb:00:64:5a:ef:6f:3e:4a:31:74:e8:ee:ce:81:
         fb:22:6d:b7:20:73:30:14:68:30:3d:1c:05:24:a5:5b:c7:88:
         c5:74:8a:81:16:95:e7:89:14:f3:e2:91:16:74:e6:e0:03:18:
         0e:bf:82:88:22:dd:6a:9b:a4:0f:d3:80:d2:2d:b6:6d:c1:7f:
         71:4d:17:b0:b1:e7:4e:7c:57:70:8f:04:a2:32:8e:a1:ba:12:
         43:5a:da:3c:7f:95:ca:69:33:89:21:0e:f5:99:81:60:82:6e:
         8b:09:1e:b6:ba:cf:8c:97:ed:71:b2:ff:3a:67:29:7c:d2:dd:
         96:f7:c4:43:80:37:37:71:95:b6:e9:3d:1f:84:68:45:59:1f:
         b4:f2:a0:3a:c6:b4:79:4c:a0:46:1a:a9:60:a0:83:e5:db:0d:
         d7:46:34:70:34:2f:58:9e:62:10:30:51:f8:be:47:71:77:d3:
         ef:14:25:3d:27:ef:96:1d:a0:85:3e:b1:d2:40:ae:82:82:b6:
         fe:36:39:f9:53:52:6c:83:29:fa:8b:a7:e7:4b:8a:ce:ee:d5:
         a7:90:e6:e0:ad:93:1d:0f:c0:f8:23:28:22:e7:27:79:db:8a:
         0b:dd:f3:9b:8d:32:d2:ff:dd:a1:f6:c4:05:93:c3:8e:99:ab:
         5c:b4:c3:54:ab:23:8c:85:d3:12:04:6e:dc:01:1c:15:05:be:
         71:88:c9:b0:f8:94:f0:c9:ec:2f:77:9a:75:bc:21:83:e9:8e:
         24:20:87:b0:18:4f:82:0b:f3:24:6e:1b:43:fb:95:d9:d4:c3:
         56:fb:34:a6:66:f5:8c:16:82:99:4d:10:8a:d7:f5:d5:d2:ae:
         10:b8:7a:3e:72:08:36:26:53:f6:3d:2f:36:57:32:5b:9b:01:
         96:0c:57:35:44:d6:20:f3:eb:c6:e0:a9:95:67:7f:cc:21:d6:
         f5:40:6d:e7:e3:22:46:6d:e8:cf:03:59:22:cc:8b:58:ac:7c:
         34:7c:08:35:5e:ba:58:f3:cb:69:b9:da:14:cc:ab:b3:7a:96:
         67:da:28:cb:06:30:90:d6:b6:ed:38:32:2e:cf:d0:85:6d:fd:
         ba:e4:3b:f5:bd:9a:db:08:3c:4d:2d:ad:95:c4:58:fd:80:c9:
         b7:8b:c6:b9:4f:ad:54:ee:ed:ef:a5:7f:ad:12:7a:21:5c:43:
         03:3f:9b:38:6f:b9:29:8e:e1:6c:d6:ba:a9:8d:09:49:fe:15:
         e4:b7:50:a7:40:e7:5f:78
-----BEGIN CERTIFICATE-----
MIIE3jCCAsagAwIBAgIBFTANBgkqhkiG9w0BAQsFADCBkzELMAkGA1UEBhMCVVMx
CzAJBgNVBAgMAkNBMREwDwYDVQQHDAhTdGFuZm9yZDENMAsGA1UECgwEQk1JUjEO
MAwGA1UECwwFQ0VEQVIxHDAaBgNVBAMME21ldGFkYXRhY2VudGVyLm9yZ3gxJzAl
BgkqhkiG9w0BCQEWGG1ldGFkYXRhY2VudGVyQGdtYWlsLmNvbTAeFw0yNDAxMTcy
MTUwNDRaFw0yNjA0MjAyMTUwNDRaMIGKMQswCQYDVQQGEwJVUzELMAkGA1UECAwC
Q0ExDTALBgNVBAoMBEJNSVIxDjAMBgNVBAsMBUNFREFSMSYwJAYDVQQDDB1hcnRp
ZmFjdHMubWV0YWRhdGFjZW50ZXIub3JneDEnMCUGCSqGSIb3DQEJARYYbWV0YWRh
dGFjZW50ZXJAZ21haWwuY29tMIIBIjANBgkqhkiG9w0BAQEFAAOCAQ8AMIIBCgKC
AQEAusNPIsi3USs32V2RMSZ5dcvZtWsvAnRKhj70BXA4D0UDcdgMGav31w0TPwLU
rEMqzBZhlmsZu67YZaDXphUSxItSRWyyrhYZaUYdqP9QJj6VUWPDbcy9iPNQY7SU
fvxI/nytf4zbbhmnfp2rmD5oni0yNkWm38SsHVCR5atv5aKuYhQz5XOi8TSI7WoH
haqeFOIKPdwGUBJAkglrZ05ewWhP4odwlOp/dW4t2zRuJIrISTHaLCxXeSAw+zGI
oCASn+pI2jq/M0u2hzfPDjPE1lVoz/oAlACBLICRYH4nK9X0RkC6wOV/vqClzuT+
4vVPuzOhpXgsNl0bt2T8bR3B7wIDAQABo0QwQjAJBgNVHRMEAjAAMAsGA1UdDwQE
AwIF4DAoBgNVHREEITAfgh1hcnRpZmFjdHMubWV0YWRhdGFjZW50ZXIub3JneDAN
BgkqhkiG9w0BAQsFAAOCAgEAU+FeivAUDCqGMK/Kd6w1RWcxv1Z4P4bZ9VBEk16R
x3fwiiYlqQVWIcsAZFrvbz5KMXTo7s6B+yJttyBzMBRoMD0cBSSlW8eIxXSKgRaV
54kU8+KRFnTm4AMYDr+CiCLdapukD9OA0i22bcF/cU0XsLHnTnxXcI8EojKOoboS
Q1raPH+VymkziSEO9ZmBYIJuiwketrrPjJftcbL/OmcpfNLdlvfEQ4A3N3GVtuk9
H4RoRVkftPKgOsa0eUygRhqpYKCD5dsN10Y0cDQvWJ5iEDBR+L5HcXfT7xQlPSfv
lh2ghT6x0kCugoK2/jY5+VNSbIMp+oun50uKzu7Vp5Dm4K2THQ/A+CMoIucneduK
C93zm40y0v/dofbEBZPDjpmrXLTDVKsjjIXTEgRu3AEcFQW+cYjJsPiU8MnsL3ea
dbwhg+mOJCCHsBhPggvzJG4bQ/uV2dTDVvs0pmb1jBaCmU0Qitf11dKuELh6PnII
NiZT9j0vNlcyW5sBlgxXNUTWIPPrxuCplWd/zCHW9UBt5+MiRm3ozwNZIsyLWKx8
NHwINV66WPPLabnaFMyrs3qWZ9ooywYwkNa27TgyLs/QhW39uuQ79b2a2wg8TS2t
lcRY/YDJt4vGuU+tVO7t76V/rRJ6IVxDAz+bOG+5KY7hbNa6qY0JSf4V5LdQp0Dn
X3g=
-----END CERTIFICATE-----
